ARM GAS  C:\Users\Svilen\AppData\Local\Temp\ccFr0ira.s 			page 1


   1              		.cpu cortex-m0
   2              		.fpu softvfp
   3              		.eabi_attribute 20, 1
   4              		.eabi_attribute 21, 1
   5              		.eabi_attribute 23, 3
   6              		.eabi_attribute 24, 1
   7              		.eabi_attribute 25, 1
   8              		.eabi_attribute 26, 1
   9              		.eabi_attribute 30, 1
  10              		.eabi_attribute 34, 0
  11              		.eabi_attribute 18, 4
  12              		.code	16
  13              		.file	"bmp280.c"
  14              		.text
  15              	.Ltext0:
  16              		.cfi_sections	.debug_frame
  17              		.section	.text.bmp280_read_uncomp_temperature,"ax",%progbits
  18              		.align	2
  19              		.global	bmp280_read_uncomp_temperature
  20              		.code	16
  21              		.thumb_func
  22              		.type	bmp280_read_uncomp_temperature, %function
  23              	bmp280_read_uncomp_temperature:
  24              	.LFB1:
  25              		.file 1 ".\\bmp280.c"
   1:.\bmp280.c    **** /*
   2:.\bmp280.c    ****  ****************************************************************************
   3:.\bmp280.c    ****  * Copyright (C) 2015 - 2016 Bosch Sensortec GmbH
   4:.\bmp280.c    ****  *
   5:.\bmp280.c    ****  * File : bmp280.c
   6:.\bmp280.c    ****  *
   7:.\bmp280.c    ****  * Date : 2016/07/01
   8:.\bmp280.c    ****  *
   9:.\bmp280.c    ****  * Revision : 2.0.5(Pressure and Temperature compensation code revision is 1.1)
  10:.\bmp280.c    ****  *
  11:.\bmp280.c    ****  * Usage: Sensor Driver for BMP280 sensor
  12:.\bmp280.c    ****  *
  13:.\bmp280.c    ****  ****************************************************************************
  14:.\bmp280.c    **** *
  15:.\bmp280.c    **** * \section License
  16:.\bmp280.c    **** *
  17:.\bmp280.c    **** * Redistribution and use in source and binary forms, with or without
  18:.\bmp280.c    **** * modification, are permitted provided that the following conditions are met:
  19:.\bmp280.c    **** *
  20:.\bmp280.c    **** *   Redistributions of source code must retain the above copyright
  21:.\bmp280.c    **** *   notice, this list of conditions and the following disclaimer.
  22:.\bmp280.c    **** *
  23:.\bmp280.c    **** *   Redistributions in binary form must reproduce the above copyright
  24:.\bmp280.c    **** *   notice, this list of conditions and the following disclaimer in the
  25:.\bmp280.c    **** *   documentation and/or other materials provided with the distribution.
  26:.\bmp280.c    **** *
  27:.\bmp280.c    **** *   Neither the name of the copyright holder nor the names of the
  28:.\bmp280.c    **** *   contributors may be used to endorse or promote products derived from
  29:.\bmp280.c    **** *   this software without specific prior written permission.
  30:.\bmp280.c    **** *
  31:.\bmp280.c    **** * THIS SOFTWARE IS PROVIDED BY THE COPYRIGHT HOLDERS AND
  32:.\bmp280.c    **** * CONTRIBUTORS "AS IS" AND ANY EXPRESS OR
ARM GAS  C:\Users\Svilen\AppData\Local\Temp\ccFr0ira.s 			page 2


  33:.\bmp280.c    **** * IMPLIED WARRANTIES, INCLUDING, BUT NOT LIMITED TO, THE IMPLIED
  34:.\bmp280.c    **** * WARRANTIES OF MERCHANTABILITY AND FITNESS FOR A PARTICULAR PURPOSE ARE
  35:.\bmp280.c    **** * DISCLAIMED. IN NO EVENT SHALL COPYRIGHT HOLDER
  36:.\bmp280.c    **** * OR CONTRIBUTORS BE LIABLE FOR ANY
  37:.\bmp280.c    **** * DIRECT, INDIRECT, INCIDENTAL, SPECIAL, EXEMPLARY,
  38:.\bmp280.c    **** * OR CONSEQUENTIAL DAMAGES(INCLUDING, BUT NOT LIMITED TO,
  39:.\bmp280.c    **** * PROCUREMENT OF SUBSTITUTE GOODS OR SERVICES;
  40:.\bmp280.c    **** * LOSS OF USE, DATA, OR PROFITS; OR BUSINESS INTERRUPTION)
  41:.\bmp280.c    **** * HOWEVER CAUSED AND ON ANY THEORY OF LIABILITY,
  42:.\bmp280.c    **** * WHETHER IN CONTRACT, STRICT LIABILITY, OR TORT
  43:.\bmp280.c    **** * (INCLUDING NEGLIGENCE OR OTHERWISE) ARISING IN
  44:.\bmp280.c    **** * ANY WAY OUT OF THE USE OF THIS
  45:.\bmp280.c    **** * SOFTWARE, EVEN IF ADVISED OF THE POSSIBILITY OF SUCH DAMAGE
  46:.\bmp280.c    **** *
  47:.\bmp280.c    **** * The information provided is believed to be accurate and reliable.
  48:.\bmp280.c    **** * The copyright holder assumes no responsibility
  49:.\bmp280.c    **** * for the consequences of use
  50:.\bmp280.c    **** * of such information nor for any infringement of patents or
  51:.\bmp280.c    **** * other rights of third parties which may result from its use.
  52:.\bmp280.c    **** * No license is granted by implication or otherwise under any patent or
  53:.\bmp280.c    **** * patent rights of the copyright holder.
  54:.\bmp280.c    **** **************************************************************************/
  55:.\bmp280.c    **** #include "bmp280.h"
  56:.\bmp280.c    **** static struct bmp280_t *p_bmp280; /**< pointer to BMP280 */
  57:.\bmp280.c    **** 
  58:.\bmp280.c    **** /*!
  59:.\bmp280.c    ****  *	@brief This function is used for initialize
  60:.\bmp280.c    ****  *	the bus read and bus write functions
  61:.\bmp280.c    ****  *  and assign the chip id and I2C address of the BMP280 sensor
  62:.\bmp280.c    ****  *	chip id is read in the register 0xD0 bit from 0 to 7
  63:.\bmp280.c    ****  *
  64:.\bmp280.c    ****  *	@param *bmp280 structure pointer.
  65:.\bmp280.c    ****  *
  66:.\bmp280.c    ****  *	@note While changing the parameter of the p_bmp280
  67:.\bmp280.c    ****  *	@note consider the following point:
  68:.\bmp280.c    ****  *	Changing the reference value of the parameter
  69:.\bmp280.c    ****  *	will changes the local copy or local reference
  70:.\bmp280.c    ****  *	make sure your changes will not
  71:.\bmp280.c    ****  *	affect the reference value of the parameter
  72:.\bmp280.c    ****  *	(Better case don't change the reference value of the parameter)
  73:.\bmp280.c    ****  *
  74:.\bmp280.c    ****  *
  75:.\bmp280.c    ****  *
  76:.\bmp280.c    ****  *
  77:.\bmp280.c    ****  *	@return results of bus communication function
  78:.\bmp280.c    ****  *	@retval 0 -> Success
  79:.\bmp280.c    ****  *	@retval -1 -> Error
  80:.\bmp280.c    ****  *
  81:.\bmp280.c    ****  *
  82:.\bmp280.c    ****  */
  83:.\bmp280.c    **** BMP280_RETURN_FUNCTION_TYPE bmp280_init(struct bmp280_t *bmp280)
  84:.\bmp280.c    **** {
  85:.\bmp280.c    **** 	/* variable used to return communication result*/
  86:.\bmp280.c    **** 	BMP280_RETURN_FUNCTION_TYPE com_rslt = ERROR;
  87:.\bmp280.c    **** 	u8 v_data_u8 = BMP280_INIT_VALUE;
  88:.\bmp280.c    **** 	u8 v_chip_id_read_count = BMP280_CHIP_ID_READ_COUNT;
  89:.\bmp280.c    **** 
ARM GAS  C:\Users\Svilen\AppData\Local\Temp\ccFr0ira.s 			page 3


  90:.\bmp280.c    **** 	p_bmp280 = bmp280;/* assign BMP280 ptr */
  91:.\bmp280.c    **** 
  92:.\bmp280.c    **** 	while (v_chip_id_read_count > 0) {
  93:.\bmp280.c    **** 		/* read chip id */
  94:.\bmp280.c    **** 		com_rslt = p_bmp280->BMP280_BUS_READ_FUNC(p_bmp280->dev_addr,
  95:.\bmp280.c    **** 				BMP280_CHIP_ID_REG, &v_data_u8,
  96:.\bmp280.c    **** 				BMP280_GEN_READ_WRITE_DATA_LENGTH);
  97:.\bmp280.c    **** 		/* Check for the correct chip id */
  98:.\bmp280.c    **** 		if ((v_data_u8 == BMP280_CHIP_ID1)
  99:.\bmp280.c    **** 			|| (v_data_u8 == BMP280_CHIP_ID2)
 100:.\bmp280.c    **** 			|| (v_data_u8 == BMP280_CHIP_ID3))
 101:.\bmp280.c    **** 			break;
 102:.\bmp280.c    **** 		v_chip_id_read_count--;
 103:.\bmp280.c    **** 		/* Delay added concerning the low speed of power up system to
 104:.\bmp280.c    **** 		facilitate the proper reading of the chip ID */
 105:.\bmp280.c    **** 		p_bmp280->delay_msec(BMP280_REGISTER_READ_DELAY);
 106:.\bmp280.c    **** 	}
 107:.\bmp280.c    **** 
 108:.\bmp280.c    **** 	/*assign chip ID to the global structure*/
 109:.\bmp280.c    **** 	p_bmp280->chip_id = v_data_u8;
 110:.\bmp280.c    **** 	/*com_rslt status of chip ID read*/
 111:.\bmp280.c    **** 	com_rslt = (v_chip_id_read_count == BMP280_INIT_VALUE) ?
 112:.\bmp280.c    **** 			BMP280_CHIP_ID_READ_FAIL : BMP280_CHIP_ID_READ_SUCCESS;
 113:.\bmp280.c    **** 
 114:.\bmp280.c    **** 	if (com_rslt == BMP280_CHIP_ID_READ_SUCCESS) {
 115:.\bmp280.c    **** 		/* readout bmp280 calibration parameter structure */
 116:.\bmp280.c    **** 		com_rslt += bmp280_get_calib_param();
 117:.\bmp280.c    **** 	}
 118:.\bmp280.c    **** 	return com_rslt;
 119:.\bmp280.c    **** }
 120:.\bmp280.c    **** /*!
 121:.\bmp280.c    ****  *	@brief This API is used to read uncompensated temperature
 122:.\bmp280.c    ****  *	in the registers 0xFA, 0xFB and 0xFC
 123:.\bmp280.c    ****  *	@note 0xFA -> MSB -> bit from 0 to 7
 124:.\bmp280.c    ****  *	@note 0xFB -> LSB -> bit from 0 to 7
 125:.\bmp280.c    ****  *	@note 0xFC -> LSB -> bit from 4 to 7
 126:.\bmp280.c    ****  *
 127:.\bmp280.c    ****  *	@param v_uncomp_temperature_s32 : The uncompensated temperature.
 128:.\bmp280.c    ****  *
 129:.\bmp280.c    ****  *
 130:.\bmp280.c    ****  *
 131:.\bmp280.c    ****  *	@return results of bus communication function
 132:.\bmp280.c    ****  *	@retval 0 -> Success
 133:.\bmp280.c    ****  *	@retval -1 -> Error
 134:.\bmp280.c    ****  *
 135:.\bmp280.c    ****  *
 136:.\bmp280.c    ****  */
 137:.\bmp280.c    **** BMP280_RETURN_FUNCTION_TYPE bmp280_read_uncomp_temperature(
 138:.\bmp280.c    **** 		s32 *v_uncomp_temperature_s32)
 139:.\bmp280.c    **** {
  26              		.loc 1 139 0
  27              		.cfi_startproc
  28              	.LVL0:
  29 0000 70B5     		push	{r4, r5, r6, lr}
  30              		.cfi_def_cfa_offset 16
  31              		.cfi_offset 4, -16
  32              		.cfi_offset 5, -12
ARM GAS  C:\Users\Svilen\AppData\Local\Temp\ccFr0ira.s 			page 4


  33              		.cfi_offset 6, -8
  34              		.cfi_offset 14, -4
  35 0002 82B0     		sub	sp, sp, #8
  36              		.cfi_def_cfa_offset 24
  37              	.LVL1:
 140:.\bmp280.c    **** 	/* variable used to return communication result*/
 141:.\bmp280.c    **** 	BMP280_RETURN_FUNCTION_TYPE com_rslt = ERROR;
 142:.\bmp280.c    **** 	/* Array holding the MSB and LSb value
 143:.\bmp280.c    **** 	 a_data_u8r[0] - Temperature MSB
 144:.\bmp280.c    **** 	 a_data_u8r[1] - Temperature LSB
 145:.\bmp280.c    **** 	 a_data_u8r[2] - Temperature LSB
 146:.\bmp280.c    **** 	 */
 147:.\bmp280.c    **** 	u8 a_data_u8r[BMP280_TEMPERATURE_DATA_SIZE] = {BMP280_INIT_VALUE,
  38              		.loc 1 147 0
  39 0004 01AB     		add	r3, sp, #4
  40 0006 0022     		mov	r2, #0
  41 0008 1A70     		strb	r2, [r3]
  42 000a 5A70     		strb	r2, [r3, #1]
  43 000c 9A70     		strb	r2, [r3, #2]
 148:.\bmp280.c    **** 			BMP280_INIT_VALUE, BMP280_INIT_VALUE};
 149:.\bmp280.c    **** 	/* check the p_bmp280 structure pointer as NULL*/
 150:.\bmp280.c    **** 	if (p_bmp280 == BMP280_NULL) {
  44              		.loc 1 150 0
  45 000e 0D4B     		ldr	r3, .L4
  46 0010 1B68     		ldr	r3, [r3]
  47 0012 002B     		cmp	r3, #0
  48 0014 11D0     		beq	.L3
  49 0016 051C     		mov	r5, r0
 151:.\bmp280.c    **** 		com_rslt = E_BMP280_NULL_PTR;
 152:.\bmp280.c    **** 	} else {
 153:.\bmp280.c    **** 		/* read temperature data */
 154:.\bmp280.c    **** 		com_rslt = p_bmp280->BMP280_BUS_READ_FUNC(p_bmp280->dev_addr,
  50              		.loc 1 154 0
  51 0018 5E6A     		ldr	r6, [r3, #36]
  52 001a 587F     		ldrb	r0, [r3, #29]
  53              	.LVL2:
  54 001c 01AC     		add	r4, sp, #4
  55 001e FA21     		mov	r1, #250
  56 0020 221C     		mov	r2, r4
  57 0022 0323     		mov	r3, #3
  58 0024 B047     		blx	r6
  59              	.LVL3:
 155:.\bmp280.c    **** 				BMP280_TEMPERATURE_MSB_REG, a_data_u8r,
 156:.\bmp280.c    **** 				BMP280_TEMPERATURE_DATA_LENGTH);
 157:.\bmp280.c    **** 		*v_uncomp_temperature_s32 = (s32)((((u32)(
 158:.\bmp280.c    **** 				a_data_u8r[BMP280_TEMPERATURE_MSB_DATA]))
  60              		.loc 1 158 0
  61 0026 2378     		ldrb	r3, [r4]
 159:.\bmp280.c    **** 				<< BMP280_SHIFT_BIT_POSITION_BY_12_BITS)
  62              		.loc 1 159 0
  63 0028 1A03     		lsl	r2, r3, #12
 160:.\bmp280.c    **** 				| (((u32)(
 161:.\bmp280.c    **** 				a_data_u8r[BMP280_TEMPERATURE_LSB_DATA]))
  64              		.loc 1 161 0
  65 002a 6378     		ldrb	r3, [r4, #1]
 162:.\bmp280.c    **** 				<< BMP280_SHIFT_BIT_POSITION_BY_04_BITS)
  66              		.loc 1 162 0
ARM GAS  C:\Users\Svilen\AppData\Local\Temp\ccFr0ira.s 			page 5


  67 002c 1B01     		lsl	r3, r3, #4
 160:.\bmp280.c    **** 				| (((u32)(
  68              		.loc 1 160 0
  69 002e 1343     		orr	r3, r2
 163:.\bmp280.c    **** 				| ((u32)a_data_u8r[BMP280_TEMPERATURE_XLSB_DATA]
  70              		.loc 1 163 0
  71 0030 A278     		ldrb	r2, [r4, #2]
 164:.\bmp280.c    **** 				>> BMP280_SHIFT_BIT_POSITION_BY_04_BITS));
  72              		.loc 1 164 0
  73 0032 1209     		lsr	r2, r2, #4
 163:.\bmp280.c    **** 				| ((u32)a_data_u8r[BMP280_TEMPERATURE_XLSB_DATA]
  74              		.loc 1 163 0
  75 0034 1343     		orr	r3, r2
 157:.\bmp280.c    **** 				a_data_u8r[BMP280_TEMPERATURE_MSB_DATA]))
  76              		.loc 1 157 0
  77 0036 2B60     		str	r3, [r5]
  78 0038 00E0     		b	.L2
  79              	.LVL4:
  80              	.L3:
 151:.\bmp280.c    **** 	} else {
  81              		.loc 1 151 0
  82 003a 8120     		mov	r0, #129
  83              	.LVL5:
  84              	.L2:
 165:.\bmp280.c    **** 	}
 166:.\bmp280.c    **** 	return com_rslt;
  85              		.loc 1 166 0
  86 003c 40B2     		sxtb	r0, r0
 167:.\bmp280.c    **** }
  87              		.loc 1 167 0
  88 003e 02B0     		add	sp, sp, #8
  89              		@ sp needed
  90 0040 70BD     		pop	{r4, r5, r6, pc}
  91              	.L5:
  92 0042 C046     		.align	2
  93              	.L4:
  94 0044 00000000 		.word	.LANCHOR0
  95              		.cfi_endproc
  96              	.LFE1:
  97              		.size	bmp280_read_uncomp_temperature, .-bmp280_read_uncomp_temperature
  98              		.section	.text.bmp280_compensate_temperature_int32,"ax",%progbits
  99              		.align	2
 100              		.global	bmp280_compensate_temperature_int32
 101              		.code	16
 102              		.thumb_func
 103              		.type	bmp280_compensate_temperature_int32, %function
 104              	bmp280_compensate_temperature_int32:
 105              	.LFB2:
 168:.\bmp280.c    **** /*!
 169:.\bmp280.c    ****  *	@brief Reads actual temperature
 170:.\bmp280.c    ****  *	from uncompensated temperature
 171:.\bmp280.c    ****  *	@note Returns the value in 0.01 degree Centigrade
 172:.\bmp280.c    ****  *	@note Output value of "5123" equals 51.23 DegC.
 173:.\bmp280.c    ****  *
 174:.\bmp280.c    ****  *
 175:.\bmp280.c    ****  *
 176:.\bmp280.c    ****  *  @param v_uncomp_temperature_s32 : value of uncompensated temperature
ARM GAS  C:\Users\Svilen\AppData\Local\Temp\ccFr0ira.s 			page 6


 177:.\bmp280.c    ****  *
 178:.\bmp280.c    ****  *
 179:.\bmp280.c    ****  *
 180:.\bmp280.c    ****  *  @return Actual temperature output as s32
 181:.\bmp280.c    ****  *
 182:.\bmp280.c    ****  */
 183:.\bmp280.c    **** s32 bmp280_compensate_temperature_int32(s32 v_uncomp_temperature_s32)
 184:.\bmp280.c    **** {
 106              		.loc 1 184 0
 107              		.cfi_startproc
 108              	.LVL6:
 109 0000 30B5     		push	{r4, r5, lr}
 110              		.cfi_def_cfa_offset 12
 111              		.cfi_offset 4, -12
 112              		.cfi_offset 5, -8
 113              		.cfi_offset 14, -4
 114              	.LVL7:
 185:.\bmp280.c    **** 	s32 v_x1_u32r = BMP280_INIT_VALUE;
 186:.\bmp280.c    **** 	s32 v_x2_u32r = BMP280_INIT_VALUE;
 187:.\bmp280.c    **** 	s32 temperature = BMP280_INIT_VALUE;
 188:.\bmp280.c    **** 	/* calculate true temperature*/
 189:.\bmp280.c    **** 	/*calculate x1*/
 190:.\bmp280.c    **** 	v_x1_u32r = ((((v_uncomp_temperature_s32
 191:.\bmp280.c    **** 			>> BMP280_SHIFT_BIT_POSITION_BY_03_BITS)
 115              		.loc 1 191 0
 116 0002 C210     		asr	r2, r0, #3
 192:.\bmp280.c    **** 			- ((s32)p_bmp280->calib_param.dig_T1
 117              		.loc 1 192 0
 118 0004 0B4B     		ldr	r3, .L7
 119 0006 1C68     		ldr	r4, [r3]
 120 0008 2588     		ldrh	r5, [r4]
 193:.\bmp280.c    **** 			<< BMP280_SHIFT_BIT_POSITION_BY_01_BIT)))
 121              		.loc 1 193 0
 122 000a 6B00     		lsl	r3, r5, #1
 192:.\bmp280.c    **** 			- ((s32)p_bmp280->calib_param.dig_T1
 123              		.loc 1 192 0
 124 000c D31A     		sub	r3, r2, r3
 194:.\bmp280.c    **** 			* ((s32)p_bmp280->calib_param.dig_T2))
 125              		.loc 1 194 0
 126 000e 0221     		mov	r1, #2
 127 0010 625E     		ldrsh	r2, [r4, r1]
 128 0012 5343     		mul	r3, r2
 190:.\bmp280.c    **** 			>> BMP280_SHIFT_BIT_POSITION_BY_03_BITS)
 129              		.loc 1 190 0
 130 0014 D912     		asr	r1, r3, #11
 131              	.LVL8:
 195:.\bmp280.c    **** 			>> BMP280_SHIFT_BIT_POSITION_BY_11_BITS;
 196:.\bmp280.c    **** 	/*calculate x2*/
 197:.\bmp280.c    **** 	v_x2_u32r = (((((v_uncomp_temperature_s32
 198:.\bmp280.c    **** 			>> BMP280_SHIFT_BIT_POSITION_BY_04_BITS)
 199:.\bmp280.c    **** 			- ((s32)p_bmp280->calib_param.dig_T1))
 200:.\bmp280.c    **** 			* ((v_uncomp_temperature_s32
 201:.\bmp280.c    **** 			>> BMP280_SHIFT_BIT_POSITION_BY_04_BITS)
 132              		.loc 1 201 0
 133 0016 0011     		asr	r0, r0, #4
 134              	.LVL9:
 202:.\bmp280.c    **** 			- ((s32)p_bmp280->calib_param.dig_T1)))
ARM GAS  C:\Users\Svilen\AppData\Local\Temp\ccFr0ira.s 			page 7


 135              		.loc 1 202 0
 136 0018 431B     		sub	r3, r0, r5
 200:.\bmp280.c    **** 			>> BMP280_SHIFT_BIT_POSITION_BY_04_BITS)
 137              		.loc 1 200 0
 138 001a 5B43     		mul	r3, r3
 203:.\bmp280.c    **** 			>> BMP280_SHIFT_BIT_POSITION_BY_12_BITS)
 139              		.loc 1 203 0
 140 001c 1B13     		asr	r3, r3, #12
 204:.\bmp280.c    **** 			* ((s32)p_bmp280->calib_param.dig_T3))
 141              		.loc 1 204 0
 142 001e 0420     		mov	r0, #4
 143 0020 225E     		ldrsh	r2, [r4, r0]
 144 0022 5343     		mul	r3, r2
 197:.\bmp280.c    **** 			>> BMP280_SHIFT_BIT_POSITION_BY_04_BITS)
 145              		.loc 1 197 0
 146 0024 9B13     		asr	r3, r3, #14
 147              	.LVL10:
 205:.\bmp280.c    **** 			>> BMP280_SHIFT_BIT_POSITION_BY_14_BITS;
 206:.\bmp280.c    **** 	/*calculate t_fine*/
 207:.\bmp280.c    **** 	p_bmp280->calib_param.t_fine = v_x1_u32r + v_x2_u32r;
 148              		.loc 1 207 0
 149 0026 CB18     		add	r3, r1, r3
 150              	.LVL11:
 151 0028 A361     		str	r3, [r4, #24]
 208:.\bmp280.c    **** 	/*calculate temperature*/
 209:.\bmp280.c    **** 	temperature = (p_bmp280->calib_param.t_fine * 5 + 128)
 152              		.loc 1 209 0
 153 002a 9800     		lsl	r0, r3, #2
 154 002c C018     		add	r0, r0, r3
 155 002e 8030     		add	r0, r0, #128
 156 0030 0012     		asr	r0, r0, #8
 157              	.LVL12:
 210:.\bmp280.c    **** 			>> BMP280_SHIFT_BIT_POSITION_BY_08_BITS;
 211:.\bmp280.c    **** 
 212:.\bmp280.c    **** 	return temperature;
 213:.\bmp280.c    **** }
 158              		.loc 1 213 0
 159              		@ sp needed
 160              	.LVL13:
 161 0032 30BD     		pop	{r4, r5, pc}
 162              	.L8:
 163              		.align	2
 164              	.L7:
 165 0034 00000000 		.word	.LANCHOR0
 166              		.cfi_endproc
 167              	.LFE2:
 168              		.size	bmp280_compensate_temperature_int32, .-bmp280_compensate_temperature_int32
 169              		.section	.text.bmp280_read_uncomp_pressure,"ax",%progbits
 170              		.align	2
 171              		.global	bmp280_read_uncomp_pressure
 172              		.code	16
 173              		.thumb_func
 174              		.type	bmp280_read_uncomp_pressure, %function
 175              	bmp280_read_uncomp_pressure:
 176              	.LFB3:
 214:.\bmp280.c    **** /*!
 215:.\bmp280.c    ****  *	@brief This API is used to read uncompensated pressure.
ARM GAS  C:\Users\Svilen\AppData\Local\Temp\ccFr0ira.s 			page 8


 216:.\bmp280.c    ****  *	in the registers 0xF7, 0xF8 and 0xF9
 217:.\bmp280.c    ****  *	@note 0xF7 -> MSB -> bit from 0 to 7
 218:.\bmp280.c    ****  *	@note 0xF8 -> LSB -> bit from 0 to 7
 219:.\bmp280.c    ****  *	@note 0xF9 -> LSB -> bit from 4 to 7
 220:.\bmp280.c    ****  *
 221:.\bmp280.c    ****  *
 222:.\bmp280.c    ****  *
 223:.\bmp280.c    ****  *	@param v_uncomp_pressure_s32 : The value of uncompensated pressure
 224:.\bmp280.c    ****  *
 225:.\bmp280.c    ****  *
 226:.\bmp280.c    ****  *
 227:.\bmp280.c    ****  *	@return results of bus communication function
 228:.\bmp280.c    ****  *	@retval 0 -> Success
 229:.\bmp280.c    ****  *	@retval -1 -> Error
 230:.\bmp280.c    ****  *
 231:.\bmp280.c    ****  *
 232:.\bmp280.c    ****  */
 233:.\bmp280.c    **** BMP280_RETURN_FUNCTION_TYPE bmp280_read_uncomp_pressure(
 234:.\bmp280.c    **** 		s32 *v_uncomp_pressure_s32)
 235:.\bmp280.c    **** {
 177              		.loc 1 235 0
 178              		.cfi_startproc
 179              	.LVL14:
 180 0000 70B5     		push	{r4, r5, r6, lr}
 181              		.cfi_def_cfa_offset 16
 182              		.cfi_offset 4, -16
 183              		.cfi_offset 5, -12
 184              		.cfi_offset 6, -8
 185              		.cfi_offset 14, -4
 186 0002 82B0     		sub	sp, sp, #8
 187              		.cfi_def_cfa_offset 24
 188              	.LVL15:
 236:.\bmp280.c    **** 	/* variable used to return communication result*/
 237:.\bmp280.c    **** 	BMP280_RETURN_FUNCTION_TYPE com_rslt = ERROR;
 238:.\bmp280.c    **** 	/* Array holding the MSB and LSb value
 239:.\bmp280.c    **** 	 a_data_u8[0] - Pressure MSB
 240:.\bmp280.c    **** 	 a_data_u8[1] - Pressure LSB
 241:.\bmp280.c    **** 	 a_data_u8[2] - Pressure LSB
 242:.\bmp280.c    **** 	 */
 243:.\bmp280.c    **** 	u8 a_data_u8[BMP280_PRESSURE_DATA_SIZE] = {BMP280_INIT_VALUE,
 189              		.loc 1 243 0
 190 0004 01AB     		add	r3, sp, #4
 191 0006 0022     		mov	r2, #0
 192 0008 1A70     		strb	r2, [r3]
 193 000a 5A70     		strb	r2, [r3, #1]
 194 000c 9A70     		strb	r2, [r3, #2]
 244:.\bmp280.c    **** 			BMP280_INIT_VALUE, BMP280_INIT_VALUE};
 245:.\bmp280.c    **** 	/* check the p_bmp280 structure pointer as NULL*/
 246:.\bmp280.c    **** 	if (p_bmp280 == BMP280_NULL) {
 195              		.loc 1 246 0
 196 000e 0D4B     		ldr	r3, .L12
 197 0010 1B68     		ldr	r3, [r3]
 198 0012 002B     		cmp	r3, #0
 199 0014 11D0     		beq	.L11
 200 0016 051C     		mov	r5, r0
 247:.\bmp280.c    **** 		com_rslt = E_BMP280_NULL_PTR;
 248:.\bmp280.c    **** 	} else {
ARM GAS  C:\Users\Svilen\AppData\Local\Temp\ccFr0ira.s 			page 9


 249:.\bmp280.c    **** 		com_rslt = p_bmp280->BMP280_BUS_READ_FUNC(p_bmp280->dev_addr,
 201              		.loc 1 249 0
 202 0018 5E6A     		ldr	r6, [r3, #36]
 203 001a 587F     		ldrb	r0, [r3, #29]
 204              	.LVL16:
 205 001c 01AC     		add	r4, sp, #4
 206 001e F721     		mov	r1, #247
 207 0020 221C     		mov	r2, r4
 208 0022 0323     		mov	r3, #3
 209 0024 B047     		blx	r6
 210              	.LVL17:
 250:.\bmp280.c    **** 				BMP280_PRESSURE_MSB_REG, a_data_u8,
 251:.\bmp280.c    **** 				BMP280_PRESSURE_DATA_LENGTH);
 252:.\bmp280.c    **** 		*v_uncomp_pressure_s32 = (s32)((((u32)(
 253:.\bmp280.c    **** 				a_data_u8[BMP280_PRESSURE_MSB_DATA]))
 211              		.loc 1 253 0
 212 0026 2378     		ldrb	r3, [r4]
 254:.\bmp280.c    **** 				<< BMP280_SHIFT_BIT_POSITION_BY_12_BITS)
 213              		.loc 1 254 0
 214 0028 1A03     		lsl	r2, r3, #12
 255:.\bmp280.c    **** 				| (((u32)(a_data_u8[BMP280_PRESSURE_LSB_DATA]))
 215              		.loc 1 255 0
 216 002a 6378     		ldrb	r3, [r4, #1]
 256:.\bmp280.c    **** 				<< BMP280_SHIFT_BIT_POSITION_BY_04_BITS)
 217              		.loc 1 256 0
 218 002c 1B01     		lsl	r3, r3, #4
 255:.\bmp280.c    **** 				| (((u32)(a_data_u8[BMP280_PRESSURE_LSB_DATA]))
 219              		.loc 1 255 0
 220 002e 1343     		orr	r3, r2
 257:.\bmp280.c    **** 				| ((u32)a_data_u8[BMP280_PRESSURE_XLSB_DATA]
 221              		.loc 1 257 0
 222 0030 A278     		ldrb	r2, [r4, #2]
 258:.\bmp280.c    **** 				>> BMP280_SHIFT_BIT_POSITION_BY_04_BITS));
 223              		.loc 1 258 0
 224 0032 1209     		lsr	r2, r2, #4
 257:.\bmp280.c    **** 				| ((u32)a_data_u8[BMP280_PRESSURE_XLSB_DATA]
 225              		.loc 1 257 0
 226 0034 1343     		orr	r3, r2
 252:.\bmp280.c    **** 				a_data_u8[BMP280_PRESSURE_MSB_DATA]))
 227              		.loc 1 252 0
 228 0036 2B60     		str	r3, [r5]
 229 0038 00E0     		b	.L10
 230              	.LVL18:
 231              	.L11:
 247:.\bmp280.c    **** 	} else {
 232              		.loc 1 247 0
 233 003a 8120     		mov	r0, #129
 234              	.LVL19:
 235              	.L10:
 259:.\bmp280.c    **** 	}
 260:.\bmp280.c    **** 	return com_rslt;
 236              		.loc 1 260 0
 237 003c 40B2     		sxtb	r0, r0
 261:.\bmp280.c    **** }
 238              		.loc 1 261 0
 239 003e 02B0     		add	sp, sp, #8
 240              		@ sp needed
ARM GAS  C:\Users\Svilen\AppData\Local\Temp\ccFr0ira.s 			page 10


 241 0040 70BD     		pop	{r4, r5, r6, pc}
 242              	.L13:
 243 0042 C046     		.align	2
 244              	.L12:
 245 0044 00000000 		.word	.LANCHOR0
 246              		.cfi_endproc
 247              	.LFE3:
 248              		.size	bmp280_read_uncomp_pressure, .-bmp280_read_uncomp_pressure
 249              		.global	__aeabi_uidiv
 250              		.section	.text.bmp280_compensate_pressure_int32,"ax",%progbits
 251              		.align	2
 252              		.global	bmp280_compensate_pressure_int32
 253              		.code	16
 254              		.thumb_func
 255              		.type	bmp280_compensate_pressure_int32, %function
 256              	bmp280_compensate_pressure_int32:
 257              	.LFB4:
 262:.\bmp280.c    **** /*!
 263:.\bmp280.c    ****  *	@brief Reads actual pressure from uncompensated pressure
 264:.\bmp280.c    ****  *	and returns the value in Pascal(Pa)
 265:.\bmp280.c    ****  *	@note Output value of "96386" equals 96386 Pa =
 266:.\bmp280.c    ****  *	963.86 hPa = 963.86 millibar
 267:.\bmp280.c    ****  *
 268:.\bmp280.c    ****  *
 269:.\bmp280.c    ****  *
 270:.\bmp280.c    ****  *
 271:.\bmp280.c    ****  *  @param  v_uncomp_pressure_s32: value of uncompensated pressure
 272:.\bmp280.c    ****  *
 273:.\bmp280.c    ****  *
 274:.\bmp280.c    ****  *
 275:.\bmp280.c    ****  *  @return Returns the Actual pressure out put as s32
 276:.\bmp280.c    ****  *
 277:.\bmp280.c    ****  */
 278:.\bmp280.c    **** u32 bmp280_compensate_pressure_int32(s32 v_uncomp_pressure_s32)
 279:.\bmp280.c    **** {
 258              		.loc 1 279 0
 259              		.cfi_startproc
 260              	.LVL20:
 261 0000 70B5     		push	{r4, r5, r6, lr}
 262              		.cfi_def_cfa_offset 16
 263              		.cfi_offset 4, -16
 264              		.cfi_offset 5, -12
 265              		.cfi_offset 6, -8
 266              		.cfi_offset 14, -4
 267              	.LVL21:
 280:.\bmp280.c    **** 	s32 v_x1_u32r = BMP280_INIT_VALUE;
 281:.\bmp280.c    **** 	s32 v_x2_u32r = BMP280_INIT_VALUE;
 282:.\bmp280.c    **** 	u32 v_pressure_u32 = BMP280_INIT_VALUE;
 283:.\bmp280.c    **** 	/* calculate x1*/
 284:.\bmp280.c    **** 	v_x1_u32r = (((s32)p_bmp280->calib_param.t_fine)
 268              		.loc 1 284 0
 269 0002 2A4B     		ldr	r3, .L20
 270 0004 1C68     		ldr	r4, [r3]
 285:.\bmp280.c    **** 			>> BMP280_SHIFT_BIT_POSITION_BY_01_BIT) - (s32)64000;
 271              		.loc 1 285 0
 272 0006 A369     		ldr	r3, [r4, #24]
 273 0008 5B10     		asr	r3, r3, #1
ARM GAS  C:\Users\Svilen\AppData\Local\Temp\ccFr0ira.s 			page 11


 284:.\bmp280.c    **** 			>> BMP280_SHIFT_BIT_POSITION_BY_01_BIT) - (s32)64000;
 274              		.loc 1 284 0
 275 000a 294A     		ldr	r2, .L20+4
 276 000c 9446     		mov	ip, r2
 277 000e 6344     		add	r3, r3, ip
 278              	.LVL22:
 286:.\bmp280.c    **** 	/* calculate x2*/
 287:.\bmp280.c    **** 	v_x2_u32r = (((v_x1_u32r >> BMP280_SHIFT_BIT_POSITION_BY_02_BITS)
 288:.\bmp280.c    **** 			* (v_x1_u32r >> BMP280_SHIFT_BIT_POSITION_BY_02_BITS))
 279              		.loc 1 288 0
 280 0010 9A10     		asr	r2, r3, #2
 281 0012 5243     		mul	r2, r2
 289:.\bmp280.c    **** 			>> BMP280_SHIFT_BIT_POSITION_BY_11_BITS)
 282              		.loc 1 289 0
 283 0014 D512     		asr	r5, r2, #11
 290:.\bmp280.c    **** 			* ((s32)p_bmp280->calib_param.dig_P6);
 284              		.loc 1 290 0
 285 0016 1026     		mov	r6, #16
 286 0018 A15F     		ldrsh	r1, [r4, r6]
 287:.\bmp280.c    **** 			* (v_x1_u32r >> BMP280_SHIFT_BIT_POSITION_BY_02_BITS))
 287              		.loc 1 287 0
 288 001a 6943     		mul	r1, r5
 289 001c 0E1C     		mov	r6, r1
 290              	.LVL23:
 291:.\bmp280.c    **** 	v_x2_u32r = v_x2_u32r + ((v_x1_u32r *
 292:.\bmp280.c    **** 			((s32)p_bmp280->calib_param.dig_P5))
 291              		.loc 1 292 0
 292 001e 0E21     		mov	r1, #14
 293 0020 655E     		ldrsh	r5, [r4, r1]
 294              	.LVL24:
 291:.\bmp280.c    **** 	v_x2_u32r = v_x2_u32r + ((v_x1_u32r *
 295              		.loc 1 291 0
 296 0022 5D43     		mul	r5, r3
 293:.\bmp280.c    **** 			<< BMP280_SHIFT_BIT_POSITION_BY_01_BIT);
 297              		.loc 1 293 0
 298 0024 6D00     		lsl	r5, r5, #1
 291:.\bmp280.c    **** 	v_x2_u32r = v_x2_u32r + ((v_x1_u32r *
 299              		.loc 1 291 0
 300 0026 AD19     		add	r5, r5, r6
 301              	.LVL25:
 294:.\bmp280.c    **** 	v_x2_u32r = (v_x2_u32r >> BMP280_SHIFT_BIT_POSITION_BY_02_BITS)
 302              		.loc 1 294 0
 303 0028 A910     		asr	r1, r5, #2
 295:.\bmp280.c    **** 			+ (((s32)p_bmp280->calib_param.dig_P4)
 304              		.loc 1 295 0
 305 002a 0C26     		mov	r6, #12
 306 002c A55F     		ldrsh	r5, [r4, r6]
 307              	.LVL26:
 296:.\bmp280.c    **** 			<< BMP280_SHIFT_BIT_POSITION_BY_16_BITS);
 308              		.loc 1 296 0
 309 002e 2D04     		lsl	r5, r5, #16
 294:.\bmp280.c    **** 	v_x2_u32r = (v_x2_u32r >> BMP280_SHIFT_BIT_POSITION_BY_02_BITS)
 310              		.loc 1 294 0
 311 0030 4D19     		add	r5, r1, r5
 312              	.LVL27:
 297:.\bmp280.c    **** 	/* calculate x1*/
 298:.\bmp280.c    **** 	v_x1_u32r = (((p_bmp280->calib_param.dig_P3
ARM GAS  C:\Users\Svilen\AppData\Local\Temp\ccFr0ira.s 			page 12


 299:.\bmp280.c    **** 			* (((v_x1_u32r
 300:.\bmp280.c    **** 			>> BMP280_SHIFT_BIT_POSITION_BY_02_BITS) * (v_x1_u32r
 301:.\bmp280.c    **** 			>> BMP280_SHIFT_BIT_POSITION_BY_02_BITS))
 302:.\bmp280.c    **** 			>> BMP280_SHIFT_BIT_POSITION_BY_13_BITS))
 313              		.loc 1 302 0
 314 0032 5213     		asr	r2, r2, #13
 299:.\bmp280.c    **** 			>> BMP280_SHIFT_BIT_POSITION_BY_02_BITS) * (v_x1_u32r
 315              		.loc 1 299 0
 316 0034 0A26     		mov	r6, #10
 317 0036 A15F     		ldrsh	r1, [r4, r6]
 318 0038 4A43     		mul	r2, r1
 303:.\bmp280.c    **** 			>> BMP280_SHIFT_BIT_POSITION_BY_03_BITS)
 319              		.loc 1 303 0
 320 003a D210     		asr	r2, r2, #3
 304:.\bmp280.c    **** 			+ ((((s32)p_bmp280->calib_param.dig_P2)
 321              		.loc 1 304 0
 322 003c 0826     		mov	r6, #8
 323 003e A15F     		ldrsh	r1, [r4, r6]
 305:.\bmp280.c    **** 			* v_x1_u32r)
 324              		.loc 1 305 0
 325 0040 4B43     		mul	r3, r1
 326              	.LVL28:
 306:.\bmp280.c    **** 			>> BMP280_SHIFT_BIT_POSITION_BY_01_BIT))
 327              		.loc 1 306 0
 328 0042 5B10     		asr	r3, r3, #1
 304:.\bmp280.c    **** 			+ ((((s32)p_bmp280->calib_param.dig_P2)
 329              		.loc 1 304 0
 330 0044 D318     		add	r3, r2, r3
 298:.\bmp280.c    **** 			* (((v_x1_u32r
 331              		.loc 1 298 0
 332 0046 9B14     		asr	r3, r3, #18
 333              	.LVL29:
 307:.\bmp280.c    **** 			>> BMP280_SHIFT_BIT_POSITION_BY_18_BITS;
 308:.\bmp280.c    **** 	v_x1_u32r = ((((32768 + v_x1_u32r))
 334              		.loc 1 308 0
 335 0048 8022     		mov	r2, #128
 336 004a 1202     		lsl	r2, r2, #8
 337 004c 9446     		mov	ip, r2
 338 004e 6344     		add	r3, r3, ip
 339              	.LVL30:
 309:.\bmp280.c    **** 			* ((s32)p_bmp280->calib_param.dig_P1))
 340              		.loc 1 309 0
 341 0050 E188     		ldrh	r1, [r4, #6]
 342 0052 5943     		mul	r1, r3
 308:.\bmp280.c    **** 			* ((s32)p_bmp280->calib_param.dig_P1))
 343              		.loc 1 308 0
 344 0054 C913     		asr	r1, r1, #15
 345              	.LVL31:
 310:.\bmp280.c    **** 			>> BMP280_SHIFT_BIT_POSITION_BY_15_BITS);
 311:.\bmp280.c    **** 	/* calculate pressure*/
 312:.\bmp280.c    **** 	v_pressure_u32 = (((u32)(((s32)1048576) - v_uncomp_pressure_s32)
 313:.\bmp280.c    **** 			- (v_x2_u32r >> BMP280_SHIFT_BIT_POSITION_BY_12_BITS)))
 346              		.loc 1 313 0
 347 0056 2D13     		asr	r5, r5, #12
 348              	.LVL32:
 349 0058 4042     		neg	r0, r0
 350              	.LVL33:
ARM GAS  C:\Users\Svilen\AppData\Local\Temp\ccFr0ira.s 			page 13


 351 005a 401B     		sub	r0, r0, r5
 352              	.LVL34:
 314:.\bmp280.c    **** 			* 3125;
 353              		.loc 1 314 0
 354 005c 154A     		ldr	r2, .L20+8
 355 005e 5043     		mul	r0, r2
 356              	.LVL35:
 315:.\bmp280.c    **** 	/* check overflow*/
 316:.\bmp280.c    **** 	if (v_pressure_u32 < 0x80000000)
 357              		.loc 1 316 0
 358 0060 154B     		ldr	r3, .L20+12
 359 0062 C018     		add	r0, r0, r3
 360 0064 05D4     		bmi	.L15
 361              	.LVL36:
 317:.\bmp280.c    **** 		/* Avoid exception caused by division by zero */
 318:.\bmp280.c    **** 		if (v_x1_u32r != BMP280_INIT_VALUE)
 362              		.loc 1 318 0
 363 0066 0029     		cmp	r1, #0
 364 0068 1BD0     		beq	.L18
 319:.\bmp280.c    **** 			v_pressure_u32 = (v_pressure_u32
 320:.\bmp280.c    **** 					<< BMP280_SHIFT_BIT_POSITION_BY_01_BIT)
 365              		.loc 1 320 0
 366 006a 4000     		lsl	r0, r0, #1
 367              	.LVL37:
 319:.\bmp280.c    **** 			v_pressure_u32 = (v_pressure_u32
 368              		.loc 1 319 0
 369 006c FFF7FEFF 		bl	__aeabi_uidiv
 370              	.LVL38:
 371 0070 04E0     		b	.L17
 372              	.LVL39:
 373              	.L15:
 321:.\bmp280.c    **** 					/ ((u32)v_x1_u32r);
 322:.\bmp280.c    **** 		else
 323:.\bmp280.c    **** 			return BMP280_INVALID_DATA;
 324:.\bmp280.c    **** 	else
 325:.\bmp280.c    **** 	/* Avoid exception caused by division by zero */
 326:.\bmp280.c    **** 	if (v_x1_u32r != BMP280_INIT_VALUE)
 374              		.loc 1 326 0
 375 0072 0029     		cmp	r1, #0
 376 0074 17D0     		beq	.L19
 327:.\bmp280.c    **** 		v_pressure_u32 = (v_pressure_u32 / (u32)v_x1_u32r) * 2;
 377              		.loc 1 327 0
 378 0076 FFF7FEFF 		bl	__aeabi_uidiv
 379              	.LVL40:
 380 007a 4000     		lsl	r0, r0, #1
 381              	.LVL41:
 382              	.L17:
 328:.\bmp280.c    **** 	else
 329:.\bmp280.c    **** 		return BMP280_INVALID_DATA;
 330:.\bmp280.c    **** 	/* calculate x1*/
 331:.\bmp280.c    **** 	v_x1_u32r = (((s32)p_bmp280->calib_param.dig_P9) * ((s32)(
 383              		.loc 1 331 0
 384 007c 1623     		mov	r3, #22
 385 007e E25E     		ldrsh	r2, [r4, r3]
 332:.\bmp280.c    **** 			((v_pressure_u32
 333:.\bmp280.c    **** 			>> BMP280_SHIFT_BIT_POSITION_BY_03_BITS)
 334:.\bmp280.c    **** 			* (v_pressure_u32
ARM GAS  C:\Users\Svilen\AppData\Local\Temp\ccFr0ira.s 			page 14


 335:.\bmp280.c    **** 			>> BMP280_SHIFT_BIT_POSITION_BY_03_BITS))
 386              		.loc 1 335 0
 387 0080 C308     		lsr	r3, r0, #3
 334:.\bmp280.c    **** 			>> BMP280_SHIFT_BIT_POSITION_BY_03_BITS))
 388              		.loc 1 334 0
 389 0082 5B43     		mul	r3, r3
 336:.\bmp280.c    **** 			>> BMP280_SHIFT_BIT_POSITION_BY_13_BITS)))
 390              		.loc 1 336 0
 391 0084 5B0B     		lsr	r3, r3, #13
 331:.\bmp280.c    **** 			((v_pressure_u32
 392              		.loc 1 331 0
 393 0086 5343     		mul	r3, r2
 394 0088 1B13     		asr	r3, r3, #12
 395              	.LVL42:
 337:.\bmp280.c    **** 			>> BMP280_SHIFT_BIT_POSITION_BY_12_BITS;
 338:.\bmp280.c    **** 	/* calculate x2*/
 339:.\bmp280.c    **** 	v_x2_u32r = (((s32)(v_pressure_u32 >>
 396              		.loc 1 339 0
 397 008a 8108     		lsr	r1, r0, #2
 340:.\bmp280.c    **** 			BMP280_SHIFT_BIT_POSITION_BY_02_BITS))
 341:.\bmp280.c    **** 			* ((s32)p_bmp280->calib_param.dig_P8))
 398              		.loc 1 341 0
 399 008c 1425     		mov	r5, #20
 400 008e 625F     		ldrsh	r2, [r4, r5]
 401 0090 4A43     		mul	r2, r1
 339:.\bmp280.c    **** 			BMP280_SHIFT_BIT_POSITION_BY_02_BITS))
 402              		.loc 1 339 0
 403 0092 5213     		asr	r2, r2, #13
 404              	.LVL43:
 342:.\bmp280.c    **** 			>> BMP280_SHIFT_BIT_POSITION_BY_13_BITS;
 343:.\bmp280.c    **** 	/* calculate true pressure*/
 344:.\bmp280.c    **** 	v_pressure_u32 = (u32)((s32)v_pressure_u32 + ((v_x1_u32r + v_x2_u32r
 405              		.loc 1 344 0
 406 0094 9B18     		add	r3, r3, r2
 407              	.LVL44:
 345:.\bmp280.c    **** 			+ p_bmp280->calib_param.dig_P7)
 408              		.loc 1 345 0
 409 0096 1221     		mov	r1, #18
 410 0098 625E     		ldrsh	r2, [r4, r1]
 411              	.LVL45:
 412 009a 9B18     		add	r3, r3, r2
 346:.\bmp280.c    **** 			>> BMP280_SHIFT_BIT_POSITION_BY_04_BITS));
 413              		.loc 1 346 0
 414 009c 1B11     		asr	r3, r3, #4
 415              	.LVL46:
 347:.\bmp280.c    **** 
 348:.\bmp280.c    **** 	return v_pressure_u32;
 416              		.loc 1 348 0
 417 009e 1818     		add	r0, r3, r0
 418              	.LVL47:
 419 00a0 02E0     		b	.L16
 420              	.LVL48:
 421              	.L18:
 323:.\bmp280.c    **** 	else
 422              		.loc 1 323 0
 423 00a2 0020     		mov	r0, #0
 424              	.LVL49:
ARM GAS  C:\Users\Svilen\AppData\Local\Temp\ccFr0ira.s 			page 15


 425 00a4 00E0     		b	.L16
 426              	.LVL50:
 427              	.L19:
 329:.\bmp280.c    **** 	/* calculate x1*/
 428              		.loc 1 329 0
 429 00a6 0020     		mov	r0, #0
 430              	.LVL51:
 431              	.L16:
 349:.\bmp280.c    **** }
 432              		.loc 1 349 0
 433              		@ sp needed
 434 00a8 70BD     		pop	{r4, r5, r6, pc}
 435              	.L21:
 436 00aa C046     		.align	2
 437              	.L20:
 438 00ac 00000000 		.word	.LANCHOR0
 439 00b0 0006FFFF 		.word	-64000
 440 00b4 350C0000 		.word	3125
 441 00b8 000050C3 		.word	-1018167296
 442              		.cfi_endproc
 443              	.LFE4:
 444              		.size	bmp280_compensate_pressure_int32, .-bmp280_compensate_pressure_int32
 445              		.section	.text.bmp280_read_uncomp_pressure_temperature,"ax",%progbits
 446              		.align	2
 447              		.global	bmp280_read_uncomp_pressure_temperature
 448              		.code	16
 449              		.thumb_func
 450              		.type	bmp280_read_uncomp_pressure_temperature, %function
 451              	bmp280_read_uncomp_pressure_temperature:
 452              	.LFB5:
 350:.\bmp280.c    **** /*!
 351:.\bmp280.c    ****  * @brief reads uncompensated pressure and temperature
 352:.\bmp280.c    ****  *
 353:.\bmp280.c    ****  *
 354:.\bmp280.c    ****  * @param  v_uncomp_pressure_s32: The value of uncompensated pressure.
 355:.\bmp280.c    ****  * @param  v_uncomp_temperature_s32: The value of uncompensated temperature.
 356:.\bmp280.c    ****  *
 357:.\bmp280.c    ****  *  @return results of bus communication function
 358:.\bmp280.c    ****  *	@retval 0 -> Success
 359:.\bmp280.c    ****  *	@retval -1 -> Error
 360:.\bmp280.c    ****  *
 361:.\bmp280.c    ****  */
 362:.\bmp280.c    **** BMP280_RETURN_FUNCTION_TYPE bmp280_read_uncomp_pressure_temperature(
 363:.\bmp280.c    **** 		s32 *v_uncomp_pressure_s32, s32 *v_uncomp_temperature_s32)
 364:.\bmp280.c    **** {
 453              		.loc 1 364 0
 454              		.cfi_startproc
 455              	.LVL52:
 456 0000 70B5     		push	{r4, r5, r6, lr}
 457              		.cfi_def_cfa_offset 16
 458              		.cfi_offset 4, -16
 459              		.cfi_offset 5, -12
 460              		.cfi_offset 6, -8
 461              		.cfi_offset 14, -4
 462 0002 82B0     		sub	sp, sp, #8
 463              		.cfi_def_cfa_offset 24
 464              	.LVL53:
ARM GAS  C:\Users\Svilen\AppData\Local\Temp\ccFr0ira.s 			page 16


 365:.\bmp280.c    **** 	/* variable used to return communication result*/
 366:.\bmp280.c    **** 	BMP280_RETURN_FUNCTION_TYPE com_rslt = ERROR;
 367:.\bmp280.c    **** 	/* Array holding the temperature and pressure data
 368:.\bmp280.c    **** 	 a_data_u8[0] - Pressure MSB
 369:.\bmp280.c    **** 	 a_data_u8[1] - Pressure LSB
 370:.\bmp280.c    **** 	 a_data_u8[2] - Pressure LSB
 371:.\bmp280.c    **** 	 a_data_u8[3] - Temperature MSB
 372:.\bmp280.c    **** 	 a_data_u8[4] - Temperature LSB
 373:.\bmp280.c    **** 	 a_data_u8[5] - Temperature LSB
 374:.\bmp280.c    **** 	 */
 375:.\bmp280.c    **** 	u8 a_data_u8[BMP280_ALL_DATA_FRAME_LENGTH] = {BMP280_INIT_VALUE,
 465              		.loc 1 375 0
 466 0004 0023     		mov	r3, #0
 467 0006 6A46     		mov	r2, sp
 468 0008 1370     		strb	r3, [r2]
 469 000a 5370     		strb	r3, [r2, #1]
 470 000c 9370     		strb	r3, [r2, #2]
 471 000e D370     		strb	r3, [r2, #3]
 472 0010 1371     		strb	r3, [r2, #4]
 473 0012 5371     		strb	r3, [r2, #5]
 376:.\bmp280.c    **** 			BMP280_INIT_VALUE, BMP280_INIT_VALUE, BMP280_INIT_VALUE,
 377:.\bmp280.c    **** 			BMP280_INIT_VALUE, BMP280_INIT_VALUE};
 378:.\bmp280.c    **** 	/* check the p_bmp280 structure pointer as NULL*/
 379:.\bmp280.c    **** 	if (p_bmp280 == BMP280_NULL) {
 474              		.loc 1 379 0
 475 0014 134B     		ldr	r3, .L25
 476 0016 1B68     		ldr	r3, [r3]
 477 0018 002B     		cmp	r3, #0
 478 001a 1FD0     		beq	.L24
 479 001c 0C1C     		mov	r4, r1
 480 001e 051C     		mov	r5, r0
 380:.\bmp280.c    **** 		com_rslt = E_BMP280_NULL_PTR;
 381:.\bmp280.c    **** 	} else {
 382:.\bmp280.c    **** 		com_rslt = p_bmp280->BMP280_BUS_READ_FUNC(p_bmp280->dev_addr,
 481              		.loc 1 382 0
 482 0020 5E6A     		ldr	r6, [r3, #36]
 483 0022 587F     		ldrb	r0, [r3, #29]
 484              	.LVL54:
 485 0024 F721     		mov	r1, #247
 486              	.LVL55:
 487 0026 0623     		mov	r3, #6
 488 0028 B047     		blx	r6
 489              	.LVL56:
 383:.\bmp280.c    **** 				BMP280_PRESSURE_MSB_REG, a_data_u8,
 384:.\bmp280.c    **** 				BMP280_DATA_FRAME_SIZE);
 385:.\bmp280.c    **** 		/*Pressure*/
 386:.\bmp280.c    **** 		*v_uncomp_pressure_s32 = (s32)((((u32)(
 387:.\bmp280.c    **** 				a_data_u8[BMP280_DATA_FRAME_PRESSURE_MSB_BYTE]))
 490              		.loc 1 387 0
 491 002a 6B46     		mov	r3, sp
 492 002c 1B78     		ldrb	r3, [r3]
 388:.\bmp280.c    **** 				<< BMP280_SHIFT_BIT_POSITION_BY_12_BITS)
 493              		.loc 1 388 0
 494 002e 1A03     		lsl	r2, r3, #12
 389:.\bmp280.c    **** 				| (((u32)(
 390:.\bmp280.c    **** 				a_data_u8[BMP280_DATA_FRAME_PRESSURE_LSB_BYTE]))
 495              		.loc 1 390 0
ARM GAS  C:\Users\Svilen\AppData\Local\Temp\ccFr0ira.s 			page 17


 496 0030 6B46     		mov	r3, sp
 497 0032 5B78     		ldrb	r3, [r3, #1]
 391:.\bmp280.c    **** 				<< BMP280_SHIFT_BIT_POSITION_BY_04_BITS)
 498              		.loc 1 391 0
 499 0034 1B01     		lsl	r3, r3, #4
 389:.\bmp280.c    **** 				| (((u32)(
 500              		.loc 1 389 0
 501 0036 1343     		orr	r3, r2
 392:.\bmp280.c    **** 				| ((u32)a_data_u8[
 502              		.loc 1 392 0
 503 0038 6A46     		mov	r2, sp
 504 003a 9278     		ldrb	r2, [r2, #2]
 393:.\bmp280.c    **** 				BMP280_DATA_FRAME_PRESSURE_XLSB_BYTE]
 394:.\bmp280.c    **** 				>> BMP280_SHIFT_BIT_POSITION_BY_04_BITS));
 505              		.loc 1 394 0
 506 003c 1209     		lsr	r2, r2, #4
 392:.\bmp280.c    **** 				| ((u32)a_data_u8[
 507              		.loc 1 392 0
 508 003e 1343     		orr	r3, r2
 386:.\bmp280.c    **** 				a_data_u8[BMP280_DATA_FRAME_PRESSURE_MSB_BYTE]))
 509              		.loc 1 386 0
 510 0040 2B60     		str	r3, [r5]
 395:.\bmp280.c    **** 
 396:.\bmp280.c    **** 		/* Temperature */
 397:.\bmp280.c    **** 		*v_uncomp_temperature_s32 = (s32)((((u32)(a_data_u8[
 511              		.loc 1 397 0
 512 0042 6B46     		mov	r3, sp
 513 0044 DB78     		ldrb	r3, [r3, #3]
 398:.\bmp280.c    **** 				BMP280_DATA_FRAME_TEMPERATURE_MSB_BYTE]))
 399:.\bmp280.c    **** 				<< BMP280_SHIFT_BIT_POSITION_BY_12_BITS)
 514              		.loc 1 399 0
 515 0046 1A03     		lsl	r2, r3, #12
 400:.\bmp280.c    **** 				| (((u32)(a_data_u8[
 516              		.loc 1 400 0
 517 0048 6B46     		mov	r3, sp
 518 004a 1B79     		ldrb	r3, [r3, #4]
 401:.\bmp280.c    **** 				BMP280_DATA_FRAME_TEMPERATURE_LSB_BYTE]))
 402:.\bmp280.c    **** 				<< BMP280_SHIFT_BIT_POSITION_BY_04_BITS)
 519              		.loc 1 402 0
 520 004c 1B01     		lsl	r3, r3, #4
 400:.\bmp280.c    **** 				| (((u32)(a_data_u8[
 521              		.loc 1 400 0
 522 004e 1343     		orr	r3, r2
 403:.\bmp280.c    **** 				| ((u32)a_data_u8[
 523              		.loc 1 403 0
 524 0050 6A46     		mov	r2, sp
 525 0052 5279     		ldrb	r2, [r2, #5]
 404:.\bmp280.c    **** 				BMP280_DATA_FRAME_TEMPERATURE_XLSB_BYTE]
 405:.\bmp280.c    **** 				>> BMP280_SHIFT_BIT_POSITION_BY_04_BITS));
 526              		.loc 1 405 0
 527 0054 1209     		lsr	r2, r2, #4
 403:.\bmp280.c    **** 				| ((u32)a_data_u8[
 528              		.loc 1 403 0
 529 0056 1343     		orr	r3, r2
 397:.\bmp280.c    **** 				BMP280_DATA_FRAME_TEMPERATURE_MSB_BYTE]))
 530              		.loc 1 397 0
 531 0058 2360     		str	r3, [r4]
ARM GAS  C:\Users\Svilen\AppData\Local\Temp\ccFr0ira.s 			page 18


 532 005a 00E0     		b	.L23
 533              	.LVL57:
 534              	.L24:
 380:.\bmp280.c    **** 	} else {
 535              		.loc 1 380 0
 536 005c 8120     		mov	r0, #129
 537              	.LVL58:
 538              	.L23:
 406:.\bmp280.c    **** 	}
 407:.\bmp280.c    **** 	return com_rslt;
 539              		.loc 1 407 0
 540 005e 40B2     		sxtb	r0, r0
 408:.\bmp280.c    **** }
 541              		.loc 1 408 0
 542 0060 02B0     		add	sp, sp, #8
 543              		@ sp needed
 544 0062 70BD     		pop	{r4, r5, r6, pc}
 545              	.L26:
 546              		.align	2
 547              	.L25:
 548 0064 00000000 		.word	.LANCHOR0
 549              		.cfi_endproc
 550              	.LFE5:
 551              		.size	bmp280_read_uncomp_pressure_temperature, .-bmp280_read_uncomp_pressure_temperature
 552              		.section	.text.bmp280_read_pressure_temperature,"ax",%progbits
 553              		.align	2
 554              		.global	bmp280_read_pressure_temperature
 555              		.code	16
 556              		.thumb_func
 557              		.type	bmp280_read_pressure_temperature, %function
 558              	bmp280_read_pressure_temperature:
 559              	.LFB6:
 409:.\bmp280.c    **** /*!
 410:.\bmp280.c    ****  * @brief This API reads the true pressure and temperature
 411:.\bmp280.c    ****  *
 412:.\bmp280.c    ****  *
 413:.\bmp280.c    ****  *  @param  v_pressure_u32 : The value of compensated pressure.
 414:.\bmp280.c    ****  *  @param  v_temperature_s32 : The value of compensated temperature.
 415:.\bmp280.c    ****  *
 416:.\bmp280.c    ****  *
 417:.\bmp280.c    ****  *  @return results of bus communication function
 418:.\bmp280.c    ****  *	@retval 0 -> Success
 419:.\bmp280.c    ****  *	@retval -1 -> Error
 420:.\bmp280.c    ****  *
 421:.\bmp280.c    ****  *
 422:.\bmp280.c    ****  */
 423:.\bmp280.c    **** BMP280_RETURN_FUNCTION_TYPE bmp280_read_pressure_temperature(
 424:.\bmp280.c    **** 		u32 *v_pressure_u32, s32 *v_temperature_s32)
 425:.\bmp280.c    **** {
 560              		.loc 1 425 0
 561              		.cfi_startproc
 562              	.LVL59:
 563 0000 70B5     		push	{r4, r5, r6, lr}
 564              		.cfi_def_cfa_offset 16
 565              		.cfi_offset 4, -16
 566              		.cfi_offset 5, -12
 567              		.cfi_offset 6, -8
ARM GAS  C:\Users\Svilen\AppData\Local\Temp\ccFr0ira.s 			page 19


 568              		.cfi_offset 14, -4
 569 0002 82B0     		sub	sp, sp, #8
 570              		.cfi_def_cfa_offset 24
 571              	.LVL60:
 426:.\bmp280.c    **** 	/* variable used to return communication result*/
 427:.\bmp280.c    **** 	BMP280_RETURN_FUNCTION_TYPE com_rslt = ERROR;
 428:.\bmp280.c    **** 	s32 v_uncomp_pressure_s32 = BMP280_INIT_VALUE;
 572              		.loc 1 428 0
 573 0004 0023     		mov	r3, #0
 574 0006 0193     		str	r3, [sp, #4]
 429:.\bmp280.c    **** 	s32 v_uncomp_temperature_s32 = BMP280_INIT_VALUE;
 575              		.loc 1 429 0
 576 0008 0093     		str	r3, [sp]
 430:.\bmp280.c    **** 	/* check the p_bmp280 structure pointer as NULL*/
 431:.\bmp280.c    **** 	if (p_bmp280 == BMP280_NULL) {
 577              		.loc 1 431 0
 578 000a 0C4B     		ldr	r3, .L30
 579 000c 1B68     		ldr	r3, [r3]
 580 000e 002B     		cmp	r3, #0
 581 0010 0FD0     		beq	.L29
 582 0012 0E1C     		mov	r6, r1
 583 0014 051C     		mov	r5, r0
 432:.\bmp280.c    **** 		com_rslt = E_BMP280_NULL_PTR;
 433:.\bmp280.c    **** 	} else {
 434:.\bmp280.c    **** 		/* read uncompensated pressure and temperature*/
 435:.\bmp280.c    **** 		com_rslt = bmp280_read_uncomp_pressure_temperature(
 584              		.loc 1 435 0
 585 0016 01A8     		add	r0, sp, #4
 586              	.LVL61:
 587 0018 6946     		mov	r1, sp
 588              	.LVL62:
 589 001a FFF7FEFF 		bl	bmp280_read_uncomp_pressure_temperature
 590              	.LVL63:
 591 001e 041C     		mov	r4, r0
 592              	.LVL64:
 436:.\bmp280.c    **** 				&v_uncomp_pressure_s32,
 437:.\bmp280.c    **** 				&v_uncomp_temperature_s32);
 438:.\bmp280.c    **** 		/* read true pressure and temperature*/
 439:.\bmp280.c    **** 		*v_temperature_s32 = bmp280_compensate_temperature_int32(
 593              		.loc 1 439 0
 594 0020 0098     		ldr	r0, [sp]
 595              	.LVL65:
 596 0022 FFF7FEFF 		bl	bmp280_compensate_temperature_int32
 597              	.LVL66:
 598 0026 3060     		str	r0, [r6]
 440:.\bmp280.c    **** 				v_uncomp_temperature_s32);
 441:.\bmp280.c    **** 		*v_pressure_u32 = bmp280_compensate_pressure_int32(
 599              		.loc 1 441 0
 600 0028 0198     		ldr	r0, [sp, #4]
 601 002a FFF7FEFF 		bl	bmp280_compensate_pressure_int32
 602              	.LVL67:
 603 002e 2860     		str	r0, [r5]
 604 0030 00E0     		b	.L28
 605              	.LVL68:
 606              	.L29:
 432:.\bmp280.c    **** 	} else {
 607              		.loc 1 432 0
ARM GAS  C:\Users\Svilen\AppData\Local\Temp\ccFr0ira.s 			page 20


 608 0032 8124     		mov	r4, #129
 609              	.LVL69:
 610              	.L28:
 442:.\bmp280.c    **** 				v_uncomp_pressure_s32);
 443:.\bmp280.c    **** 	}
 444:.\bmp280.c    **** 	return com_rslt;
 611              		.loc 1 444 0
 612 0034 60B2     		sxtb	r0, r4
 445:.\bmp280.c    **** }
 613              		.loc 1 445 0
 614 0036 02B0     		add	sp, sp, #8
 615              		@ sp needed
 616              	.LVL70:
 617 0038 70BD     		pop	{r4, r5, r6, pc}
 618              	.L31:
 619 003a C046     		.align	2
 620              	.L30:
 621 003c 00000000 		.word	.LANCHOR0
 622              		.cfi_endproc
 623              	.LFE6:
 624              		.size	bmp280_read_pressure_temperature, .-bmp280_read_pressure_temperature
 625              		.section	.text.bmp280_get_calib_param,"ax",%progbits
 626              		.align	2
 627              		.global	bmp280_get_calib_param
 628              		.code	16
 629              		.thumb_func
 630              		.type	bmp280_get_calib_param, %function
 631              	bmp280_get_calib_param:
 632              	.LFB7:
 446:.\bmp280.c    **** /*!
 447:.\bmp280.c    ****  *	@brief This API is used to
 448:.\bmp280.c    ****  *	calibration parameters used for calculation in the registers
 449:.\bmp280.c    ****  *
 450:.\bmp280.c    ****  *  parameter | Register address |   bit
 451:.\bmp280.c    ****  *------------|------------------|----------------
 452:.\bmp280.c    ****  *	dig_T1    |  0x88 and 0x89   | from 0 : 7 to 8: 15
 453:.\bmp280.c    ****  *	dig_T2    |  0x8A and 0x8B   | from 0 : 7 to 8: 15
 454:.\bmp280.c    ****  *	dig_T3    |  0x8C and 0x8D   | from 0 : 7 to 8: 15
 455:.\bmp280.c    ****  *	dig_P1    |  0x8E and 0x8F   | from 0 : 7 to 8: 15
 456:.\bmp280.c    ****  *	dig_P2    |  0x90 and 0x91   | from 0 : 7 to 8: 15
 457:.\bmp280.c    ****  *	dig_P3    |  0x92 and 0x93   | from 0 : 7 to 8: 15
 458:.\bmp280.c    ****  *	dig_P4    |  0x94 and 0x95   | from 0 : 7 to 8: 15
 459:.\bmp280.c    ****  *	dig_P5    |  0x96 and 0x97   | from 0 : 7 to 8: 15
 460:.\bmp280.c    ****  *	dig_P6    |  0x98 and 0x99   | from 0 : 7 to 8: 15
 461:.\bmp280.c    ****  *	dig_P7    |  0x9A and 0x9B   | from 0 : 7 to 8: 15
 462:.\bmp280.c    ****  *	dig_P8    |  0x9C and 0x9D   | from 0 : 7 to 8: 15
 463:.\bmp280.c    ****  *	dig_P9    |  0x9E and 0x9F   | from 0 : 7 to 8: 15
 464:.\bmp280.c    ****  *
 465:.\bmp280.c    ****  *	@return results of bus communication function
 466:.\bmp280.c    ****  *	@retval 0 -> Success
 467:.\bmp280.c    ****  *	@retval -1 -> Error
 468:.\bmp280.c    ****  *
 469:.\bmp280.c    ****  *
 470:.\bmp280.c    ****  */
 471:.\bmp280.c    **** BMP280_RETURN_FUNCTION_TYPE bmp280_get_calib_param(void)
 472:.\bmp280.c    **** {
 633              		.loc 1 472 0
ARM GAS  C:\Users\Svilen\AppData\Local\Temp\ccFr0ira.s 			page 21


 634              		.cfi_startproc
 635 0000 10B5     		push	{r4, lr}
 636              		.cfi_def_cfa_offset 8
 637              		.cfi_offset 4, -8
 638              		.cfi_offset 14, -4
 639 0002 86B0     		sub	sp, sp, #24
 640              		.cfi_def_cfa_offset 32
 641              	.LVL71:
 473:.\bmp280.c    **** 	/* variable used to return communication result*/
 474:.\bmp280.c    **** 	BMP280_RETURN_FUNCTION_TYPE com_rslt = ERROR;
 475:.\bmp280.c    **** 	u8 a_data_u8[BMP280_CALIB_DATA_SIZE] = {BMP280_INIT_VALUE,
 642              		.loc 1 475 0
 643 0004 0023     		mov	r3, #0
 644 0006 0093     		str	r3, [sp]
 645 0008 0193     		str	r3, [sp, #4]
 646 000a 0293     		str	r3, [sp, #8]
 647 000c 0393     		str	r3, [sp, #12]
 648 000e 0493     		str	r3, [sp, #16]
 649 0010 0593     		str	r3, [sp, #20]
 476:.\bmp280.c    **** 			BMP280_INIT_VALUE, BMP280_INIT_VALUE, BMP280_INIT_VALUE,
 477:.\bmp280.c    **** 			BMP280_INIT_VALUE, BMP280_INIT_VALUE, BMP280_INIT_VALUE,
 478:.\bmp280.c    **** 			BMP280_INIT_VALUE, BMP280_INIT_VALUE, BMP280_INIT_VALUE,
 479:.\bmp280.c    **** 			BMP280_INIT_VALUE, BMP280_INIT_VALUE, BMP280_INIT_VALUE,
 480:.\bmp280.c    **** 			BMP280_INIT_VALUE, BMP280_INIT_VALUE, BMP280_INIT_VALUE,
 481:.\bmp280.c    **** 			BMP280_INIT_VALUE, BMP280_INIT_VALUE, BMP280_INIT_VALUE,
 482:.\bmp280.c    **** 			BMP280_INIT_VALUE, BMP280_INIT_VALUE, BMP280_INIT_VALUE,
 483:.\bmp280.c    **** 			BMP280_INIT_VALUE, BMP280_INIT_VALUE};
 484:.\bmp280.c    **** 	/* check the p_bmp280 structure pointer as NULL*/
 485:.\bmp280.c    **** 	if (p_bmp280 == BMP280_NULL) {
 650              		.loc 1 485 0
 651 0012 374B     		ldr	r3, .L35
 652 0014 1B68     		ldr	r3, [r3]
 653 0016 002B     		cmp	r3, #0
 654 0018 66D0     		beq	.L34
 486:.\bmp280.c    **** 		com_rslt = E_BMP280_NULL_PTR;
 487:.\bmp280.c    **** 	} else {
 488:.\bmp280.c    **** 		com_rslt = p_bmp280->BMP280_BUS_READ_FUNC(p_bmp280->dev_addr,
 655              		.loc 1 488 0
 656 001a 5C6A     		ldr	r4, [r3, #36]
 657 001c 587F     		ldrb	r0, [r3, #29]
 658 001e 8821     		mov	r1, #136
 659 0020 6A46     		mov	r2, sp
 660 0022 1823     		mov	r3, #24
 661 0024 A047     		blx	r4
 662              	.LVL72:
 489:.\bmp280.c    **** 				BMP280_TEMPERATURE_CALIB_DIG_T1_LSB_REG,
 490:.\bmp280.c    **** 				a_data_u8,
 491:.\bmp280.c    **** 				BMP280_PRESSURE_TEMPERATURE_CALIB_DATA_LENGTH);
 492:.\bmp280.c    **** 		/* read calibration values*/
 493:.\bmp280.c    **** 		p_bmp280->calib_param.dig_T1 = (u16)((((u16)((u8)a_data_u8[
 663              		.loc 1 493 0
 664 0026 324B     		ldr	r3, .L35
 665 0028 1B68     		ldr	r3, [r3]
 666 002a 6A46     		mov	r2, sp
 667 002c 5278     		ldrb	r2, [r2, #1]
 494:.\bmp280.c    **** 					BMP280_TEMPERATURE_CALIB_DIG_T1_MSB]))
 495:.\bmp280.c    **** 					<< BMP280_SHIFT_BIT_POSITION_BY_08_BITS)
ARM GAS  C:\Users\Svilen\AppData\Local\Temp\ccFr0ira.s 			page 22


 668              		.loc 1 495 0
 669 002e 1202     		lsl	r2, r2, #8
 496:.\bmp280.c    **** 					| a_data_u8[
 670              		.loc 1 496 0
 671 0030 6946     		mov	r1, sp
 672 0032 0978     		ldrb	r1, [r1]
 493:.\bmp280.c    **** 					BMP280_TEMPERATURE_CALIB_DIG_T1_MSB]))
 673              		.loc 1 493 0
 674 0034 0A43     		orr	r2, r1
 675 0036 1A80     		strh	r2, [r3]
 497:.\bmp280.c    **** 					BMP280_TEMPERATURE_CALIB_DIG_T1_LSB]);
 498:.\bmp280.c    **** 		p_bmp280->calib_param.dig_T2 = (s16)((((s16)((s8)a_data_u8[
 499:.\bmp280.c    **** 					BMP280_TEMPERATURE_CALIB_DIG_T2_MSB]))
 500:.\bmp280.c    **** 					<< BMP280_SHIFT_BIT_POSITION_BY_08_BITS)
 676              		.loc 1 500 0
 677 0038 6A46     		mov	r2, sp
 678 003a D278     		ldrb	r2, [r2, #3]
 679 003c 52B2     		sxtb	r2, r2
 680 003e 1202     		lsl	r2, r2, #8
 501:.\bmp280.c    **** 					| a_data_u8[
 681              		.loc 1 501 0
 682 0040 6946     		mov	r1, sp
 683 0042 8978     		ldrb	r1, [r1, #2]
 498:.\bmp280.c    **** 					BMP280_TEMPERATURE_CALIB_DIG_T2_MSB]))
 684              		.loc 1 498 0
 685 0044 0A43     		orr	r2, r1
 686 0046 5A80     		strh	r2, [r3, #2]
 502:.\bmp280.c    **** 					BMP280_TEMPERATURE_CALIB_DIG_T2_LSB]);
 503:.\bmp280.c    **** 		p_bmp280->calib_param.dig_T3 = (s16)((((s16)((s8)a_data_u8[
 504:.\bmp280.c    **** 					BMP280_TEMPERATURE_CALIB_DIG_T3_MSB]))
 505:.\bmp280.c    **** 					<< BMP280_SHIFT_BIT_POSITION_BY_08_BITS)
 687              		.loc 1 505 0
 688 0048 6A46     		mov	r2, sp
 689 004a 5279     		ldrb	r2, [r2, #5]
 690 004c 52B2     		sxtb	r2, r2
 691 004e 1202     		lsl	r2, r2, #8
 506:.\bmp280.c    **** 					| a_data_u8[
 692              		.loc 1 506 0
 693 0050 6946     		mov	r1, sp
 694 0052 0979     		ldrb	r1, [r1, #4]
 503:.\bmp280.c    **** 					BMP280_TEMPERATURE_CALIB_DIG_T3_MSB]))
 695              		.loc 1 503 0
 696 0054 0A43     		orr	r2, r1
 697 0056 9A80     		strh	r2, [r3, #4]
 507:.\bmp280.c    **** 					BMP280_TEMPERATURE_CALIB_DIG_T3_LSB]);
 508:.\bmp280.c    **** 		p_bmp280->calib_param.dig_P1 = (u16)((((u16)((u8)a_data_u8[
 698              		.loc 1 508 0
 699 0058 6A46     		mov	r2, sp
 700 005a D279     		ldrb	r2, [r2, #7]
 509:.\bmp280.c    **** 					BMP280_PRESSURE_CALIB_DIG_P1_MSB]))
 510:.\bmp280.c    **** 					<< BMP280_SHIFT_BIT_POSITION_BY_08_BITS)
 701              		.loc 1 510 0
 702 005c 1202     		lsl	r2, r2, #8
 511:.\bmp280.c    **** 					| a_data_u8[
 703              		.loc 1 511 0
 704 005e 6946     		mov	r1, sp
 705 0060 8979     		ldrb	r1, [r1, #6]
ARM GAS  C:\Users\Svilen\AppData\Local\Temp\ccFr0ira.s 			page 23


 508:.\bmp280.c    **** 					BMP280_PRESSURE_CALIB_DIG_P1_MSB]))
 706              		.loc 1 508 0
 707 0062 0A43     		orr	r2, r1
 708 0064 DA80     		strh	r2, [r3, #6]
 512:.\bmp280.c    **** 					BMP280_PRESSURE_CALIB_DIG_P1_LSB]);
 513:.\bmp280.c    **** 		p_bmp280->calib_param.dig_P2 = (s16)((((s16)((s8)a_data_u8[
 514:.\bmp280.c    **** 					BMP280_PRESSURE_CALIB_DIG_P2_MSB]))
 515:.\bmp280.c    **** 					<< BMP280_SHIFT_BIT_POSITION_BY_08_BITS)
 709              		.loc 1 515 0
 710 0066 6A46     		mov	r2, sp
 711 0068 527A     		ldrb	r2, [r2, #9]
 712 006a 52B2     		sxtb	r2, r2
 713 006c 1202     		lsl	r2, r2, #8
 516:.\bmp280.c    **** 					| a_data_u8[
 714              		.loc 1 516 0
 715 006e 6946     		mov	r1, sp
 716 0070 097A     		ldrb	r1, [r1, #8]
 513:.\bmp280.c    **** 					BMP280_PRESSURE_CALIB_DIG_P2_MSB]))
 717              		.loc 1 513 0
 718 0072 0A43     		orr	r2, r1
 719 0074 1A81     		strh	r2, [r3, #8]
 517:.\bmp280.c    **** 					BMP280_PRESSURE_CALIB_DIG_P2_LSB]);
 518:.\bmp280.c    **** 		p_bmp280->calib_param.dig_P3 = (s16)((((s16)((s8)a_data_u8[
 519:.\bmp280.c    **** 					BMP280_PRESSURE_CALIB_DIG_P3_MSB]))
 520:.\bmp280.c    **** 					<< BMP280_SHIFT_BIT_POSITION_BY_08_BITS)
 720              		.loc 1 520 0
 721 0076 6A46     		mov	r2, sp
 722 0078 D27A     		ldrb	r2, [r2, #11]
 723 007a 52B2     		sxtb	r2, r2
 724 007c 1202     		lsl	r2, r2, #8
 521:.\bmp280.c    **** 					| a_data_u8[
 725              		.loc 1 521 0
 726 007e 6946     		mov	r1, sp
 727 0080 897A     		ldrb	r1, [r1, #10]
 518:.\bmp280.c    **** 					BMP280_PRESSURE_CALIB_DIG_P3_MSB]))
 728              		.loc 1 518 0
 729 0082 0A43     		orr	r2, r1
 730 0084 5A81     		strh	r2, [r3, #10]
 522:.\bmp280.c    **** 					BMP280_PRESSURE_CALIB_DIG_P3_LSB]);
 523:.\bmp280.c    **** 		p_bmp280->calib_param.dig_P4 = (s16)((((s16)((s8)a_data_u8[
 524:.\bmp280.c    **** 					BMP280_PRESSURE_CALIB_DIG_P4_MSB]))
 525:.\bmp280.c    **** 					<< BMP280_SHIFT_BIT_POSITION_BY_08_BITS)
 731              		.loc 1 525 0
 732 0086 6A46     		mov	r2, sp
 733 0088 527B     		ldrb	r2, [r2, #13]
 734 008a 52B2     		sxtb	r2, r2
 735 008c 1202     		lsl	r2, r2, #8
 526:.\bmp280.c    **** 					| a_data_u8[
 736              		.loc 1 526 0
 737 008e 6946     		mov	r1, sp
 738 0090 097B     		ldrb	r1, [r1, #12]
 523:.\bmp280.c    **** 					BMP280_PRESSURE_CALIB_DIG_P4_MSB]))
 739              		.loc 1 523 0
 740 0092 0A43     		orr	r2, r1
 741 0094 9A81     		strh	r2, [r3, #12]
 527:.\bmp280.c    **** 					BMP280_PRESSURE_CALIB_DIG_P4_LSB]);
 528:.\bmp280.c    **** 		p_bmp280->calib_param.dig_P5 = (s16)((((s16)((s8)a_data_u8[
ARM GAS  C:\Users\Svilen\AppData\Local\Temp\ccFr0ira.s 			page 24


 529:.\bmp280.c    **** 					BMP280_PRESSURE_CALIB_DIG_P5_MSB]))
 530:.\bmp280.c    **** 					<< BMP280_SHIFT_BIT_POSITION_BY_08_BITS)
 742              		.loc 1 530 0
 743 0096 6A46     		mov	r2, sp
 744 0098 D27B     		ldrb	r2, [r2, #15]
 745 009a 52B2     		sxtb	r2, r2
 746 009c 1202     		lsl	r2, r2, #8
 531:.\bmp280.c    **** 					| a_data_u8[
 747              		.loc 1 531 0
 748 009e 6946     		mov	r1, sp
 749 00a0 897B     		ldrb	r1, [r1, #14]
 528:.\bmp280.c    **** 					BMP280_PRESSURE_CALIB_DIG_P5_MSB]))
 750              		.loc 1 528 0
 751 00a2 0A43     		orr	r2, r1
 752 00a4 DA81     		strh	r2, [r3, #14]
 532:.\bmp280.c    **** 					BMP280_PRESSURE_CALIB_DIG_P5_LSB]);
 533:.\bmp280.c    **** 		p_bmp280->calib_param.dig_P6 = (s16)((((s16)((s8)a_data_u8[
 534:.\bmp280.c    **** 					BMP280_PRESSURE_CALIB_DIG_P6_MSB]))
 535:.\bmp280.c    **** 					<< BMP280_SHIFT_BIT_POSITION_BY_08_BITS)
 753              		.loc 1 535 0
 754 00a6 6A46     		mov	r2, sp
 755 00a8 527C     		ldrb	r2, [r2, #17]
 756 00aa 52B2     		sxtb	r2, r2
 757 00ac 1202     		lsl	r2, r2, #8
 536:.\bmp280.c    **** 					| a_data_u8[
 758              		.loc 1 536 0
 759 00ae 6946     		mov	r1, sp
 760 00b0 097C     		ldrb	r1, [r1, #16]
 533:.\bmp280.c    **** 					BMP280_PRESSURE_CALIB_DIG_P6_MSB]))
 761              		.loc 1 533 0
 762 00b2 0A43     		orr	r2, r1
 763 00b4 1A82     		strh	r2, [r3, #16]
 537:.\bmp280.c    **** 					BMP280_PRESSURE_CALIB_DIG_P6_LSB]);
 538:.\bmp280.c    **** 		p_bmp280->calib_param.dig_P7 = (s16)((((s16)((s8)a_data_u8[
 539:.\bmp280.c    **** 					BMP280_PRESSURE_CALIB_DIG_P7_MSB]))
 540:.\bmp280.c    **** 					<< BMP280_SHIFT_BIT_POSITION_BY_08_BITS)
 764              		.loc 1 540 0
 765 00b6 6A46     		mov	r2, sp
 766 00b8 D27C     		ldrb	r2, [r2, #19]
 767 00ba 52B2     		sxtb	r2, r2
 768 00bc 1202     		lsl	r2, r2, #8
 541:.\bmp280.c    **** 					| a_data_u8[
 769              		.loc 1 541 0
 770 00be 6946     		mov	r1, sp
 771 00c0 897C     		ldrb	r1, [r1, #18]
 538:.\bmp280.c    **** 					BMP280_PRESSURE_CALIB_DIG_P7_MSB]))
 772              		.loc 1 538 0
 773 00c2 0A43     		orr	r2, r1
 774 00c4 5A82     		strh	r2, [r3, #18]
 542:.\bmp280.c    **** 					BMP280_PRESSURE_CALIB_DIG_P7_LSB]);
 543:.\bmp280.c    **** 		p_bmp280->calib_param.dig_P8 = (s16)((((s16)((s8)a_data_u8[
 544:.\bmp280.c    **** 					BMP280_PRESSURE_CALIB_DIG_P8_MSB]))
 545:.\bmp280.c    **** 					<< BMP280_SHIFT_BIT_POSITION_BY_08_BITS)
 775              		.loc 1 545 0
 776 00c6 6A46     		mov	r2, sp
 777 00c8 527D     		ldrb	r2, [r2, #21]
 778 00ca 52B2     		sxtb	r2, r2
ARM GAS  C:\Users\Svilen\AppData\Local\Temp\ccFr0ira.s 			page 25


 779 00cc 1202     		lsl	r2, r2, #8
 546:.\bmp280.c    **** 					| a_data_u8[
 780              		.loc 1 546 0
 781 00ce 6946     		mov	r1, sp
 782 00d0 097D     		ldrb	r1, [r1, #20]
 543:.\bmp280.c    **** 					BMP280_PRESSURE_CALIB_DIG_P8_MSB]))
 783              		.loc 1 543 0
 784 00d2 0A43     		orr	r2, r1
 785 00d4 9A82     		strh	r2, [r3, #20]
 547:.\bmp280.c    **** 					BMP280_PRESSURE_CALIB_DIG_P8_LSB]);
 548:.\bmp280.c    **** 		p_bmp280->calib_param.dig_P9 = (s16)((((s16)((s8)a_data_u8[
 549:.\bmp280.c    **** 					BMP280_PRESSURE_CALIB_DIG_P9_MSB]))
 550:.\bmp280.c    **** 					<< BMP280_SHIFT_BIT_POSITION_BY_08_BITS)
 786              		.loc 1 550 0
 787 00d6 6A46     		mov	r2, sp
 788 00d8 D27D     		ldrb	r2, [r2, #23]
 789 00da 52B2     		sxtb	r2, r2
 790 00dc 1202     		lsl	r2, r2, #8
 551:.\bmp280.c    **** 					| a_data_u8[
 791              		.loc 1 551 0
 792 00de 6946     		mov	r1, sp
 793 00e0 897D     		ldrb	r1, [r1, #22]
 548:.\bmp280.c    **** 					BMP280_PRESSURE_CALIB_DIG_P9_MSB]))
 794              		.loc 1 548 0
 795 00e2 0A43     		orr	r2, r1
 796 00e4 DA82     		strh	r2, [r3, #22]
 797 00e6 00E0     		b	.L33
 798              	.LVL73:
 799              	.L34:
 486:.\bmp280.c    **** 	} else {
 800              		.loc 1 486 0
 801 00e8 8120     		mov	r0, #129
 802              	.LVL74:
 803              	.L33:
 552:.\bmp280.c    **** 					BMP280_PRESSURE_CALIB_DIG_P9_LSB]);
 553:.\bmp280.c    **** 	}
 554:.\bmp280.c    **** 	return com_rslt;
 804              		.loc 1 554 0
 805 00ea 40B2     		sxtb	r0, r0
 555:.\bmp280.c    **** }
 806              		.loc 1 555 0
 807 00ec 06B0     		add	sp, sp, #24
 808              		@ sp needed
 809 00ee 10BD     		pop	{r4, pc}
 810              	.L36:
 811              		.align	2
 812              	.L35:
 813 00f0 00000000 		.word	.LANCHOR0
 814              		.cfi_endproc
 815              	.LFE7:
 816              		.size	bmp280_get_calib_param, .-bmp280_get_calib_param
 817              		.section	.text.bmp280_init,"ax",%progbits
 818              		.align	2
 819              		.global	bmp280_init
 820              		.code	16
 821              		.thumb_func
 822              		.type	bmp280_init, %function
ARM GAS  C:\Users\Svilen\AppData\Local\Temp\ccFr0ira.s 			page 26


 823              	bmp280_init:
 824              	.LFB0:
  84:.\bmp280.c    **** 	/* variable used to return communication result*/
 825              		.loc 1 84 0
 826              		.cfi_startproc
 827              	.LVL75:
 828 0000 70B5     		push	{r4, r5, r6, lr}
 829              		.cfi_def_cfa_offset 16
 830              		.cfi_offset 4, -16
 831              		.cfi_offset 5, -12
 832              		.cfi_offset 6, -8
 833              		.cfi_offset 14, -4
 834 0002 82B0     		sub	sp, sp, #8
 835              		.cfi_def_cfa_offset 24
 836              	.LVL76:
  87:.\bmp280.c    **** 	u8 v_chip_id_read_count = BMP280_CHIP_ID_READ_COUNT;
 837              		.loc 1 87 0
 838 0004 0022     		mov	r2, #0
 839 0006 6B46     		mov	r3, sp
 840 0008 DA71     		strb	r2, [r3, #7]
 841              	.LVL77:
  90:.\bmp280.c    **** 
 842              		.loc 1 90 0
 843 000a 174B     		ldr	r3, .L44
 844 000c 1860     		str	r0, [r3]
  88:.\bmp280.c    **** 
 845              		.loc 1 88 0
 846 000e 0524     		mov	r4, #5
  92:.\bmp280.c    **** 		/* read chip id */
 847              		.loc 1 92 0
 848 0010 14E0     		b	.L38
 849              	.LVL78:
 850              	.L40:
  94:.\bmp280.c    **** 				BMP280_CHIP_ID_REG, &v_data_u8,
 851              		.loc 1 94 0
 852 0012 154B     		ldr	r3, .L44
 853 0014 1B68     		ldr	r3, [r3]
 854 0016 5E6A     		ldr	r6, [r3, #36]
 855 0018 587F     		ldrb	r0, [r3, #29]
 856 001a 6B46     		mov	r3, sp
 857 001c DD1D     		add	r5, r3, #7
 858 001e D021     		mov	r1, #208
 859 0020 2A1C     		mov	r2, r5
 860 0022 0123     		mov	r3, #1
 861 0024 B047     		blx	r6
 862              	.LVL79:
 100:.\bmp280.c    **** 			break;
 863              		.loc 1 100 0
 864 0026 2B78     		ldrb	r3, [r5]
 865 0028 563B     		sub	r3, r3, #86
  98:.\bmp280.c    **** 			|| (v_data_u8 == BMP280_CHIP_ID2)
 866              		.loc 1 98 0
 867 002a 022B     		cmp	r3, #2
 868 002c 08D9     		bls	.L39
 102:.\bmp280.c    **** 		/* Delay added concerning the low speed of power up system to
 869              		.loc 1 102 0
 870 002e 013C     		sub	r4, r4, #1
ARM GAS  C:\Users\Svilen\AppData\Local\Temp\ccFr0ira.s 			page 27


 871              	.LVL80:
 872 0030 E4B2     		uxtb	r4, r4
 873              	.LVL81:
 105:.\bmp280.c    **** 	}
 874              		.loc 1 105 0
 875 0032 0D4B     		ldr	r3, .L44
 876 0034 1B68     		ldr	r3, [r3]
 877 0036 9B6A     		ldr	r3, [r3, #40]
 878 0038 0120     		mov	r0, #1
 879 003a 9847     		blx	r3
 880              	.LVL82:
 881              	.L38:
  92:.\bmp280.c    **** 		/* read chip id */
 882              		.loc 1 92 0
 883 003c 002C     		cmp	r4, #0
 884 003e E8D1     		bne	.L40
 885              	.L39:
 109:.\bmp280.c    **** 	/*com_rslt status of chip ID read*/
 886              		.loc 1 109 0
 887 0040 094B     		ldr	r3, .L44
 888 0042 1B68     		ldr	r3, [r3]
 889 0044 6A46     		mov	r2, sp
 890 0046 0732     		add	r2, r2, #7
 891 0048 1278     		ldrb	r2, [r2]
 892 004a 1A77     		strb	r2, [r3, #28]
 111:.\bmp280.c    **** 			BMP280_CHIP_ID_READ_FAIL : BMP280_CHIP_ID_READ_SUCCESS;
 893              		.loc 1 111 0
 894 004c 002C     		cmp	r4, #0
 895 004e 01D1     		bne	.L43
 896 0050 FF34     		add	r4, r4, #255
 897              	.LVL83:
 898 0052 00E0     		b	.L41
 899              	.LVL84:
 900              	.L43:
 901 0054 0024     		mov	r4, #0
 902              	.LVL85:
 903              	.L41:
 114:.\bmp280.c    **** 		/* readout bmp280 calibration parameter structure */
 904              		.loc 1 114 0 discriminator 4
 905 0056 002C     		cmp	r4, #0
 906 0058 03D1     		bne	.L42
 116:.\bmp280.c    **** 	}
 907              		.loc 1 116 0
 908 005a FFF7FEFF 		bl	bmp280_get_calib_param
 909              	.LVL86:
 910 005e 0419     		add	r4, r0, r4
 911              	.LVL87:
 912 0060 E4B2     		uxtb	r4, r4
 913              	.LVL88:
 914              	.L42:
 118:.\bmp280.c    **** }
 915              		.loc 1 118 0
 916 0062 60B2     		sxtb	r0, r4
 119:.\bmp280.c    **** /*!
 917              		.loc 1 119 0
 918 0064 02B0     		add	sp, sp, #8
 919              		@ sp needed
ARM GAS  C:\Users\Svilen\AppData\Local\Temp\ccFr0ira.s 			page 28


 920              	.LVL89:
 921 0066 70BD     		pop	{r4, r5, r6, pc}
 922              	.L45:
 923              		.align	2
 924              	.L44:
 925 0068 00000000 		.word	.LANCHOR0
 926              		.cfi_endproc
 927              	.LFE0:
 928              		.size	bmp280_init, .-bmp280_init
 929              		.section	.text.bmp280_get_oversamp_temperature,"ax",%progbits
 930              		.align	2
 931              		.global	bmp280_get_oversamp_temperature
 932              		.code	16
 933              		.thumb_func
 934              		.type	bmp280_get_oversamp_temperature, %function
 935              	bmp280_get_oversamp_temperature:
 936              	.LFB8:
 556:.\bmp280.c    **** /*!
 557:.\bmp280.c    ****  *	@brief This API is used to get
 558:.\bmp280.c    ****  *	the temperature oversampling setting in the register 0xF4
 559:.\bmp280.c    ****  *	bits from 5 to 7
 560:.\bmp280.c    ****  *
 561:.\bmp280.c    ****  *        value             | Temperature oversampling
 562:.\bmp280.c    ****  *  ------------------------|------------------------------
 563:.\bmp280.c    ****  *       0x00               |  BMP280_OVERSAMP_SKIPPED
 564:.\bmp280.c    ****  *       0x01               |  BMP280_OVERSAMP_1X
 565:.\bmp280.c    ****  *       0x02               |  BMP280_OVERSAMP_2X
 566:.\bmp280.c    ****  *       0x03               |  BMP280_OVERSAMP_4X
 567:.\bmp280.c    ****  *       0x04               |  BMP280_OVERSAMP_8X
 568:.\bmp280.c    ****  *       0x05,0x06 and 0x07 |  BMP280_OVERSAMP_16X
 569:.\bmp280.c    ****  *
 570:.\bmp280.c    ****  *
 571:.\bmp280.c    ****  *  @param v_value_u8 :The value of temperature over sampling
 572:.\bmp280.c    ****  *
 573:.\bmp280.c    ****  *
 574:.\bmp280.c    ****  *
 575:.\bmp280.c    ****  *  @return results of bus communication function
 576:.\bmp280.c    ****  *	@retval 0 -> Success
 577:.\bmp280.c    ****  *	@retval -1 -> Error
 578:.\bmp280.c    ****  *
 579:.\bmp280.c    ****  *
 580:.\bmp280.c    ****  */
 581:.\bmp280.c    **** BMP280_RETURN_FUNCTION_TYPE bmp280_get_oversamp_temperature(u8 *v_value_u8)
 582:.\bmp280.c    **** {
 937              		.loc 1 582 0
 938              		.cfi_startproc
 939              	.LVL90:
 940 0000 70B5     		push	{r4, r5, r6, lr}
 941              		.cfi_def_cfa_offset 16
 942              		.cfi_offset 4, -16
 943              		.cfi_offset 5, -12
 944              		.cfi_offset 6, -8
 945              		.cfi_offset 14, -4
 946 0002 82B0     		sub	sp, sp, #8
 947              		.cfi_def_cfa_offset 24
 948              	.LVL91:
 583:.\bmp280.c    **** 	/* variable used to return communication result*/
ARM GAS  C:\Users\Svilen\AppData\Local\Temp\ccFr0ira.s 			page 29


 584:.\bmp280.c    **** 	BMP280_RETURN_FUNCTION_TYPE com_rslt = ERROR;
 585:.\bmp280.c    **** 	u8 v_data_u8 = BMP280_INIT_VALUE;
 949              		.loc 1 585 0
 950 0004 0022     		mov	r2, #0
 951 0006 6B46     		mov	r3, sp
 952 0008 DA71     		strb	r2, [r3, #7]
 586:.\bmp280.c    **** 	/* check the p_bmp280 structure pointer as NULL*/
 587:.\bmp280.c    **** 	if (p_bmp280 == BMP280_NULL) {
 953              		.loc 1 587 0
 954 000a 0C4B     		ldr	r3, .L49
 955 000c 1B68     		ldr	r3, [r3]
 956 000e 002B     		cmp	r3, #0
 957 0010 0FD0     		beq	.L48
 958 0012 051C     		mov	r5, r0
 588:.\bmp280.c    **** 		com_rslt = E_BMP280_NULL_PTR;
 589:.\bmp280.c    **** 	} else {
 590:.\bmp280.c    **** 		/* read temperature over sampling*/
 591:.\bmp280.c    **** 		com_rslt = p_bmp280->BMP280_BUS_READ_FUNC(p_bmp280->dev_addr,
 959              		.loc 1 591 0
 960 0014 5E6A     		ldr	r6, [r3, #36]
 961 0016 587F     		ldrb	r0, [r3, #29]
 962              	.LVL92:
 963 0018 6B46     		mov	r3, sp
 964 001a DC1D     		add	r4, r3, #7
 965 001c F421     		mov	r1, #244
 966 001e 221C     		mov	r2, r4
 967 0020 0123     		mov	r3, #1
 968 0022 B047     		blx	r6
 969              	.LVL93:
 592:.\bmp280.c    **** 				BMP280_CTRL_MEAS_REG_OVERSAMP_TEMPERATURE__REG,
 593:.\bmp280.c    **** 				&v_data_u8, BMP280_GEN_READ_WRITE_DATA_LENGTH);
 594:.\bmp280.c    **** 		*v_value_u8 = BMP280_GET_BITSLICE(v_data_u8,
 970              		.loc 1 594 0
 971 0024 2378     		ldrb	r3, [r4]
 972 0026 5B09     		lsr	r3, r3, #5
 973 0028 2B70     		strb	r3, [r5]
 595:.\bmp280.c    **** 				BMP280_CTRL_MEAS_REG_OVERSAMP_TEMPERATURE);
 596:.\bmp280.c    **** 		/* assign temperature oversampling*/
 597:.\bmp280.c    **** 		p_bmp280->oversamp_temperature = *v_value_u8;
 974              		.loc 1 597 0
 975 002a 044A     		ldr	r2, .L49
 976 002c 1268     		ldr	r2, [r2]
 977 002e 9377     		strb	r3, [r2, #30]
 978 0030 00E0     		b	.L47
 979              	.LVL94:
 980              	.L48:
 588:.\bmp280.c    **** 	} else {
 981              		.loc 1 588 0
 982 0032 8120     		mov	r0, #129
 983              	.LVL95:
 984              	.L47:
 598:.\bmp280.c    **** 	}
 599:.\bmp280.c    **** 	return com_rslt;
 985              		.loc 1 599 0
 986 0034 40B2     		sxtb	r0, r0
 600:.\bmp280.c    **** }
 987              		.loc 1 600 0
ARM GAS  C:\Users\Svilen\AppData\Local\Temp\ccFr0ira.s 			page 30


 988 0036 02B0     		add	sp, sp, #8
 989              		@ sp needed
 990 0038 70BD     		pop	{r4, r5, r6, pc}
 991              	.L50:
 992 003a C046     		.align	2
 993              	.L49:
 994 003c 00000000 		.word	.LANCHOR0
 995              		.cfi_endproc
 996              	.LFE8:
 997              		.size	bmp280_get_oversamp_temperature, .-bmp280_get_oversamp_temperature
 998              		.section	.text.bmp280_set_oversamp_temperature,"ax",%progbits
 999              		.align	2
 1000              		.global	bmp280_set_oversamp_temperature
 1001              		.code	16
 1002              		.thumb_func
 1003              		.type	bmp280_set_oversamp_temperature, %function
 1004              	bmp280_set_oversamp_temperature:
 1005              	.LFB9:
 601:.\bmp280.c    **** /*!
 602:.\bmp280.c    ****  *	@brief This API is used to set
 603:.\bmp280.c    ****  *	the temperature oversampling setting in the register 0xF4
 604:.\bmp280.c    ****  *	bits from 5 to 7
 605:.\bmp280.c    ****  *
 606:.\bmp280.c    ****  *        value             | Temperature oversampling
 607:.\bmp280.c    ****  *  ------------------------|------------------------------
 608:.\bmp280.c    ****  *       0x00               |  BMP280_OVERSAMP_SKIPPED
 609:.\bmp280.c    ****  *       0x01               |  BMP280_OVERSAMP_1X
 610:.\bmp280.c    ****  *       0x02               |  BMP280_OVERSAMP_2X
 611:.\bmp280.c    ****  *       0x03               |  BMP280_OVERSAMP_4X
 612:.\bmp280.c    ****  *       0x04               |  BMP280_OVERSAMP_8X
 613:.\bmp280.c    ****  *       0x05,0x06 and 0x07 |  BMP280_OVERSAMP_16X
 614:.\bmp280.c    ****  *
 615:.\bmp280.c    ****  *
 616:.\bmp280.c    ****  *  @param v_value_u8 :The value of temperature over sampling
 617:.\bmp280.c    ****  *
 618:.\bmp280.c    ****  *
 619:.\bmp280.c    ****  *
 620:.\bmp280.c    ****  *  @return results of bus communication function
 621:.\bmp280.c    ****  *	@retval 0 -> Success
 622:.\bmp280.c    ****  *	@retval -1 -> Error
 623:.\bmp280.c    ****  *
 624:.\bmp280.c    ****  *
 625:.\bmp280.c    ****  */
 626:.\bmp280.c    **** BMP280_RETURN_FUNCTION_TYPE bmp280_set_oversamp_temperature(u8 v_value_u8)
 627:.\bmp280.c    **** {
 1006              		.loc 1 627 0
 1007              		.cfi_startproc
 1008              	.LVL96:
 1009 0000 F0B5     		push	{r4, r5, r6, r7, lr}
 1010              		.cfi_def_cfa_offset 20
 1011              		.cfi_offset 4, -20
 1012              		.cfi_offset 5, -16
 1013              		.cfi_offset 6, -12
 1014              		.cfi_offset 7, -8
 1015              		.cfi_offset 14, -4
 1016 0002 83B0     		sub	sp, sp, #12
 1017              		.cfi_def_cfa_offset 32
ARM GAS  C:\Users\Svilen\AppData\Local\Temp\ccFr0ira.s 			page 31


 1018 0004 051C     		mov	r5, r0
 1019              	.LVL97:
 628:.\bmp280.c    **** 	/* variable used to return communication result*/
 629:.\bmp280.c    **** 	BMP280_RETURN_FUNCTION_TYPE com_rslt = ERROR;
 630:.\bmp280.c    **** 	u8 v_data_u8 = BMP280_INIT_VALUE;
 1020              		.loc 1 630 0
 1021 0006 0022     		mov	r2, #0
 1022 0008 6B46     		mov	r3, sp
 1023 000a DA71     		strb	r2, [r3, #7]
 631:.\bmp280.c    **** 	/* check the p_bmp280 structure pointer as NULL*/
 632:.\bmp280.c    **** 	if (p_bmp280 == BMP280_NULL) {
 1024              		.loc 1 632 0
 1025 000c 124B     		ldr	r3, .L54
 1026 000e 1B68     		ldr	r3, [r3]
 1027 0010 002B     		cmp	r3, #0
 1028 0012 1CD0     		beq	.L53
 633:.\bmp280.c    **** 		com_rslt = E_BMP280_NULL_PTR;
 634:.\bmp280.c    **** 	} else {
 635:.\bmp280.c    **** 		com_rslt = p_bmp280->BMP280_BUS_READ_FUNC(p_bmp280->dev_addr,
 1029              		.loc 1 635 0
 1030 0014 5C6A     		ldr	r4, [r3, #36]
 1031 0016 587F     		ldrb	r0, [r3, #29]
 1032              	.LVL98:
 1033 0018 F421     		mov	r1, #244
 1034 001a 6B46     		mov	r3, sp
 1035 001c DA1D     		add	r2, r3, #7
 1036 001e 0123     		mov	r3, #1
 1037 0020 A047     		blx	r4
 1038              	.LVL99:
 1039 0022 041E     		sub	r4, r0, #0
 1040              	.LVL100:
 636:.\bmp280.c    **** 				BMP280_CTRL_MEAS_REG_OVERSAMP_TEMPERATURE__REG,
 637:.\bmp280.c    **** 				&v_data_u8, BMP280_GEN_READ_WRITE_DATA_LENGTH);
 638:.\bmp280.c    **** 		if (com_rslt == SUCCESS) {
 1041              		.loc 1 638 0
 1042 0024 14D1     		bne	.L52
 639:.\bmp280.c    **** 			/* write over sampling*/
 640:.\bmp280.c    **** 			v_data_u8 = BMP280_SET_BITSLICE(v_data_u8,
 1043              		.loc 1 640 0
 1044 0026 6901     		lsl	r1, r5, #5
 1045 0028 6B46     		mov	r3, sp
 1046 002a DA1D     		add	r2, r3, #7
 1047 002c 1378     		ldrb	r3, [r2]
 1048 002e 1F30     		add	r0, r0, #31
 1049 0030 0340     		and	r3, r0
 1050 0032 0B43     		orr	r3, r1
 1051 0034 1370     		strb	r3, [r2]
 641:.\bmp280.c    **** 				BMP280_CTRL_MEAS_REG_OVERSAMP_TEMPERATURE,
 642:.\bmp280.c    **** 				v_value_u8);
 643:.\bmp280.c    **** 			com_rslt += p_bmp280->BMP280_BUS_WRITE_FUNC(
 1052              		.loc 1 643 0
 1053 0036 084E     		ldr	r6, .L54
 1054 0038 3368     		ldr	r3, [r6]
 1055 003a 1F6A     		ldr	r7, [r3, #32]
 1056 003c 587F     		ldrb	r0, [r3, #29]
 1057 003e F421     		mov	r1, #244
 1058 0040 0123     		mov	r3, #1
ARM GAS  C:\Users\Svilen\AppData\Local\Temp\ccFr0ira.s 			page 32


 1059 0042 B847     		blx	r7
 1060              	.LVL101:
 1061 0044 0019     		add	r0, r0, r4
 1062 0046 C0B2     		uxtb	r0, r0
 1063              	.LVL102:
 644:.\bmp280.c    **** 				p_bmp280->dev_addr,
 645:.\bmp280.c    **** 				BMP280_CTRL_MEAS_REG_OVERSAMP_TEMPERATURE__REG,
 646:.\bmp280.c    **** 				&v_data_u8,
 647:.\bmp280.c    **** 				BMP280_GEN_READ_WRITE_DATA_LENGTH);
 648:.\bmp280.c    **** 			p_bmp280->oversamp_temperature = v_value_u8;
 1064              		.loc 1 648 0
 1065 0048 3368     		ldr	r3, [r6]
 1066 004a 9D77     		strb	r5, [r3, #30]
 1067 004c 00E0     		b	.L52
 1068              	.LVL103:
 1069              	.L53:
 633:.\bmp280.c    **** 	} else {
 1070              		.loc 1 633 0
 1071 004e 8120     		mov	r0, #129
 1072              	.LVL104:
 1073              	.L52:
 649:.\bmp280.c    **** 		}
 650:.\bmp280.c    **** 	}
 651:.\bmp280.c    **** 	return com_rslt;
 1074              		.loc 1 651 0
 1075 0050 40B2     		sxtb	r0, r0
 652:.\bmp280.c    **** }
 1076              		.loc 1 652 0
 1077 0052 03B0     		add	sp, sp, #12
 1078              		@ sp needed
 1079 0054 F0BD     		pop	{r4, r5, r6, r7, pc}
 1080              	.L55:
 1081 0056 C046     		.align	2
 1082              	.L54:
 1083 0058 00000000 		.word	.LANCHOR0
 1084              		.cfi_endproc
 1085              	.LFE9:
 1086              		.size	bmp280_set_oversamp_temperature, .-bmp280_set_oversamp_temperature
 1087              		.section	.text.bmp280_get_oversamp_pressure,"ax",%progbits
 1088              		.align	2
 1089              		.global	bmp280_get_oversamp_pressure
 1090              		.code	16
 1091              		.thumb_func
 1092              		.type	bmp280_get_oversamp_pressure, %function
 1093              	bmp280_get_oversamp_pressure:
 1094              	.LFB10:
 653:.\bmp280.c    **** /*!
 654:.\bmp280.c    ****  *	@brief This API is used to get
 655:.\bmp280.c    ****  *	the pressure oversampling setting in the register 0xF4
 656:.\bmp280.c    ****  *	bits from 2 to 4
 657:.\bmp280.c    ****  *
 658:.\bmp280.c    ****  *        value             | Pressure oversampling
 659:.\bmp280.c    ****  *  ------------------------|------------------------------
 660:.\bmp280.c    ****  *       0x00               |  BMP280_OVERSAMP_SKIPPED
 661:.\bmp280.c    ****  *       0x01               |  BMP280_OVERSAMP_1X
 662:.\bmp280.c    ****  *       0x02               |  BMP280_OVERSAMP_2X
 663:.\bmp280.c    ****  *       0x03               |  BMP280_OVERSAMP_4X
ARM GAS  C:\Users\Svilen\AppData\Local\Temp\ccFr0ira.s 			page 33


 664:.\bmp280.c    ****  *       0x04               |  BMP280_OVERSAMP_8X
 665:.\bmp280.c    ****  *       0x05,0x06 and 0x07 |  BMP280_OVERSAMP_16X
 666:.\bmp280.c    ****  *
 667:.\bmp280.c    ****  *
 668:.\bmp280.c    ****  *  @param  v_value_u8 : The value of pressure over sampling
 669:.\bmp280.c    ****  *
 670:.\bmp280.c    ****  *
 671:.\bmp280.c    ****  *
 672:.\bmp280.c    ****  *  @return results of bus communication function
 673:.\bmp280.c    ****  *	@retval 0 -> Success
 674:.\bmp280.c    ****  *	@retval -1 -> Error
 675:.\bmp280.c    ****  *
 676:.\bmp280.c    ****  *
 677:.\bmp280.c    ****  */
 678:.\bmp280.c    **** BMP280_RETURN_FUNCTION_TYPE bmp280_get_oversamp_pressure(u8 *v_value_u8)
 679:.\bmp280.c    **** {
 1095              		.loc 1 679 0
 1096              		.cfi_startproc
 1097              	.LVL105:
 1098 0000 70B5     		push	{r4, r5, r6, lr}
 1099              		.cfi_def_cfa_offset 16
 1100              		.cfi_offset 4, -16
 1101              		.cfi_offset 5, -12
 1102              		.cfi_offset 6, -8
 1103              		.cfi_offset 14, -4
 1104 0002 82B0     		sub	sp, sp, #8
 1105              		.cfi_def_cfa_offset 24
 1106              	.LVL106:
 680:.\bmp280.c    **** 	/* variable used to return communication result*/
 681:.\bmp280.c    **** 	BMP280_RETURN_FUNCTION_TYPE com_rslt = ERROR;
 682:.\bmp280.c    **** 	u8 v_data_u8 = BMP280_INIT_VALUE;
 1107              		.loc 1 682 0
 1108 0004 0022     		mov	r2, #0
 1109 0006 6B46     		mov	r3, sp
 1110 0008 DA71     		strb	r2, [r3, #7]
 683:.\bmp280.c    **** 	/* check the p_bmp280 structure pointer as NULL*/
 684:.\bmp280.c    **** 	if (p_bmp280 == BMP280_NULL) {
 1111              		.loc 1 684 0
 1112 000a 0C4B     		ldr	r3, .L59
 1113 000c 1B68     		ldr	r3, [r3]
 1114 000e 002B     		cmp	r3, #0
 1115 0010 10D0     		beq	.L58
 1116 0012 051C     		mov	r5, r0
 685:.\bmp280.c    **** 		com_rslt = E_BMP280_NULL_PTR;
 686:.\bmp280.c    **** 	} else {
 687:.\bmp280.c    **** 		/* read pressure over sampling */
 688:.\bmp280.c    **** 		com_rslt = p_bmp280->BMP280_BUS_READ_FUNC(p_bmp280->dev_addr,
 1117              		.loc 1 688 0
 1118 0014 5E6A     		ldr	r6, [r3, #36]
 1119 0016 587F     		ldrb	r0, [r3, #29]
 1120              	.LVL107:
 1121 0018 6B46     		mov	r3, sp
 1122 001a DC1D     		add	r4, r3, #7
 1123 001c F421     		mov	r1, #244
 1124 001e 221C     		mov	r2, r4
 1125 0020 0123     		mov	r3, #1
 1126 0022 B047     		blx	r6
ARM GAS  C:\Users\Svilen\AppData\Local\Temp\ccFr0ira.s 			page 34


 1127              	.LVL108:
 689:.\bmp280.c    **** 				BMP280_CTRL_MEAS_REG_OVERSAMP_PRESSURE__REG,
 690:.\bmp280.c    **** 				&v_data_u8, BMP280_GEN_READ_WRITE_DATA_LENGTH);
 691:.\bmp280.c    **** 		*v_value_u8 = BMP280_GET_BITSLICE(v_data_u8,
 1128              		.loc 1 691 0
 1129 0024 2378     		ldrb	r3, [r4]
 1130 0026 DB06     		lsl	r3, r3, #27
 1131 0028 5B0F     		lsr	r3, r3, #29
 1132 002a 2B70     		strb	r3, [r5]
 692:.\bmp280.c    **** 				BMP280_CTRL_MEAS_REG_OVERSAMP_PRESSURE);
 693:.\bmp280.c    **** 
 694:.\bmp280.c    **** 		p_bmp280->oversamp_pressure = *v_value_u8;
 1133              		.loc 1 694 0
 1134 002c 034A     		ldr	r2, .L59
 1135 002e 1268     		ldr	r2, [r2]
 1136 0030 D377     		strb	r3, [r2, #31]
 1137 0032 00E0     		b	.L57
 1138              	.LVL109:
 1139              	.L58:
 685:.\bmp280.c    **** 	} else {
 1140              		.loc 1 685 0
 1141 0034 8120     		mov	r0, #129
 1142              	.LVL110:
 1143              	.L57:
 695:.\bmp280.c    **** 	}
 696:.\bmp280.c    **** 	return com_rslt;
 1144              		.loc 1 696 0
 1145 0036 40B2     		sxtb	r0, r0
 697:.\bmp280.c    **** }
 1146              		.loc 1 697 0
 1147 0038 02B0     		add	sp, sp, #8
 1148              		@ sp needed
 1149 003a 70BD     		pop	{r4, r5, r6, pc}
 1150              	.L60:
 1151              		.align	2
 1152              	.L59:
 1153 003c 00000000 		.word	.LANCHOR0
 1154              		.cfi_endproc
 1155              	.LFE10:
 1156              		.size	bmp280_get_oversamp_pressure, .-bmp280_get_oversamp_pressure
 1157              		.section	.text.bmp280_set_oversamp_pressure,"ax",%progbits
 1158              		.align	2
 1159              		.global	bmp280_set_oversamp_pressure
 1160              		.code	16
 1161              		.thumb_func
 1162              		.type	bmp280_set_oversamp_pressure, %function
 1163              	bmp280_set_oversamp_pressure:
 1164              	.LFB11:
 698:.\bmp280.c    **** /*!
 699:.\bmp280.c    ****  *	@brief This API is used to set
 700:.\bmp280.c    ****  *	the pressure oversampling setting in the register 0xF4
 701:.\bmp280.c    ****  *	bits from 2 to 4
 702:.\bmp280.c    ****  *
 703:.\bmp280.c    ****  *        value             | Pressure oversampling
 704:.\bmp280.c    ****  *  ------------------------|------------------------------
 705:.\bmp280.c    ****  *       0x00               |  BMP280_OVERSAMP_SKIPPED
 706:.\bmp280.c    ****  *       0x01               |  BMP280_OVERSAMP_1X
ARM GAS  C:\Users\Svilen\AppData\Local\Temp\ccFr0ira.s 			page 35


 707:.\bmp280.c    ****  *       0x02               |  BMP280_OVERSAMP_2X
 708:.\bmp280.c    ****  *       0x03               |  BMP280_OVERSAMP_4X
 709:.\bmp280.c    ****  *       0x04               |  BMP280_OVERSAMP_8X
 710:.\bmp280.c    ****  *       0x05,0x06 and 0x07 |  BMP280_OVERSAMP_16X
 711:.\bmp280.c    ****  *
 712:.\bmp280.c    ****  *
 713:.\bmp280.c    ****  *  @param  v_value_u8 : The value of pressure over sampling
 714:.\bmp280.c    ****  *
 715:.\bmp280.c    ****  *
 716:.\bmp280.c    ****  *
 717:.\bmp280.c    ****  *  @return results of bus communication function
 718:.\bmp280.c    ****  *	@retval 0 -> Success
 719:.\bmp280.c    ****  *	@retval -1 -> Error
 720:.\bmp280.c    ****  *
 721:.\bmp280.c    ****  *
 722:.\bmp280.c    ****  */
 723:.\bmp280.c    **** BMP280_RETURN_FUNCTION_TYPE bmp280_set_oversamp_pressure(u8 v_value_u8)
 724:.\bmp280.c    **** {
 1165              		.loc 1 724 0
 1166              		.cfi_startproc
 1167              	.LVL111:
 1168 0000 F0B5     		push	{r4, r5, r6, r7, lr}
 1169              		.cfi_def_cfa_offset 20
 1170              		.cfi_offset 4, -20
 1171              		.cfi_offset 5, -16
 1172              		.cfi_offset 6, -12
 1173              		.cfi_offset 7, -8
 1174              		.cfi_offset 14, -4
 1175 0002 83B0     		sub	sp, sp, #12
 1176              		.cfi_def_cfa_offset 32
 1177 0004 051C     		mov	r5, r0
 1178              	.LVL112:
 725:.\bmp280.c    **** 	/* variable used to return communication result*/
 726:.\bmp280.c    **** 	BMP280_RETURN_FUNCTION_TYPE com_rslt = ERROR;
 727:.\bmp280.c    **** 	u8 v_data_u8 = BMP280_INIT_VALUE;
 1179              		.loc 1 727 0
 1180 0006 0022     		mov	r2, #0
 1181 0008 6B46     		mov	r3, sp
 1182 000a DA71     		strb	r2, [r3, #7]
 728:.\bmp280.c    **** 	/* check the p_bmp280 structure pointer as NULL*/
 729:.\bmp280.c    **** 	if (p_bmp280 == BMP280_NULL) {
 1183              		.loc 1 729 0
 1184 000c 134B     		ldr	r3, .L64
 1185 000e 1B68     		ldr	r3, [r3]
 1186 0010 002B     		cmp	r3, #0
 1187 0012 1FD0     		beq	.L63
 730:.\bmp280.c    **** 		com_rslt = E_BMP280_NULL_PTR;
 731:.\bmp280.c    **** 	} else {
 732:.\bmp280.c    **** 		com_rslt = p_bmp280->BMP280_BUS_READ_FUNC(p_bmp280->dev_addr,
 1188              		.loc 1 732 0
 1189 0014 5C6A     		ldr	r4, [r3, #36]
 1190 0016 587F     		ldrb	r0, [r3, #29]
 1191              	.LVL113:
 1192 0018 F421     		mov	r1, #244
 1193 001a 6B46     		mov	r3, sp
 1194 001c DA1D     		add	r2, r3, #7
 1195 001e 0123     		mov	r3, #1
ARM GAS  C:\Users\Svilen\AppData\Local\Temp\ccFr0ira.s 			page 36


 1196 0020 A047     		blx	r4
 1197              	.LVL114:
 1198 0022 041E     		sub	r4, r0, #0
 1199              	.LVL115:
 733:.\bmp280.c    **** 				BMP280_CTRL_MEAS_REG_OVERSAMP_PRESSURE__REG,
 734:.\bmp280.c    **** 				&v_data_u8, BMP280_GEN_READ_WRITE_DATA_LENGTH);
 735:.\bmp280.c    **** 		if (com_rslt == SUCCESS) {
 1200              		.loc 1 735 0
 1201 0024 17D1     		bne	.L62
 736:.\bmp280.c    **** 			/* write pressure over sampling */
 737:.\bmp280.c    **** 			v_data_u8 = BMP280_SET_BITSLICE(v_data_u8,
 1202              		.loc 1 737 0
 1203 0026 A900     		lsl	r1, r5, #2
 1204 0028 6B46     		mov	r3, sp
 1205 002a DA1D     		add	r2, r3, #7
 1206 002c 1378     		ldrb	r3, [r2]
 1207 002e 1C30     		add	r0, r0, #28
 1208 0030 8343     		bic	r3, r0
 1209 0032 181C     		mov	r0, r3
 1210 0034 1C23     		mov	r3, #28
 1211 0036 0B40     		and	r3, r1
 1212 0038 0343     		orr	r3, r0
 1213 003a 1370     		strb	r3, [r2]
 738:.\bmp280.c    **** 					BMP280_CTRL_MEAS_REG_OVERSAMP_PRESSURE,
 739:.\bmp280.c    **** 					v_value_u8);
 740:.\bmp280.c    **** 			com_rslt += p_bmp280->BMP280_BUS_WRITE_FUNC(
 1214              		.loc 1 740 0
 1215 003c 074E     		ldr	r6, .L64
 1216 003e 3368     		ldr	r3, [r6]
 1217 0040 1F6A     		ldr	r7, [r3, #32]
 1218 0042 587F     		ldrb	r0, [r3, #29]
 1219 0044 F421     		mov	r1, #244
 1220 0046 0123     		mov	r3, #1
 1221 0048 B847     		blx	r7
 1222              	.LVL116:
 1223 004a 0019     		add	r0, r0, r4
 1224 004c C0B2     		uxtb	r0, r0
 1225              	.LVL117:
 741:.\bmp280.c    **** 				p_bmp280->dev_addr,
 742:.\bmp280.c    **** 				BMP280_CTRL_MEAS_REG_OVERSAMP_PRESSURE__REG,
 743:.\bmp280.c    **** 				&v_data_u8,
 744:.\bmp280.c    **** 				BMP280_GEN_READ_WRITE_DATA_LENGTH);
 745:.\bmp280.c    **** 
 746:.\bmp280.c    **** 			p_bmp280->oversamp_pressure = v_value_u8;
 1226              		.loc 1 746 0
 1227 004e 3368     		ldr	r3, [r6]
 1228 0050 DD77     		strb	r5, [r3, #31]
 1229 0052 00E0     		b	.L62
 1230              	.LVL118:
 1231              	.L63:
 730:.\bmp280.c    **** 	} else {
 1232              		.loc 1 730 0
 1233 0054 8120     		mov	r0, #129
 1234              	.LVL119:
 1235              	.L62:
 747:.\bmp280.c    **** 		}
 748:.\bmp280.c    **** 	}
ARM GAS  C:\Users\Svilen\AppData\Local\Temp\ccFr0ira.s 			page 37


 749:.\bmp280.c    **** 	return com_rslt;
 1236              		.loc 1 749 0
 1237 0056 40B2     		sxtb	r0, r0
 750:.\bmp280.c    **** }
 1238              		.loc 1 750 0
 1239 0058 03B0     		add	sp, sp, #12
 1240              		@ sp needed
 1241 005a F0BD     		pop	{r4, r5, r6, r7, pc}
 1242              	.L65:
 1243              		.align	2
 1244              	.L64:
 1245 005c 00000000 		.word	.LANCHOR0
 1246              		.cfi_endproc
 1247              	.LFE11:
 1248              		.size	bmp280_set_oversamp_pressure, .-bmp280_set_oversamp_pressure
 1249              		.section	.text.bmp280_get_power_mode,"ax",%progbits
 1250              		.align	2
 1251              		.global	bmp280_get_power_mode
 1252              		.code	16
 1253              		.thumb_func
 1254              		.type	bmp280_get_power_mode, %function
 1255              	bmp280_get_power_mode:
 1256              	.LFB12:
 751:.\bmp280.c    **** /*!
 752:.\bmp280.c    ****  *	@brief This API used to get the
 753:.\bmp280.c    ****  *	Operational Mode from the sensor in the register 0xF4 bit 0 and 1
 754:.\bmp280.c    ****  *
 755:.\bmp280.c    ****  *
 756:.\bmp280.c    ****  *
 757:.\bmp280.c    ****  *	@param v_power_mode_u8 : The value of power mode value
 758:.\bmp280.c    ****  *  value            |   Power mode
 759:.\bmp280.c    ****  * ------------------|------------------
 760:.\bmp280.c    ****  *	0x00             | BMP280_SLEEP_MODE
 761:.\bmp280.c    ****  *	0x01 and 0x02    | BMP280_FORCED_MODE
 762:.\bmp280.c    ****  *	0x03             | BMP280_NORMAL_MODE
 763:.\bmp280.c    ****  *
 764:.\bmp280.c    ****  *  @return results of bus communication function
 765:.\bmp280.c    ****  *	@retval 0 -> Success
 766:.\bmp280.c    ****  *	@retval -1 -> Error
 767:.\bmp280.c    ****  *
 768:.\bmp280.c    ****  *
 769:.\bmp280.c    ****  */
 770:.\bmp280.c    **** BMP280_RETURN_FUNCTION_TYPE bmp280_get_power_mode(u8 *v_power_mode_u8)
 771:.\bmp280.c    **** {
 1257              		.loc 1 771 0
 1258              		.cfi_startproc
 1259              	.LVL120:
 1260 0000 70B5     		push	{r4, r5, r6, lr}
 1261              		.cfi_def_cfa_offset 16
 1262              		.cfi_offset 4, -16
 1263              		.cfi_offset 5, -12
 1264              		.cfi_offset 6, -8
 1265              		.cfi_offset 14, -4
 1266 0002 82B0     		sub	sp, sp, #8
 1267              		.cfi_def_cfa_offset 24
 1268              	.LVL121:
 772:.\bmp280.c    **** 	/* variable used to return communication result*/
ARM GAS  C:\Users\Svilen\AppData\Local\Temp\ccFr0ira.s 			page 38


 773:.\bmp280.c    **** 	BMP280_RETURN_FUNCTION_TYPE com_rslt = ERROR;
 774:.\bmp280.c    **** 	u8 v_mode_u8 = BMP280_INIT_VALUE;
 1269              		.loc 1 774 0
 1270 0004 0022     		mov	r2, #0
 1271 0006 6B46     		mov	r3, sp
 1272 0008 DA71     		strb	r2, [r3, #7]
 775:.\bmp280.c    **** 	/* check the p_bmp280 structure pointer as NULL*/
 776:.\bmp280.c    **** 	if (p_bmp280 == BMP280_NULL) {
 1273              		.loc 1 776 0
 1274 000a 0B4B     		ldr	r3, .L69
 1275 000c 1B68     		ldr	r3, [r3]
 1276 000e 002B     		cmp	r3, #0
 1277 0010 0DD0     		beq	.L68
 1278 0012 051C     		mov	r5, r0
 777:.\bmp280.c    **** 		com_rslt = E_BMP280_NULL_PTR;
 778:.\bmp280.c    **** 	} else {
 779:.\bmp280.c    **** 		/* read the power mode*/
 780:.\bmp280.c    **** 		com_rslt = p_bmp280->BMP280_BUS_READ_FUNC(p_bmp280->dev_addr,
 1279              		.loc 1 780 0
 1280 0014 5E6A     		ldr	r6, [r3, #36]
 1281 0016 587F     		ldrb	r0, [r3, #29]
 1282              	.LVL122:
 1283 0018 6B46     		mov	r3, sp
 1284 001a DC1D     		add	r4, r3, #7
 1285 001c F421     		mov	r1, #244
 1286 001e 221C     		mov	r2, r4
 1287 0020 0123     		mov	r3, #1
 1288 0022 B047     		blx	r6
 1289              	.LVL123:
 781:.\bmp280.c    **** 				BMP280_CTRL_MEAS_REG_POWER_MODE__REG,
 782:.\bmp280.c    **** 				&v_mode_u8, BMP280_GEN_READ_WRITE_DATA_LENGTH);
 783:.\bmp280.c    **** 		*v_power_mode_u8 = BMP280_GET_BITSLICE(v_mode_u8,
 1290              		.loc 1 783 0
 1291 0024 2378     		ldrb	r3, [r4]
 1292 0026 0322     		mov	r2, #3
 1293 0028 1340     		and	r3, r2
 1294 002a 2B70     		strb	r3, [r5]
 1295 002c 00E0     		b	.L67
 1296              	.LVL124:
 1297              	.L68:
 777:.\bmp280.c    **** 		com_rslt = E_BMP280_NULL_PTR;
 1298              		.loc 1 777 0
 1299 002e 8120     		mov	r0, #129
 1300              	.LVL125:
 1301              	.L67:
 784:.\bmp280.c    **** 				BMP280_CTRL_MEAS_REG_POWER_MODE);
 785:.\bmp280.c    **** 	}
 786:.\bmp280.c    **** 	return com_rslt;
 1302              		.loc 1 786 0
 1303 0030 40B2     		sxtb	r0, r0
 787:.\bmp280.c    **** }
 1304              		.loc 1 787 0
 1305 0032 02B0     		add	sp, sp, #8
 1306              		@ sp needed
 1307 0034 70BD     		pop	{r4, r5, r6, pc}
 1308              	.L70:
 1309 0036 C046     		.align	2
ARM GAS  C:\Users\Svilen\AppData\Local\Temp\ccFr0ira.s 			page 39


 1310              	.L69:
 1311 0038 00000000 		.word	.LANCHOR0
 1312              		.cfi_endproc
 1313              	.LFE12:
 1314              		.size	bmp280_get_power_mode, .-bmp280_get_power_mode
 1315              		.section	.text.bmp280_set_power_mode,"ax",%progbits
 1316              		.align	2
 1317              		.global	bmp280_set_power_mode
 1318              		.code	16
 1319              		.thumb_func
 1320              		.type	bmp280_set_power_mode, %function
 1321              	bmp280_set_power_mode:
 1322              	.LFB13:
 788:.\bmp280.c    **** /*!
 789:.\bmp280.c    ****  *	@brief This API used to set the
 790:.\bmp280.c    ****  *	Operational Mode from the sensor in the register 0xF4 bit 0 and 1
 791:.\bmp280.c    ****  *
 792:.\bmp280.c    ****  *
 793:.\bmp280.c    ****  *
 794:.\bmp280.c    ****  *	@param v_power_mode_u8 : The value of power mode value
 795:.\bmp280.c    ****  *  value            |   Power mode
 796:.\bmp280.c    ****  * ------------------|------------------
 797:.\bmp280.c    ****  *	0x00             | BMP280_SLEEP_MODE
 798:.\bmp280.c    ****  *	0x01 and 0x02    | BMP280_FORCED_MODE
 799:.\bmp280.c    ****  *	0x03             | BMP280_NORMAL_MODE
 800:.\bmp280.c    ****  *
 801:.\bmp280.c    ****  *  @return results of bus communication function
 802:.\bmp280.c    ****  *	@retval 0 -> Success
 803:.\bmp280.c    ****  *	@retval -1 -> Error
 804:.\bmp280.c    ****  *
 805:.\bmp280.c    ****  *
 806:.\bmp280.c    ****  */
 807:.\bmp280.c    **** BMP280_RETURN_FUNCTION_TYPE bmp280_set_power_mode(u8 v_power_mode_u8)
 808:.\bmp280.c    **** {
 1323              		.loc 1 808 0
 1324              		.cfi_startproc
 1325              	.LVL126:
 1326 0000 10B5     		push	{r4, lr}
 1327              		.cfi_def_cfa_offset 8
 1328              		.cfi_offset 4, -8
 1329              		.cfi_offset 14, -4
 1330 0002 82B0     		sub	sp, sp, #8
 1331              		.cfi_def_cfa_offset 16
 1332              	.LVL127:
 809:.\bmp280.c    **** 	/* variable used to return communication result*/
 810:.\bmp280.c    **** 	BMP280_RETURN_FUNCTION_TYPE com_rslt = ERROR;
 811:.\bmp280.c    **** 	u8 v_mode_u8 = BMP280_INIT_VALUE;
 1333              		.loc 1 811 0
 1334 0004 0022     		mov	r2, #0
 1335 0006 6B46     		mov	r3, sp
 1336 0008 DA71     		strb	r2, [r3, #7]
 812:.\bmp280.c    **** 	/* check the p_bmp280 structure pointer as NULL*/
 813:.\bmp280.c    **** 	if (p_bmp280 == BMP280_NULL) {
 1337              		.loc 1 813 0
 1338 000a 0D4B     		ldr	r3, .L75
 1339 000c 1968     		ldr	r1, [r3]
 1340 000e 0029     		cmp	r1, #0
ARM GAS  C:\Users\Svilen\AppData\Local\Temp\ccFr0ira.s 			page 40


 1341 0010 10D0     		beq	.L73
 814:.\bmp280.c    **** 		com_rslt = E_BMP280_NULL_PTR;
 815:.\bmp280.c    **** 	} else {
 816:.\bmp280.c    **** 		if (v_power_mode_u8 <= BMP280_NORMAL_MODE) {
 1342              		.loc 1 816 0
 1343 0012 0328     		cmp	r0, #3
 1344 0014 10D8     		bhi	.L74
 817:.\bmp280.c    **** 			/* write the power mode*/
 818:.\bmp280.c    **** 			v_mode_u8 = (p_bmp280->oversamp_temperature
 1345              		.loc 1 818 0
 1346 0016 8C7F     		ldrb	r4, [r1, #30]
 819:.\bmp280.c    **** 					<< BMP280_SHIFT_BIT_POSITION_BY_05_BITS)
 820:.\bmp280.c    **** 					+ (p_bmp280->oversamp_pressure
 1347              		.loc 1 820 0
 1348 0018 CB7F     		ldrb	r3, [r1, #31]
 818:.\bmp280.c    **** 					<< BMP280_SHIFT_BIT_POSITION_BY_05_BITS)
 1349              		.loc 1 818 0
 1350 001a 6A46     		mov	r2, sp
 1351 001c 0732     		add	r2, r2, #7
 1352 001e 6401     		lsl	r4, r4, #5
 1353 0020 9B00     		lsl	r3, r3, #2
 1354 0022 E318     		add	r3, r4, r3
 1355 0024 C018     		add	r0, r0, r3
 1356              	.LVL128:
 1357 0026 1070     		strb	r0, [r2]
 821:.\bmp280.c    **** 					<< BMP280_SHIFT_BIT_POSITION_BY_02_BITS)
 822:.\bmp280.c    **** 					+ v_power_mode_u8;
 823:.\bmp280.c    **** 			com_rslt = p_bmp280->BMP280_BUS_WRITE_FUNC(
 1358              		.loc 1 823 0
 1359 0028 0C6A     		ldr	r4, [r1, #32]
 1360 002a 487F     		ldrb	r0, [r1, #29]
 1361 002c F421     		mov	r1, #244
 1362 002e 0123     		mov	r3, #1
 1363 0030 A047     		blx	r4
 1364              	.LVL129:
 1365 0032 02E0     		b	.L72
 1366              	.LVL130:
 1367              	.L73:
 814:.\bmp280.c    **** 	} else {
 1368              		.loc 1 814 0
 1369 0034 8120     		mov	r0, #129
 1370              	.LVL131:
 1371 0036 00E0     		b	.L72
 1372              	.LVL132:
 1373              	.L74:
 824:.\bmp280.c    **** 					p_bmp280->dev_addr,
 825:.\bmp280.c    **** 					BMP280_CTRL_MEAS_REG_POWER_MODE__REG,
 826:.\bmp280.c    **** 					&v_mode_u8,
 827:.\bmp280.c    **** 					BMP280_GEN_READ_WRITE_DATA_LENGTH);
 828:.\bmp280.c    **** 		} else {
 829:.\bmp280.c    **** 			com_rslt = E_BMP280_OUT_OF_RANGE;
 1374              		.loc 1 829 0
 1375 0038 FE20     		mov	r0, #254
 1376              	.LVL133:
 1377              	.L72:
 830:.\bmp280.c    **** 		}
 831:.\bmp280.c    **** 	}
ARM GAS  C:\Users\Svilen\AppData\Local\Temp\ccFr0ira.s 			page 41


 832:.\bmp280.c    **** 	return com_rslt;
 1378              		.loc 1 832 0
 1379 003a 40B2     		sxtb	r0, r0
 833:.\bmp280.c    **** }
 1380              		.loc 1 833 0
 1381 003c 02B0     		add	sp, sp, #8
 1382              		@ sp needed
 1383 003e 10BD     		pop	{r4, pc}
 1384              	.L76:
 1385              		.align	2
 1386              	.L75:
 1387 0040 00000000 		.word	.LANCHOR0
 1388              		.cfi_endproc
 1389              	.LFE13:
 1390              		.size	bmp280_set_power_mode, .-bmp280_set_power_mode
 1391              		.section	.text.bmp280_set_soft_rst,"ax",%progbits
 1392              		.align	2
 1393              		.global	bmp280_set_soft_rst
 1394              		.code	16
 1395              		.thumb_func
 1396              		.type	bmp280_set_soft_rst, %function
 1397              	bmp280_set_soft_rst:
 1398              	.LFB14:
 834:.\bmp280.c    **** /*!
 835:.\bmp280.c    ****  * @brief Used to reset the sensor
 836:.\bmp280.c    ****  * The value 0xB6 is written to the 0xE0 register
 837:.\bmp280.c    ****  * the device is reset using the
 838:.\bmp280.c    ****  * complete power-on-reset procedure.
 839:.\bmp280.c    ****  * Soft reset can be easily set using bmp280_set_softreset().
 840:.\bmp280.c    ****  *
 841:.\bmp280.c    ****  * @note Usage Hint : bmp280_set_softreset()
 842:.\bmp280.c    ****  *
 843:.\bmp280.c    ****  *
 844:.\bmp280.c    ****  *  @return results of bus communication function
 845:.\bmp280.c    ****  *	@retval 0 -> Success
 846:.\bmp280.c    ****  *	@retval -1 -> Error
 847:.\bmp280.c    ****  *
 848:.\bmp280.c    ****  *
 849:.\bmp280.c    ****  */
 850:.\bmp280.c    **** BMP280_RETURN_FUNCTION_TYPE bmp280_set_soft_rst(void)
 851:.\bmp280.c    **** {
 1399              		.loc 1 851 0
 1400              		.cfi_startproc
 1401 0000 10B5     		push	{r4, lr}
 1402              		.cfi_def_cfa_offset 8
 1403              		.cfi_offset 4, -8
 1404              		.cfi_offset 14, -4
 1405 0002 82B0     		sub	sp, sp, #8
 1406              		.cfi_def_cfa_offset 16
 1407              	.LVL134:
 852:.\bmp280.c    **** 	/* variable used to return communication result*/
 853:.\bmp280.c    **** 	BMP280_RETURN_FUNCTION_TYPE com_rslt = ERROR;
 854:.\bmp280.c    **** 	u8 v_data_u8 = BMP280_SOFT_RESET_CODE;
 1408              		.loc 1 854 0
 1409 0004 B622     		mov	r2, #182
 1410 0006 6B46     		mov	r3, sp
 1411 0008 DA71     		strb	r2, [r3, #7]
ARM GAS  C:\Users\Svilen\AppData\Local\Temp\ccFr0ira.s 			page 42


 855:.\bmp280.c    **** 	/* check the p_bmp280 structure pointer as NULL*/
 856:.\bmp280.c    **** 	if (p_bmp280 == BMP280_NULL) {
 1412              		.loc 1 856 0
 1413 000a 084B     		ldr	r3, .L80
 1414 000c 1B68     		ldr	r3, [r3]
 1415 000e 002B     		cmp	r3, #0
 1416 0010 07D0     		beq	.L79
 857:.\bmp280.c    **** 		com_rslt = E_BMP280_NULL_PTR;
 858:.\bmp280.c    **** 	} else {
 859:.\bmp280.c    **** 		/* write soft reset */
 860:.\bmp280.c    **** 		com_rslt = p_bmp280->BMP280_BUS_WRITE_FUNC(p_bmp280->dev_addr,
 1417              		.loc 1 860 0
 1418 0012 1C6A     		ldr	r4, [r3, #32]
 1419 0014 587F     		ldrb	r0, [r3, #29]
 1420 0016 E021     		mov	r1, #224
 1421 0018 6B46     		mov	r3, sp
 1422 001a DA1D     		add	r2, r3, #7
 1423 001c 0123     		mov	r3, #1
 1424 001e A047     		blx	r4
 1425              	.LVL135:
 1426 0020 00E0     		b	.L78
 1427              	.LVL136:
 1428              	.L79:
 857:.\bmp280.c    **** 		com_rslt = E_BMP280_NULL_PTR;
 1429              		.loc 1 857 0
 1430 0022 8120     		mov	r0, #129
 1431              	.LVL137:
 1432              	.L78:
 861:.\bmp280.c    **** 				BMP280_RST_REG, &v_data_u8,
 862:.\bmp280.c    **** 				BMP280_GEN_READ_WRITE_DATA_LENGTH);
 863:.\bmp280.c    **** 	}
 864:.\bmp280.c    **** 	return com_rslt;
 1433              		.loc 1 864 0
 1434 0024 40B2     		sxtb	r0, r0
 865:.\bmp280.c    **** }
 1435              		.loc 1 865 0
 1436 0026 02B0     		add	sp, sp, #8
 1437              		@ sp needed
 1438 0028 10BD     		pop	{r4, pc}
 1439              	.L81:
 1440 002a C046     		.align	2
 1441              	.L80:
 1442 002c 00000000 		.word	.LANCHOR0
 1443              		.cfi_endproc
 1444              	.LFE14:
 1445              		.size	bmp280_set_soft_rst, .-bmp280_set_soft_rst
 1446              		.section	.text.bmp280_get_spi3,"ax",%progbits
 1447              		.align	2
 1448              		.global	bmp280_get_spi3
 1449              		.code	16
 1450              		.thumb_func
 1451              		.type	bmp280_get_spi3, %function
 1452              	bmp280_get_spi3:
 1453              	.LFB15:
 866:.\bmp280.c    **** /*!
 867:.\bmp280.c    ****  *	@brief This API used to get the sensor
 868:.\bmp280.c    ****  *	SPI mode(communication type) in the register 0xF5 bit 0
ARM GAS  C:\Users\Svilen\AppData\Local\Temp\ccFr0ira.s 			page 43


 869:.\bmp280.c    ****  *
 870:.\bmp280.c    ****  *
 871:.\bmp280.c    ****  *
 872:.\bmp280.c    ****  *	@param v_enable_disable_u8 : The spi3 enable or disable state
 873:.\bmp280.c    ****  *    value    | Description
 874:.\bmp280.c    ****  *  -----------|---------------
 875:.\bmp280.c    ****  *     0       | Disable
 876:.\bmp280.c    ****  *     1       | Enable
 877:.\bmp280.c    ****  *
 878:.\bmp280.c    ****  *
 879:.\bmp280.c    ****  *
 880:.\bmp280.c    ****  *  @return results of bus communication function
 881:.\bmp280.c    ****  *	@retval 0 -> Success
 882:.\bmp280.c    ****  *	@retval -1 -> Error
 883:.\bmp280.c    ****  *
 884:.\bmp280.c    ****  *
 885:.\bmp280.c    ****  */
 886:.\bmp280.c    **** BMP280_RETURN_FUNCTION_TYPE bmp280_get_spi3(u8 *v_enable_disable_u8)
 887:.\bmp280.c    **** {
 1454              		.loc 1 887 0
 1455              		.cfi_startproc
 1456              	.LVL138:
 1457 0000 70B5     		push	{r4, r5, r6, lr}
 1458              		.cfi_def_cfa_offset 16
 1459              		.cfi_offset 4, -16
 1460              		.cfi_offset 5, -12
 1461              		.cfi_offset 6, -8
 1462              		.cfi_offset 14, -4
 1463 0002 82B0     		sub	sp, sp, #8
 1464              		.cfi_def_cfa_offset 24
 1465              	.LVL139:
 888:.\bmp280.c    **** 	/* variable used to return communication result*/
 889:.\bmp280.c    **** 	BMP280_RETURN_FUNCTION_TYPE com_rslt = ERROR;
 890:.\bmp280.c    **** 	u8 v_data_u8 = BMP280_INIT_VALUE;
 1466              		.loc 1 890 0
 1467 0004 0022     		mov	r2, #0
 1468 0006 6B46     		mov	r3, sp
 1469 0008 DA71     		strb	r2, [r3, #7]
 891:.\bmp280.c    **** 	/* check the p_bmp280 structure pointer as NULL*/
 892:.\bmp280.c    **** 	if (p_bmp280 == BMP280_NULL) {
 1470              		.loc 1 892 0
 1471 000a 0B4B     		ldr	r3, .L85
 1472 000c 1B68     		ldr	r3, [r3]
 1473 000e 002B     		cmp	r3, #0
 1474 0010 0DD0     		beq	.L84
 1475 0012 051C     		mov	r5, r0
 893:.\bmp280.c    **** 		com_rslt = E_BMP280_NULL_PTR;
 894:.\bmp280.c    **** 	} else {
 895:.\bmp280.c    **** 		com_rslt = p_bmp280->BMP280_BUS_READ_FUNC(p_bmp280->dev_addr,
 1476              		.loc 1 895 0
 1477 0014 5E6A     		ldr	r6, [r3, #36]
 1478 0016 587F     		ldrb	r0, [r3, #29]
 1479              	.LVL140:
 1480 0018 6B46     		mov	r3, sp
 1481 001a DC1D     		add	r4, r3, #7
 1482 001c F521     		mov	r1, #245
 1483 001e 221C     		mov	r2, r4
ARM GAS  C:\Users\Svilen\AppData\Local\Temp\ccFr0ira.s 			page 44


 1484 0020 0123     		mov	r3, #1
 1485 0022 B047     		blx	r6
 1486              	.LVL141:
 896:.\bmp280.c    **** 				BMP280_CONFIG_REG_SPI3_ENABLE__REG, &v_data_u8,
 897:.\bmp280.c    **** 				BMP280_GEN_READ_WRITE_DATA_LENGTH);
 898:.\bmp280.c    **** 		*v_enable_disable_u8 = BMP280_GET_BITSLICE(v_data_u8,
 1487              		.loc 1 898 0
 1488 0024 2378     		ldrb	r3, [r4]
 1489 0026 0122     		mov	r2, #1
 1490 0028 1340     		and	r3, r2
 1491 002a 2B70     		strb	r3, [r5]
 1492 002c 00E0     		b	.L83
 1493              	.LVL142:
 1494              	.L84:
 893:.\bmp280.c    **** 		com_rslt = E_BMP280_NULL_PTR;
 1495              		.loc 1 893 0
 1496 002e 8120     		mov	r0, #129
 1497              	.LVL143:
 1498              	.L83:
 899:.\bmp280.c    **** 				BMP280_CONFIG_REG_SPI3_ENABLE);
 900:.\bmp280.c    **** 	}
 901:.\bmp280.c    **** 	return com_rslt;
 1499              		.loc 1 901 0
 1500 0030 40B2     		sxtb	r0, r0
 902:.\bmp280.c    **** }
 1501              		.loc 1 902 0
 1502 0032 02B0     		add	sp, sp, #8
 1503              		@ sp needed
 1504 0034 70BD     		pop	{r4, r5, r6, pc}
 1505              	.L86:
 1506 0036 C046     		.align	2
 1507              	.L85:
 1508 0038 00000000 		.word	.LANCHOR0
 1509              		.cfi_endproc
 1510              	.LFE15:
 1511              		.size	bmp280_get_spi3, .-bmp280_get_spi3
 1512              		.section	.text.bmp280_set_spi3,"ax",%progbits
 1513              		.align	2
 1514              		.global	bmp280_set_spi3
 1515              		.code	16
 1516              		.thumb_func
 1517              		.type	bmp280_set_spi3, %function
 1518              	bmp280_set_spi3:
 1519              	.LFB16:
 903:.\bmp280.c    **** /*!
 904:.\bmp280.c    ****  *	@brief This API used to set the sensor
 905:.\bmp280.c    ****  *	SPI mode(communication type) in the register 0xF5 bit 0
 906:.\bmp280.c    ****  *
 907:.\bmp280.c    ****  *
 908:.\bmp280.c    ****  *
 909:.\bmp280.c    ****  *	@param v_enable_disable_u8 : The spi3 enable or disable state
 910:.\bmp280.c    ****  *    value    | Description
 911:.\bmp280.c    ****  *  -----------|---------------
 912:.\bmp280.c    ****  *     0       | Disable
 913:.\bmp280.c    ****  *     1       | Enable
 914:.\bmp280.c    ****  *
 915:.\bmp280.c    ****  *
ARM GAS  C:\Users\Svilen\AppData\Local\Temp\ccFr0ira.s 			page 45


 916:.\bmp280.c    ****  *
 917:.\bmp280.c    ****  *  @return results of bus communication function
 918:.\bmp280.c    ****  *	@retval 0 -> Success
 919:.\bmp280.c    ****  *	@retval -1 -> Error
 920:.\bmp280.c    ****  *
 921:.\bmp280.c    ****  *
 922:.\bmp280.c    ****  */
 923:.\bmp280.c    **** BMP280_RETURN_FUNCTION_TYPE bmp280_set_spi3(u8 v_enable_disable_u8)
 924:.\bmp280.c    **** {
 1520              		.loc 1 924 0
 1521              		.cfi_startproc
 1522              	.LVL144:
 1523 0000 30B5     		push	{r4, r5, lr}
 1524              		.cfi_def_cfa_offset 12
 1525              		.cfi_offset 4, -12
 1526              		.cfi_offset 5, -8
 1527              		.cfi_offset 14, -4
 1528 0002 83B0     		sub	sp, sp, #12
 1529              		.cfi_def_cfa_offset 24
 1530              	.LVL145:
 925:.\bmp280.c    **** 	/* variable used to return communication result*/
 926:.\bmp280.c    **** 	BMP280_RETURN_FUNCTION_TYPE com_rslt = ERROR;
 927:.\bmp280.c    **** 	u8 v_data_u8 = BMP280_INIT_VALUE;
 1531              		.loc 1 927 0
 1532 0004 0022     		mov	r2, #0
 1533 0006 6B46     		mov	r3, sp
 1534 0008 DA71     		strb	r2, [r3, #7]
 928:.\bmp280.c    **** 	/* check the p_bmp280 structure pointer as NULL*/
 929:.\bmp280.c    **** 	if (p_bmp280 == BMP280_NULL) {
 1535              		.loc 1 929 0
 1536 000a 134B     		ldr	r3, .L90
 1537 000c 1B68     		ldr	r3, [r3]
 1538 000e 002B     		cmp	r3, #0
 1539 0010 1ED0     		beq	.L89
 1540 0012 051C     		mov	r5, r0
 930:.\bmp280.c    **** 		com_rslt = E_BMP280_NULL_PTR;
 931:.\bmp280.c    **** 	} else {
 932:.\bmp280.c    **** 		com_rslt = p_bmp280->BMP280_BUS_READ_FUNC(p_bmp280->dev_addr,
 1541              		.loc 1 932 0
 1542 0014 5C6A     		ldr	r4, [r3, #36]
 1543 0016 587F     		ldrb	r0, [r3, #29]
 1544              	.LVL146:
 1545 0018 F521     		mov	r1, #245
 1546 001a 6B46     		mov	r3, sp
 1547 001c DA1D     		add	r2, r3, #7
 1548 001e 0123     		mov	r3, #1
 1549 0020 A047     		blx	r4
 1550              	.LVL147:
 1551 0022 041C     		mov	r4, r0
 1552 0024 031E     		sub	r3, r0, #0
 1553              	.LVL148:
 933:.\bmp280.c    **** 				BMP280_CONFIG_REG_SPI3_ENABLE__REG, &v_data_u8,
 934:.\bmp280.c    **** 				BMP280_GEN_READ_WRITE_DATA_LENGTH);
 935:.\bmp280.c    **** 		if (com_rslt == SUCCESS) {
 1554              		.loc 1 935 0
 1555 0026 14D1     		bne	.L88
 936:.\bmp280.c    **** 			v_data_u8 = BMP280_SET_BITSLICE(v_data_u8,
ARM GAS  C:\Users\Svilen\AppData\Local\Temp\ccFr0ira.s 			page 46


 1556              		.loc 1 936 0
 1557 0028 6B46     		mov	r3, sp
 1558 002a DA1D     		add	r2, r3, #7
 1559 002c 1078     		ldrb	r0, [r2]
 1560              	.LVL149:
 1561 002e 0123     		mov	r3, #1
 1562 0030 9843     		bic	r0, r3
 1563 0032 031C     		mov	r3, r0
 1564 0034 0120     		mov	r0, #1
 1565 0036 2840     		and	r0, r5
 1566 0038 1843     		orr	r0, r3
 1567 003a 1070     		strb	r0, [r2]
 937:.\bmp280.c    **** 					BMP280_CONFIG_REG_SPI3_ENABLE,
 938:.\bmp280.c    **** 					v_enable_disable_u8);
 939:.\bmp280.c    **** 			com_rslt += p_bmp280->BMP280_BUS_WRITE_FUNC(
 1568              		.loc 1 939 0
 1569 003c 064B     		ldr	r3, .L90
 1570 003e 1B68     		ldr	r3, [r3]
 1571 0040 1D6A     		ldr	r5, [r3, #32]
 1572 0042 587F     		ldrb	r0, [r3, #29]
 1573 0044 F521     		mov	r1, #245
 1574 0046 0123     		mov	r3, #1
 1575 0048 A847     		blx	r5
 1576              	.LVL150:
 1577 004a 0319     		add	r3, r0, r4
 1578 004c DBB2     		uxtb	r3, r3
 1579              	.LVL151:
 1580 004e 00E0     		b	.L88
 1581              	.LVL152:
 1582              	.L89:
 930:.\bmp280.c    **** 	} else {
 1583              		.loc 1 930 0
 1584 0050 8123     		mov	r3, #129
 1585              	.LVL153:
 1586              	.L88:
 940:.\bmp280.c    **** 					p_bmp280->dev_addr,
 941:.\bmp280.c    **** 					BMP280_CONFIG_REG_SPI3_ENABLE__REG,
 942:.\bmp280.c    **** 					&v_data_u8,
 943:.\bmp280.c    **** 					BMP280_GEN_READ_WRITE_DATA_LENGTH);
 944:.\bmp280.c    **** 		}
 945:.\bmp280.c    **** 	}
 946:.\bmp280.c    **** 	return com_rslt;
 1587              		.loc 1 946 0
 1588 0052 58B2     		sxtb	r0, r3
 947:.\bmp280.c    **** }
 1589              		.loc 1 947 0
 1590 0054 03B0     		add	sp, sp, #12
 1591              		@ sp needed
 1592 0056 30BD     		pop	{r4, r5, pc}
 1593              	.L91:
 1594              		.align	2
 1595              	.L90:
 1596 0058 00000000 		.word	.LANCHOR0
 1597              		.cfi_endproc
 1598              	.LFE16:
 1599              		.size	bmp280_set_spi3, .-bmp280_set_spi3
 1600              		.section	.text.bmp280_get_filter,"ax",%progbits
ARM GAS  C:\Users\Svilen\AppData\Local\Temp\ccFr0ira.s 			page 47


 1601              		.align	2
 1602              		.global	bmp280_get_filter
 1603              		.code	16
 1604              		.thumb_func
 1605              		.type	bmp280_get_filter, %function
 1606              	bmp280_get_filter:
 1607              	.LFB17:
 948:.\bmp280.c    **** /*!
 949:.\bmp280.c    ****  *	@brief This API is used to reads filter setting
 950:.\bmp280.c    ****  *	in the register 0xF5 bit 3 and 4
 951:.\bmp280.c    ****  *
 952:.\bmp280.c    ****  *
 953:.\bmp280.c    ****  *
 954:.\bmp280.c    ****  *	@param v_value_u8 : The value of filter coefficient
 955:.\bmp280.c    ****  *	value	    |	Filter coefficient
 956:.\bmp280.c    ****  * -------------|-------------------------
 957:.\bmp280.c    ****  *	0x00        | BMP280_FILTER_COEFF_OFF
 958:.\bmp280.c    ****  *	0x01        | BMP280_FILTER_COEFF_2
 959:.\bmp280.c    ****  *	0x02        | BMP280_FILTER_COEFF_4
 960:.\bmp280.c    ****  *	0x03        | BMP280_FILTER_COEFF_8
 961:.\bmp280.c    ****  *	0x04        | BMP280_FILTER_COEFF_16
 962:.\bmp280.c    ****  *
 963:.\bmp280.c    ****  *  @return results of bus communication function
 964:.\bmp280.c    ****  *	@retval 0 -> Success
 965:.\bmp280.c    ****  *	@retval -1 -> Error
 966:.\bmp280.c    ****  *
 967:.\bmp280.c    ****  *
 968:.\bmp280.c    ****  */
 969:.\bmp280.c    **** BMP280_RETURN_FUNCTION_TYPE bmp280_get_filter(u8 *v_value_u8)
 970:.\bmp280.c    **** {
 1608              		.loc 1 970 0
 1609              		.cfi_startproc
 1610              	.LVL154:
 1611 0000 70B5     		push	{r4, r5, r6, lr}
 1612              		.cfi_def_cfa_offset 16
 1613              		.cfi_offset 4, -16
 1614              		.cfi_offset 5, -12
 1615              		.cfi_offset 6, -8
 1616              		.cfi_offset 14, -4
 1617 0002 82B0     		sub	sp, sp, #8
 1618              		.cfi_def_cfa_offset 24
 1619              	.LVL155:
 971:.\bmp280.c    **** 	/* variable used to return communication result*/
 972:.\bmp280.c    **** 	BMP280_RETURN_FUNCTION_TYPE com_rslt = ERROR;
 973:.\bmp280.c    **** 	u8 v_data_u8 = BMP280_INIT_VALUE;
 1620              		.loc 1 973 0
 1621 0004 0022     		mov	r2, #0
 1622 0006 6B46     		mov	r3, sp
 1623 0008 DA71     		strb	r2, [r3, #7]
 974:.\bmp280.c    **** 	/* check the p_bmp280 structure pointer as NULL*/
 975:.\bmp280.c    **** 	if (p_bmp280 == BMP280_NULL) {
 1624              		.loc 1 975 0
 1625 000a 0B4B     		ldr	r3, .L95
 1626 000c 1B68     		ldr	r3, [r3]
 1627 000e 002B     		cmp	r3, #0
 1628 0010 0DD0     		beq	.L94
 1629 0012 051C     		mov	r5, r0
ARM GAS  C:\Users\Svilen\AppData\Local\Temp\ccFr0ira.s 			page 48


 976:.\bmp280.c    **** 		com_rslt = E_BMP280_NULL_PTR;
 977:.\bmp280.c    **** 	} else {
 978:.\bmp280.c    **** 		/* read filter*/
 979:.\bmp280.c    **** 		com_rslt = p_bmp280->BMP280_BUS_READ_FUNC(p_bmp280->dev_addr,
 1630              		.loc 1 979 0
 1631 0014 5E6A     		ldr	r6, [r3, #36]
 1632 0016 587F     		ldrb	r0, [r3, #29]
 1633              	.LVL156:
 1634 0018 6B46     		mov	r3, sp
 1635 001a DC1D     		add	r4, r3, #7
 1636 001c F521     		mov	r1, #245
 1637 001e 221C     		mov	r2, r4
 1638 0020 0123     		mov	r3, #1
 1639 0022 B047     		blx	r6
 1640              	.LVL157:
 980:.\bmp280.c    **** 				BMP280_CONFIG_REG_FILTER__REG, &v_data_u8,
 981:.\bmp280.c    **** 				BMP280_GEN_READ_WRITE_DATA_LENGTH);
 982:.\bmp280.c    **** 		*v_value_u8 = BMP280_GET_BITSLICE(v_data_u8,
 1641              		.loc 1 982 0
 1642 0024 2378     		ldrb	r3, [r4]
 1643 0026 DB06     		lsl	r3, r3, #27
 1644 0028 5B0F     		lsr	r3, r3, #29
 1645 002a 2B70     		strb	r3, [r5]
 1646 002c 00E0     		b	.L93
 1647              	.LVL158:
 1648              	.L94:
 976:.\bmp280.c    **** 		com_rslt = E_BMP280_NULL_PTR;
 1649              		.loc 1 976 0
 1650 002e 8120     		mov	r0, #129
 1651              	.LVL159:
 1652              	.L93:
 983:.\bmp280.c    **** 				BMP280_CONFIG_REG_FILTER);
 984:.\bmp280.c    **** 	}
 985:.\bmp280.c    **** 	return com_rslt;
 1653              		.loc 1 985 0
 1654 0030 40B2     		sxtb	r0, r0
 986:.\bmp280.c    **** }
 1655              		.loc 1 986 0
 1656 0032 02B0     		add	sp, sp, #8
 1657              		@ sp needed
 1658 0034 70BD     		pop	{r4, r5, r6, pc}
 1659              	.L96:
 1660 0036 C046     		.align	2
 1661              	.L95:
 1662 0038 00000000 		.word	.LANCHOR0
 1663              		.cfi_endproc
 1664              	.LFE17:
 1665              		.size	bmp280_get_filter, .-bmp280_get_filter
 1666              		.section	.text.bmp280_set_filter,"ax",%progbits
 1667              		.align	2
 1668              		.global	bmp280_set_filter
 1669              		.code	16
 1670              		.thumb_func
 1671              		.type	bmp280_set_filter, %function
 1672              	bmp280_set_filter:
 1673              	.LFB18:
 987:.\bmp280.c    **** /*!
ARM GAS  C:\Users\Svilen\AppData\Local\Temp\ccFr0ira.s 			page 49


 988:.\bmp280.c    ****  *	@brief This API is used to write filter setting
 989:.\bmp280.c    ****  *	in the register 0xF5 bit 3 and 4
 990:.\bmp280.c    ****  *
 991:.\bmp280.c    ****  *
 992:.\bmp280.c    ****  *
 993:.\bmp280.c    ****  *	@param v_value_u8 : The value of filter coefficient
 994:.\bmp280.c    ****  *	value	    |	Filter coefficient
 995:.\bmp280.c    ****  * -------------|-------------------------
 996:.\bmp280.c    ****  *	0x00        | BMP280_FILTER_COEFF_OFF
 997:.\bmp280.c    ****  *	0x01        | BMP280_FILTER_COEFF_2
 998:.\bmp280.c    ****  *	0x02        | BMP280_FILTER_COEFF_4
 999:.\bmp280.c    ****  *	0x03        | BMP280_FILTER_COEFF_8
1000:.\bmp280.c    ****  *	0x04        | BMP280_FILTER_COEFF_16
1001:.\bmp280.c    ****  *
1002:.\bmp280.c    ****  *  @return results of bus communication function
1003:.\bmp280.c    ****  *	@retval 0 -> Success
1004:.\bmp280.c    ****  *	@retval -1 -> Error
1005:.\bmp280.c    ****  *
1006:.\bmp280.c    ****  *
1007:.\bmp280.c    ****  */
1008:.\bmp280.c    **** BMP280_RETURN_FUNCTION_TYPE bmp280_set_filter(u8 v_value_u8)
1009:.\bmp280.c    **** {
 1674              		.loc 1 1009 0
 1675              		.cfi_startproc
 1676              	.LVL160:
 1677 0000 30B5     		push	{r4, r5, lr}
 1678              		.cfi_def_cfa_offset 12
 1679              		.cfi_offset 4, -12
 1680              		.cfi_offset 5, -8
 1681              		.cfi_offset 14, -4
 1682 0002 83B0     		sub	sp, sp, #12
 1683              		.cfi_def_cfa_offset 24
 1684              	.LVL161:
1010:.\bmp280.c    **** 	BMP280_RETURN_FUNCTION_TYPE com_rslt = SUCCESS;
1011:.\bmp280.c    **** 	u8 v_data_u8 = BMP280_INIT_VALUE;
 1685              		.loc 1 1011 0
 1686 0004 0021     		mov	r1, #0
 1687 0006 6B46     		mov	r3, sp
 1688 0008 D971     		strb	r1, [r3, #7]
1012:.\bmp280.c    **** 	/* check the p_bmp280 structure pointer as NULL*/
1013:.\bmp280.c    **** 	if (p_bmp280 == BMP280_NULL) {
 1689              		.loc 1 1013 0
 1690 000a 144A     		ldr	r2, .L100
 1691 000c 1368     		ldr	r3, [r2]
 1692 000e 002B     		cmp	r3, #0
 1693 0010 1FD0     		beq	.L99
 1694 0012 051C     		mov	r5, r0
1014:.\bmp280.c    **** 		com_rslt = E_BMP280_NULL_PTR;
1015:.\bmp280.c    **** 	} else {
1016:.\bmp280.c    **** 		/* write filter*/
1017:.\bmp280.c    **** 		com_rslt = p_bmp280->BMP280_BUS_READ_FUNC(p_bmp280->dev_addr,
 1695              		.loc 1 1017 0
 1696 0014 5C6A     		ldr	r4, [r3, #36]
 1697 0016 587F     		ldrb	r0, [r3, #29]
 1698              	.LVL162:
 1699 0018 F531     		add	r1, r1, #245
 1700 001a 6B46     		mov	r3, sp
ARM GAS  C:\Users\Svilen\AppData\Local\Temp\ccFr0ira.s 			page 50


 1701 001c DA1D     		add	r2, r3, #7
 1702 001e 0123     		mov	r3, #1
 1703 0020 A047     		blx	r4
 1704              	.LVL163:
 1705 0022 041C     		mov	r4, r0
 1706 0024 031E     		sub	r3, r0, #0
 1707              	.LVL164:
1018:.\bmp280.c    **** 				BMP280_CONFIG_REG_FILTER__REG, &v_data_u8,
1019:.\bmp280.c    **** 				BMP280_GEN_READ_WRITE_DATA_LENGTH);
1020:.\bmp280.c    **** 		if (com_rslt == SUCCESS) {
 1708              		.loc 1 1020 0
 1709 0026 15D1     		bne	.L98
1021:.\bmp280.c    **** 			v_data_u8 = BMP280_SET_BITSLICE(v_data_u8,
 1710              		.loc 1 1021 0
 1711 0028 AB00     		lsl	r3, r5, #2
 1712 002a 6A46     		mov	r2, sp
 1713 002c 0732     		add	r2, r2, #7
 1714 002e 1078     		ldrb	r0, [r2]
 1715              	.LVL165:
 1716 0030 1C21     		mov	r1, #28
 1717 0032 8843     		bic	r0, r1
 1718 0034 011C     		mov	r1, r0
 1719 0036 1C20     		mov	r0, #28
 1720 0038 1840     		and	r0, r3
 1721 003a 0843     		orr	r0, r1
 1722 003c 1070     		strb	r0, [r2]
1022:.\bmp280.c    **** 					BMP280_CONFIG_REG_FILTER, v_value_u8);
1023:.\bmp280.c    **** 			com_rslt += p_bmp280->BMP280_BUS_WRITE_FUNC(
 1723              		.loc 1 1023 0
 1724 003e 074B     		ldr	r3, .L100
 1725 0040 1B68     		ldr	r3, [r3]
 1726 0042 1D6A     		ldr	r5, [r3, #32]
 1727 0044 587F     		ldrb	r0, [r3, #29]
 1728 0046 F521     		mov	r1, #245
 1729 0048 0123     		mov	r3, #1
 1730 004a A847     		blx	r5
 1731              	.LVL166:
 1732 004c 0319     		add	r3, r0, r4
 1733 004e DBB2     		uxtb	r3, r3
 1734              	.LVL167:
 1735 0050 00E0     		b	.L98
 1736              	.LVL168:
 1737              	.L99:
1014:.\bmp280.c    **** 	} else {
 1738              		.loc 1 1014 0
 1739 0052 8123     		mov	r3, #129
 1740              	.LVL169:
 1741              	.L98:
1024:.\bmp280.c    **** 					p_bmp280->dev_addr,
1025:.\bmp280.c    **** 					BMP280_CONFIG_REG_FILTER__REG,
1026:.\bmp280.c    **** 					&v_data_u8,
1027:.\bmp280.c    **** 					BMP280_GEN_READ_WRITE_DATA_LENGTH);
1028:.\bmp280.c    **** 		}
1029:.\bmp280.c    **** 	}
1030:.\bmp280.c    **** 	return com_rslt;
 1742              		.loc 1 1030 0
 1743 0054 58B2     		sxtb	r0, r3
ARM GAS  C:\Users\Svilen\AppData\Local\Temp\ccFr0ira.s 			page 51


1031:.\bmp280.c    **** }
 1744              		.loc 1 1031 0
 1745 0056 03B0     		add	sp, sp, #12
 1746              		@ sp needed
 1747 0058 30BD     		pop	{r4, r5, pc}
 1748              	.L101:
 1749 005a C046     		.align	2
 1750              	.L100:
 1751 005c 00000000 		.word	.LANCHOR0
 1752              		.cfi_endproc
 1753              	.LFE18:
 1754              		.size	bmp280_set_filter, .-bmp280_set_filter
 1755              		.section	.text.bmp280_get_standby_durn,"ax",%progbits
 1756              		.align	2
 1757              		.global	bmp280_get_standby_durn
 1758              		.code	16
 1759              		.thumb_func
 1760              		.type	bmp280_get_standby_durn, %function
 1761              	bmp280_get_standby_durn:
 1762              	.LFB19:
1032:.\bmp280.c    **** /*!
1033:.\bmp280.c    ****  *	@brief This API used to Read the
1034:.\bmp280.c    ****  *	standby duration time from the sensor in the register 0xF5 bit 5 to 7
1035:.\bmp280.c    ****  *
1036:.\bmp280.c    ****  *	@param v_standby_durn_u8 : The standby duration time value.
1037:.\bmp280.c    ****  *  value     |  standby duration
1038:.\bmp280.c    ****  * -----------|--------------------
1039:.\bmp280.c    ****  *    0x00    | BMP280_STANDBYTIME_1_MS
1040:.\bmp280.c    ****  *    0x01    | BMP280_STANDBYTIME_63_MS
1041:.\bmp280.c    ****  *    0x02    | BMP280_STANDBYTIME_125_MS
1042:.\bmp280.c    ****  *    0x03    | BMP280_STANDBYTIME_250_MS
1043:.\bmp280.c    ****  *    0x04    | BMP280_STANDBYTIME_500_MS
1044:.\bmp280.c    ****  *    0x05    | BMP280_STANDBYTIME_1000_MS
1045:.\bmp280.c    ****  *    0x06    | BMP280_STANDBYTIME_2000_MS
1046:.\bmp280.c    ****  *    0x07    | BMP280_STANDBYTIME_4000_MS
1047:.\bmp280.c    ****  *
1048:.\bmp280.c    ****  *
1049:.\bmp280.c    ****  *
1050:.\bmp280.c    ****  *  @return results of bus communication function
1051:.\bmp280.c    ****  *	@retval 0 -> Success
1052:.\bmp280.c    ****  *	@retval -1 -> Error
1053:.\bmp280.c    ****  *
1054:.\bmp280.c    ****  *
1055:.\bmp280.c    ****  */
1056:.\bmp280.c    **** BMP280_RETURN_FUNCTION_TYPE bmp280_get_standby_durn(u8 *v_standby_durn_u8)
1057:.\bmp280.c    **** {
 1763              		.loc 1 1057 0
 1764              		.cfi_startproc
 1765              	.LVL170:
 1766 0000 70B5     		push	{r4, r5, r6, lr}
 1767              		.cfi_def_cfa_offset 16
 1768              		.cfi_offset 4, -16
 1769              		.cfi_offset 5, -12
 1770              		.cfi_offset 6, -8
 1771              		.cfi_offset 14, -4
 1772 0002 82B0     		sub	sp, sp, #8
 1773              		.cfi_def_cfa_offset 24
ARM GAS  C:\Users\Svilen\AppData\Local\Temp\ccFr0ira.s 			page 52


 1774              	.LVL171:
1058:.\bmp280.c    **** 	/* variable used to return communication result*/
1059:.\bmp280.c    **** 	BMP280_RETURN_FUNCTION_TYPE com_rslt = ERROR;
1060:.\bmp280.c    **** 	u8 v_data_u8 = BMP280_INIT_VALUE;
 1775              		.loc 1 1060 0
 1776 0004 0022     		mov	r2, #0
 1777 0006 6B46     		mov	r3, sp
 1778 0008 DA71     		strb	r2, [r3, #7]
1061:.\bmp280.c    **** 	/* check the p_bmp280 structure pointer as NULL*/
1062:.\bmp280.c    **** 	if (p_bmp280 == BMP280_NULL) {
 1779              		.loc 1 1062 0
 1780 000a 0A4B     		ldr	r3, .L105
 1781 000c 1B68     		ldr	r3, [r3]
 1782 000e 002B     		cmp	r3, #0
 1783 0010 0CD0     		beq	.L104
 1784 0012 051C     		mov	r5, r0
1063:.\bmp280.c    **** 		com_rslt = E_BMP280_NULL_PTR;
1064:.\bmp280.c    **** 	} else {
1065:.\bmp280.c    **** 		/* read the standby duration*/
1066:.\bmp280.c    **** 		com_rslt = p_bmp280->BMP280_BUS_READ_FUNC(p_bmp280->dev_addr,
 1785              		.loc 1 1066 0
 1786 0014 5E6A     		ldr	r6, [r3, #36]
 1787 0016 587F     		ldrb	r0, [r3, #29]
 1788              	.LVL172:
 1789 0018 6B46     		mov	r3, sp
 1790 001a DC1D     		add	r4, r3, #7
 1791 001c F521     		mov	r1, #245
 1792 001e 221C     		mov	r2, r4
 1793 0020 0123     		mov	r3, #1
 1794 0022 B047     		blx	r6
 1795              	.LVL173:
1067:.\bmp280.c    **** 				BMP280_CONFIG_REG_STANDBY_DURN__REG, &v_data_u8,
1068:.\bmp280.c    **** 				BMP280_GEN_READ_WRITE_DATA_LENGTH);
1069:.\bmp280.c    **** 		*v_standby_durn_u8 = BMP280_GET_BITSLICE(v_data_u8,
 1796              		.loc 1 1069 0
 1797 0024 2378     		ldrb	r3, [r4]
 1798 0026 5B09     		lsr	r3, r3, #5
 1799 0028 2B70     		strb	r3, [r5]
 1800 002a 00E0     		b	.L103
 1801              	.LVL174:
 1802              	.L104:
1063:.\bmp280.c    **** 		com_rslt = E_BMP280_NULL_PTR;
 1803              		.loc 1 1063 0
 1804 002c 8120     		mov	r0, #129
 1805              	.LVL175:
 1806              	.L103:
1070:.\bmp280.c    **** 				BMP280_CONFIG_REG_STANDBY_DURN);
1071:.\bmp280.c    **** 	}
1072:.\bmp280.c    **** 	return com_rslt;
 1807              		.loc 1 1072 0
 1808 002e 40B2     		sxtb	r0, r0
1073:.\bmp280.c    **** }
 1809              		.loc 1 1073 0
 1810 0030 02B0     		add	sp, sp, #8
 1811              		@ sp needed
 1812 0032 70BD     		pop	{r4, r5, r6, pc}
 1813              	.L106:
ARM GAS  C:\Users\Svilen\AppData\Local\Temp\ccFr0ira.s 			page 53


 1814              		.align	2
 1815              	.L105:
 1816 0034 00000000 		.word	.LANCHOR0
 1817              		.cfi_endproc
 1818              	.LFE19:
 1819              		.size	bmp280_get_standby_durn, .-bmp280_get_standby_durn
 1820              		.section	.text.bmp280_set_standby_durn,"ax",%progbits
 1821              		.align	2
 1822              		.global	bmp280_set_standby_durn
 1823              		.code	16
 1824              		.thumb_func
 1825              		.type	bmp280_set_standby_durn, %function
 1826              	bmp280_set_standby_durn:
 1827              	.LFB20:
1074:.\bmp280.c    **** /*!
1075:.\bmp280.c    ****  *	@brief This API used to Read the
1076:.\bmp280.c    ****  *	standby duration time from the sensor
1077:.\bmp280.c    ****  *	in the register 0xF5 bit 5 to 7
1078:.\bmp280.c    ****  *	@note Normal mode comprises an
1079:.\bmp280.c    ****  *	automated perpetual cycling between an (active)
1080:.\bmp280.c    ****  *	Measurement period and an (inactive) standby period.
1081:.\bmp280.c    ****  *	@note The standby time is determined
1082:.\bmp280.c    ****  *	by the contents of the register t_sb.
1083:.\bmp280.c    ****  *	Standby time can be set using BMP280_STANDBYTIME_125_MS.
1084:.\bmp280.c    ****  *
1085:.\bmp280.c    ****  *	@note bmp280_set_standby_durn(BMP280_STANDBYTIME_125_MS)
1086:.\bmp280.c    ****  *
1087:.\bmp280.c    ****  *
1088:.\bmp280.c    ****  *
1089:.\bmp280.c    ****  *	@param v_standby_durn_u8 : The standby duration time value.
1090:.\bmp280.c    ****  *  value     |  standby duration
1091:.\bmp280.c    ****  * -----------|--------------------
1092:.\bmp280.c    ****  *    0x00    | BMP280_STANDBYTIME_1_MS
1093:.\bmp280.c    ****  *    0x01    | BMP280_STANDBYTIME_63_MS
1094:.\bmp280.c    ****  *    0x02    | BMP280_STANDBYTIME_125_MS
1095:.\bmp280.c    ****  *    0x03    | BMP280_STANDBYTIME_250_MS
1096:.\bmp280.c    ****  *    0x04    | BMP280_STANDBYTIME_500_MS
1097:.\bmp280.c    ****  *    0x05    | BMP280_STANDBYTIME_1000_MS
1098:.\bmp280.c    ****  *    0x06    | BMP280_STANDBYTIME_2000_MS
1099:.\bmp280.c    ****  *    0x07    | BMP280_STANDBYTIME_4000_MS
1100:.\bmp280.c    ****  *
1101:.\bmp280.c    ****  *
1102:.\bmp280.c    ****  *
1103:.\bmp280.c    ****  *  @return results of bus communication function
1104:.\bmp280.c    ****  *	@retval 0 -> Success
1105:.\bmp280.c    ****  *	@retval -1 -> Error
1106:.\bmp280.c    ****  *
1107:.\bmp280.c    ****  *
1108:.\bmp280.c    ****  */
1109:.\bmp280.c    **** BMP280_RETURN_FUNCTION_TYPE bmp280_set_standby_durn(u8 v_standby_durn_u8)
1110:.\bmp280.c    **** {
 1828              		.loc 1 1110 0
 1829              		.cfi_startproc
 1830              	.LVL176:
 1831 0000 30B5     		push	{r4, r5, lr}
 1832              		.cfi_def_cfa_offset 12
 1833              		.cfi_offset 4, -12
ARM GAS  C:\Users\Svilen\AppData\Local\Temp\ccFr0ira.s 			page 54


 1834              		.cfi_offset 5, -8
 1835              		.cfi_offset 14, -4
 1836 0002 83B0     		sub	sp, sp, #12
 1837              		.cfi_def_cfa_offset 24
 1838              	.LVL177:
1111:.\bmp280.c    **** 	/* variable used to return communication result*/
1112:.\bmp280.c    **** 	BMP280_RETURN_FUNCTION_TYPE com_rslt = ERROR;
1113:.\bmp280.c    **** 	u8 v_data_u8 = BMP280_INIT_VALUE;
 1839              		.loc 1 1113 0
 1840 0004 0021     		mov	r1, #0
 1841 0006 6B46     		mov	r3, sp
 1842 0008 D971     		strb	r1, [r3, #7]
1114:.\bmp280.c    **** 	/* check the p_bmp280 structure pointer as NULL*/
1115:.\bmp280.c    **** 	if (p_bmp280 == BMP280_NULL) {
 1843              		.loc 1 1115 0
 1844 000a 124A     		ldr	r2, .L110
 1845 000c 1368     		ldr	r3, [r2]
 1846 000e 002B     		cmp	r3, #0
 1847 0010 1CD0     		beq	.L109
 1848 0012 051C     		mov	r5, r0
1116:.\bmp280.c    **** 		com_rslt = E_BMP280_NULL_PTR;
1117:.\bmp280.c    **** 	} else {
1118:.\bmp280.c    **** 		/* write the standby duration*/
1119:.\bmp280.c    **** 		com_rslt = p_bmp280->BMP280_BUS_READ_FUNC(p_bmp280->dev_addr,
 1849              		.loc 1 1119 0
 1850 0014 5C6A     		ldr	r4, [r3, #36]
 1851 0016 587F     		ldrb	r0, [r3, #29]
 1852              	.LVL178:
 1853 0018 F531     		add	r1, r1, #245
 1854 001a 6B46     		mov	r3, sp
 1855 001c DA1D     		add	r2, r3, #7
 1856 001e 0123     		mov	r3, #1
 1857 0020 A047     		blx	r4
 1858              	.LVL179:
 1859 0022 041C     		mov	r4, r0
 1860 0024 031E     		sub	r3, r0, #0
 1861              	.LVL180:
1120:.\bmp280.c    **** 				BMP280_CONFIG_REG_STANDBY_DURN__REG, &v_data_u8,
1121:.\bmp280.c    **** 				BMP280_GEN_READ_WRITE_DATA_LENGTH);
1122:.\bmp280.c    **** 		if (com_rslt == SUCCESS) {
 1862              		.loc 1 1122 0
 1863 0026 12D1     		bne	.L108
1123:.\bmp280.c    **** 			v_data_u8 = BMP280_SET_BITSLICE(v_data_u8,
 1864              		.loc 1 1123 0
 1865 0028 6B01     		lsl	r3, r5, #5
 1866 002a 6A46     		mov	r2, sp
 1867 002c 0732     		add	r2, r2, #7
 1868 002e 1178     		ldrb	r1, [r2]
 1869 0030 1F20     		mov	r0, #31
 1870              	.LVL181:
 1871 0032 0840     		and	r0, r1
 1872 0034 1843     		orr	r0, r3
 1873 0036 1070     		strb	r0, [r2]
1124:.\bmp280.c    **** 					BMP280_CONFIG_REG_STANDBY_DURN,
1125:.\bmp280.c    **** 					v_standby_durn_u8);
1126:.\bmp280.c    **** 			com_rslt += p_bmp280->BMP280_BUS_WRITE_FUNC(
 1874              		.loc 1 1126 0
ARM GAS  C:\Users\Svilen\AppData\Local\Temp\ccFr0ira.s 			page 55


 1875 0038 064B     		ldr	r3, .L110
 1876 003a 1B68     		ldr	r3, [r3]
 1877 003c 1D6A     		ldr	r5, [r3, #32]
 1878 003e 587F     		ldrb	r0, [r3, #29]
 1879 0040 F521     		mov	r1, #245
 1880 0042 0123     		mov	r3, #1
 1881 0044 A847     		blx	r5
 1882              	.LVL182:
 1883 0046 0319     		add	r3, r0, r4
 1884 0048 DBB2     		uxtb	r3, r3
 1885              	.LVL183:
 1886 004a 00E0     		b	.L108
 1887              	.LVL184:
 1888              	.L109:
1116:.\bmp280.c    **** 	} else {
 1889              		.loc 1 1116 0
 1890 004c 8123     		mov	r3, #129
 1891              	.LVL185:
 1892              	.L108:
1127:.\bmp280.c    **** 					p_bmp280->dev_addr,
1128:.\bmp280.c    **** 					BMP280_CONFIG_REG_STANDBY_DURN__REG,
1129:.\bmp280.c    **** 					&v_data_u8,
1130:.\bmp280.c    **** 					BMP280_GEN_READ_WRITE_DATA_LENGTH);
1131:.\bmp280.c    **** 		}
1132:.\bmp280.c    **** 	}
1133:.\bmp280.c    **** 	return com_rslt;
 1893              		.loc 1 1133 0
 1894 004e 58B2     		sxtb	r0, r3
1134:.\bmp280.c    **** }
 1895              		.loc 1 1134 0
 1896 0050 03B0     		add	sp, sp, #12
 1897              		@ sp needed
 1898 0052 30BD     		pop	{r4, r5, pc}
 1899              	.L111:
 1900              		.align	2
 1901              	.L110:
 1902 0054 00000000 		.word	.LANCHOR0
 1903              		.cfi_endproc
 1904              	.LFE20:
 1905              		.size	bmp280_set_standby_durn, .-bmp280_set_standby_durn
 1906              		.section	.text.bmp280_set_work_mode,"ax",%progbits
 1907              		.align	2
 1908              		.global	bmp280_set_work_mode
 1909              		.code	16
 1910              		.thumb_func
 1911              		.type	bmp280_set_work_mode, %function
 1912              	bmp280_set_work_mode:
 1913              	.LFB21:
1135:.\bmp280.c    **** /*!
1136:.\bmp280.c    ****  *	@brief This API is used to write
1137:.\bmp280.c    ****  *	 the working mode of the sensor
1138:.\bmp280.c    ****  *
1139:.\bmp280.c    ****  *
1140:.\bmp280.c    ****  *  @param v_work_mode_u8 : The value of work mode
1141:.\bmp280.c    ****  *   value      |  mode
1142:.\bmp280.c    ****  * -------------|-------------
1143:.\bmp280.c    ****  *    0         | BMP280_ULTRA_LOW_POWER_MODE
ARM GAS  C:\Users\Svilen\AppData\Local\Temp\ccFr0ira.s 			page 56


1144:.\bmp280.c    ****  *    1         | BMP280_LOW_POWER_MODE
1145:.\bmp280.c    ****  *    2         | BMP280_STANDARD_RESOLUTION_MODE
1146:.\bmp280.c    ****  *    3         | BMP280_HIGH_RESOLUTION_MODE
1147:.\bmp280.c    ****  *    4         | BMP280_ULTRA_HIGH_RESOLUTION_MODE
1148:.\bmp280.c    ****  *
1149:.\bmp280.c    ****  *  @return results of bus communication function
1150:.\bmp280.c    ****  *	@retval 0 -> Success
1151:.\bmp280.c    ****  *	@retval -1 -> Error
1152:.\bmp280.c    ****  *
1153:.\bmp280.c    ****  *
1154:.\bmp280.c    ****  */
1155:.\bmp280.c    **** BMP280_RETURN_FUNCTION_TYPE bmp280_set_work_mode(u8 v_work_mode_u8)
1156:.\bmp280.c    **** {
 1914              		.loc 1 1156 0
 1915              		.cfi_startproc
 1916              	.LVL186:
 1917 0000 30B5     		push	{r4, r5, lr}
 1918              		.cfi_def_cfa_offset 12
 1919              		.cfi_offset 4, -12
 1920              		.cfi_offset 5, -8
 1921              		.cfi_offset 14, -4
 1922 0002 83B0     		sub	sp, sp, #12
 1923              		.cfi_def_cfa_offset 24
 1924              	.LVL187:
1157:.\bmp280.c    **** 	/* variable used to return communication result*/
1158:.\bmp280.c    **** 	BMP280_RETURN_FUNCTION_TYPE com_rslt = ERROR;
1159:.\bmp280.c    **** 	u8 v_data_u8 = BMP280_INIT_VALUE;
 1925              		.loc 1 1159 0
 1926 0004 0022     		mov	r2, #0
 1927 0006 6B46     		mov	r3, sp
 1928 0008 DA71     		strb	r2, [r3, #7]
1160:.\bmp280.c    **** 	/* check the p_bmp280 structure pointer as NULL*/
1161:.\bmp280.c    **** 	if (p_bmp280 == BMP280_NULL) {
 1929              		.loc 1 1161 0
 1930 000a 2C4B     		ldr	r3, .L123
 1931 000c 1B68     		ldr	r3, [r3]
 1932 000e 002B     		cmp	r3, #0
 1933 0010 4DD0     		beq	.L121
1162:.\bmp280.c    **** 		com_rslt = E_BMP280_NULL_PTR;
1163:.\bmp280.c    **** 	} else {
1164:.\bmp280.c    **** 	if (v_work_mode_u8 <= BMP280_ULTRA_HIGH_RESOLUTION_MODE) {
 1934              		.loc 1 1164 0
 1935 0012 0428     		cmp	r0, #4
 1936 0014 4DD8     		bhi	.L122
 1937 0016 051C     		mov	r5, r0
1165:.\bmp280.c    **** 		com_rslt = p_bmp280->BMP280_BUS_READ_FUNC(
 1938              		.loc 1 1165 0
 1939 0018 5C6A     		ldr	r4, [r3, #36]
 1940 001a 587F     		ldrb	r0, [r3, #29]
 1941              	.LVL188:
 1942 001c F421     		mov	r1, #244
 1943 001e 6B46     		mov	r3, sp
 1944 0020 DA1D     		add	r2, r3, #7
 1945 0022 0123     		mov	r3, #1
 1946 0024 A047     		blx	r4
 1947              	.LVL189:
 1948 0026 041E     		sub	r4, r0, #0
ARM GAS  C:\Users\Svilen\AppData\Local\Temp\ccFr0ira.s 			page 57


 1949              	.LVL190:
1166:.\bmp280.c    **** 				p_bmp280->dev_addr,
1167:.\bmp280.c    **** 				BMP280_CTRL_MEAS_REG, &v_data_u8,
1168:.\bmp280.c    **** 				BMP280_GEN_READ_WRITE_DATA_LENGTH);
1169:.\bmp280.c    **** 		if (com_rslt == SUCCESS) {
 1950              		.loc 1 1169 0
 1951 0028 44D1     		bne	.L113
1170:.\bmp280.c    **** 			switch (v_work_mode_u8) {
 1952              		.loc 1 1170 0
 1953 002a 042D     		cmp	r5, #4
 1954 002c 24D8     		bhi	.L114
 1955 002e A800     		lsl	r0, r5, #2
 1956 0030 234B     		ldr	r3, .L123+4
 1957 0032 1B58     		ldr	r3, [r3, r0]
 1958 0034 9F46     		mov	pc, r3
 1959              		.section	.rodata
 1960              		.align	2
 1961              	.L116:
 1962 0000 36000000 		.word	.L115
 1963 0004 42000000 		.word	.L117
 1964 0008 50000000 		.word	.L118
 1965 000c 5E000000 		.word	.L119
 1966 0010 6C000000 		.word	.L120
 1967              		.section	.text.bmp280_set_work_mode
 1968              	.L115:
1171:.\bmp280.c    **** 			/* write work mode*/
1172:.\bmp280.c    **** 			case BMP280_ULTRA_LOW_POWER_MODE:
1173:.\bmp280.c    **** 				p_bmp280->oversamp_temperature =
 1969              		.loc 1 1173 0
 1970 0036 214B     		ldr	r3, .L123
 1971 0038 1B68     		ldr	r3, [r3]
 1972 003a 0122     		mov	r2, #1
 1973 003c 9A77     		strb	r2, [r3, #30]
1174:.\bmp280.c    **** 				BMP280_ULTRALOWPOWER_OVERSAMP_TEMPERATURE;
1175:.\bmp280.c    **** 				p_bmp280->oversamp_pressure =
 1974              		.loc 1 1175 0
 1975 003e DA77     		strb	r2, [r3, #31]
1176:.\bmp280.c    **** 					BMP280_ULTRALOWPOWER_OVERSAMP_PRESSURE;
1177:.\bmp280.c    **** 				break;
 1976              		.loc 1 1177 0
 1977 0040 1AE0     		b	.L114
 1978              	.L117:
1178:.\bmp280.c    **** 			case BMP280_LOW_POWER_MODE:
1179:.\bmp280.c    **** 				p_bmp280->oversamp_temperature =
 1979              		.loc 1 1179 0
 1980 0042 1E4B     		ldr	r3, .L123
 1981 0044 1B68     		ldr	r3, [r3]
 1982 0046 0122     		mov	r2, #1
 1983 0048 9A77     		strb	r2, [r3, #30]
1180:.\bmp280.c    **** 					BMP280_LOWPOWER_OVERSAMP_TEMPERATURE;
1181:.\bmp280.c    **** 				p_bmp280->oversamp_pressure =
 1984              		.loc 1 1181 0
 1985 004a 0132     		add	r2, r2, #1
 1986 004c DA77     		strb	r2, [r3, #31]
1182:.\bmp280.c    **** 					BMP280_LOWPOWER_OVERSAMP_PRESSURE;
1183:.\bmp280.c    **** 				break;
 1987              		.loc 1 1183 0
ARM GAS  C:\Users\Svilen\AppData\Local\Temp\ccFr0ira.s 			page 58


 1988 004e 13E0     		b	.L114
 1989              	.L118:
1184:.\bmp280.c    **** 			case BMP280_STANDARD_RESOLUTION_MODE:
1185:.\bmp280.c    **** 				p_bmp280->oversamp_temperature =
 1990              		.loc 1 1185 0
 1991 0050 1A4B     		ldr	r3, .L123
 1992 0052 1B68     		ldr	r3, [r3]
 1993 0054 0122     		mov	r2, #1
 1994 0056 9A77     		strb	r2, [r3, #30]
1186:.\bmp280.c    **** 				BMP280_STANDARDRESOLUTION_OVERSAMP_TEMPERATURE;
1187:.\bmp280.c    **** 				p_bmp280->oversamp_pressure =
 1995              		.loc 1 1187 0
 1996 0058 0232     		add	r2, r2, #2
 1997 005a DA77     		strb	r2, [r3, #31]
1188:.\bmp280.c    **** 				BMP280_STANDARDRESOLUTION_OVERSAMP_PRESSURE;
1189:.\bmp280.c    **** 				break;
 1998              		.loc 1 1189 0
 1999 005c 0CE0     		b	.L114
 2000              	.L119:
1190:.\bmp280.c    **** 			case BMP280_HIGH_RESOLUTION_MODE:
1191:.\bmp280.c    **** 				p_bmp280->oversamp_temperature =
 2001              		.loc 1 1191 0
 2002 005e 174B     		ldr	r3, .L123
 2003 0060 1B68     		ldr	r3, [r3]
 2004 0062 0122     		mov	r2, #1
 2005 0064 9A77     		strb	r2, [r3, #30]
1192:.\bmp280.c    **** 				BMP280_HIGHRESOLUTION_OVERSAMP_TEMPERATURE;
1193:.\bmp280.c    **** 				p_bmp280->oversamp_pressure =
 2006              		.loc 1 1193 0
 2007 0066 0332     		add	r2, r2, #3
 2008 0068 DA77     		strb	r2, [r3, #31]
1194:.\bmp280.c    **** 				BMP280_HIGHRESOLUTION_OVERSAMP_PRESSURE;
1195:.\bmp280.c    **** 				break;
 2009              		.loc 1 1195 0
 2010 006a 05E0     		b	.L114
 2011              	.L120:
1196:.\bmp280.c    **** 			case BMP280_ULTRA_HIGH_RESOLUTION_MODE:
1197:.\bmp280.c    **** 				p_bmp280->oversamp_temperature =
 2012              		.loc 1 1197 0
 2013 006c 134B     		ldr	r3, .L123
 2014 006e 1B68     		ldr	r3, [r3]
 2015 0070 0222     		mov	r2, #2
 2016 0072 9A77     		strb	r2, [r3, #30]
1198:.\bmp280.c    **** 				BMP280_ULTRAHIGHRESOLUTION_OVERSAMP_TEMPERATURE;
1199:.\bmp280.c    **** 				p_bmp280->oversamp_pressure =
 2017              		.loc 1 1199 0
 2018 0074 0332     		add	r2, r2, #3
 2019 0076 DA77     		strb	r2, [r3, #31]
 2020              	.L114:
1200:.\bmp280.c    **** 				BMP280_ULTRAHIGHRESOLUTION_OVERSAMP_PRESSURE;
1201:.\bmp280.c    **** 				break;
1202:.\bmp280.c    **** 			}
1203:.\bmp280.c    **** 			v_data_u8 = BMP280_SET_BITSLICE(v_data_u8,
 2021              		.loc 1 1203 0
 2022 0078 104B     		ldr	r3, .L123
 2023 007a 1868     		ldr	r0, [r3]
 2024 007c 837F     		ldrb	r3, [r0, #30]
ARM GAS  C:\Users\Svilen\AppData\Local\Temp\ccFr0ira.s 			page 59


 2025 007e 5901     		lsl	r1, r3, #5
 2026 0080 6B46     		mov	r3, sp
 2027 0082 DA1D     		add	r2, r3, #7
 2028 0084 1378     		ldrb	r3, [r2]
 2029 0086 1F25     		mov	r5, #31
 2030 0088 2B40     		and	r3, r5
 2031 008a 0B43     		orr	r3, r1
 2032 008c DBB2     		uxtb	r3, r3
 2033 008e 1370     		strb	r3, [r2]
1204:.\bmp280.c    **** 				BMP280_CTRL_MEAS_REG_OVERSAMP_TEMPERATURE,
1205:.\bmp280.c    **** 				p_bmp280->oversamp_temperature);
1206:.\bmp280.c    **** 			v_data_u8 = BMP280_SET_BITSLICE(v_data_u8,
 2034              		.loc 1 1206 0
 2035 0090 C17F     		ldrb	r1, [r0, #31]
 2036 0092 8900     		lsl	r1, r1, #2
 2037 0094 033D     		sub	r5, r5, #3
 2038 0096 AB43     		bic	r3, r5
 2039 0098 2940     		and	r1, r5
 2040 009a 0B43     		orr	r3, r1
 2041 009c 1370     		strb	r3, [r2]
1207:.\bmp280.c    **** 				BMP280_CTRL_MEAS_REG_OVERSAMP_PRESSURE,
1208:.\bmp280.c    **** 				p_bmp280->oversamp_pressure);
1209:.\bmp280.c    **** 			com_rslt += p_bmp280->BMP280_BUS_WRITE_FUNC(
 2042              		.loc 1 1209 0
 2043 009e 056A     		ldr	r5, [r0, #32]
 2044 00a0 407F     		ldrb	r0, [r0, #29]
 2045 00a2 F421     		mov	r1, #244
 2046 00a4 0123     		mov	r3, #1
 2047 00a6 A847     		blx	r5
 2048              	.LVL191:
 2049 00a8 0019     		add	r0, r0, r4
 2050 00aa C0B2     		uxtb	r0, r0
 2051              	.LVL192:
 2052 00ac 02E0     		b	.L113
 2053              	.LVL193:
 2054              	.L121:
1162:.\bmp280.c    **** 	} else {
 2055              		.loc 1 1162 0
 2056 00ae 8120     		mov	r0, #129
 2057              	.LVL194:
 2058 00b0 00E0     		b	.L113
 2059              	.LVL195:
 2060              	.L122:
1210:.\bmp280.c    **** 				p_bmp280->dev_addr, BMP280_CTRL_MEAS_REG,
1211:.\bmp280.c    **** 				&v_data_u8, BMP280_GEN_READ_WRITE_DATA_LENGTH);
1212:.\bmp280.c    **** 		}
1213:.\bmp280.c    **** 	} else {
1214:.\bmp280.c    **** 		com_rslt = E_BMP280_OUT_OF_RANGE;
 2061              		.loc 1 1214 0
 2062 00b2 FE20     		mov	r0, #254
 2063              	.LVL196:
 2064              	.L113:
1215:.\bmp280.c    **** 	}
1216:.\bmp280.c    **** 	}
1217:.\bmp280.c    **** 	return com_rslt;
 2065              		.loc 1 1217 0
 2066 00b4 40B2     		sxtb	r0, r0
ARM GAS  C:\Users\Svilen\AppData\Local\Temp\ccFr0ira.s 			page 60


1218:.\bmp280.c    **** }
 2067              		.loc 1 1218 0
 2068 00b6 03B0     		add	sp, sp, #12
 2069              		@ sp needed
 2070 00b8 30BD     		pop	{r4, r5, pc}
 2071              	.L124:
 2072 00ba C046     		.align	2
 2073              	.L123:
 2074 00bc 00000000 		.word	.LANCHOR0
 2075 00c0 00000000 		.word	.L116
 2076              		.cfi_endproc
 2077              	.LFE21:
 2078              		.size	bmp280_set_work_mode, .-bmp280_set_work_mode
 2079              		.section	.text.bmp280_write_register,"ax",%progbits
 2080              		.align	2
 2081              		.global	bmp280_write_register
 2082              		.code	16
 2083              		.thumb_func
 2084              		.type	bmp280_write_register, %function
 2085              	bmp280_write_register:
 2086              	.LFB23:
1219:.\bmp280.c    **** /*!
1220:.\bmp280.c    ****  *	@brief This API used to read both
1221:.\bmp280.c    ****  *	uncompensated pressure and temperature in forced mode
1222:.\bmp280.c    ****  *
1223:.\bmp280.c    ****  *
1224:.\bmp280.c    ****  *  @param  v_uncomp_pressure_s32: The value of uncompensated pressure.
1225:.\bmp280.c    ****  *  @param  v_uncomp_temperature_s32: The value of uncompensated temperature
1226:.\bmp280.c    ****  *
1227:.\bmp280.c    ****  *
1228:.\bmp280.c    ****  *  @return results of bus communication function
1229:.\bmp280.c    ****  *	@retval 0 -> Success
1230:.\bmp280.c    ****  *	@retval -1 -> Error
1231:.\bmp280.c    ****  *
1232:.\bmp280.c    ****  *
1233:.\bmp280.c    ****  */
1234:.\bmp280.c    **** BMP280_RETURN_FUNCTION_TYPE bmp280_get_forced_uncomp_pressure_temperature(
1235:.\bmp280.c    **** 		s32 *v_uncomp_pressure_s32, s32 *v_uncomp_temperature_s32)
1236:.\bmp280.c    **** {
1237:.\bmp280.c    **** 	/* variable used to return communication result*/
1238:.\bmp280.c    **** 	BMP280_RETURN_FUNCTION_TYPE com_rslt = ERROR;
1239:.\bmp280.c    **** 	u8 v_data_u8 = BMP280_INIT_VALUE;
1240:.\bmp280.c    **** 	u8 v_waittime_u8 = BMP280_INIT_VALUE;
1241:.\bmp280.c    **** 	/* check the p_bmp280 structure pointer as NULL*/
1242:.\bmp280.c    **** 	if (p_bmp280 == BMP280_NULL) {
1243:.\bmp280.c    **** 		com_rslt = E_BMP280_NULL_PTR;
1244:.\bmp280.c    **** 	} else {
1245:.\bmp280.c    **** 		/* read pressure and temperature*/
1246:.\bmp280.c    **** 		v_data_u8 = (p_bmp280->oversamp_temperature
1247:.\bmp280.c    **** 				<< BMP280_SHIFT_BIT_POSITION_BY_05_BITS)
1248:.\bmp280.c    **** 				+ (p_bmp280->oversamp_pressure
1249:.\bmp280.c    **** 				<< BMP280_SHIFT_BIT_POSITION_BY_02_BITS)
1250:.\bmp280.c    **** 				+ BMP280_FORCED_MODE;
1251:.\bmp280.c    **** 		com_rslt = p_bmp280->BMP280_BUS_WRITE_FUNC(p_bmp280->dev_addr,
1252:.\bmp280.c    **** 				BMP280_CTRL_MEAS_REG, &v_data_u8,
1253:.\bmp280.c    **** 				BMP280_GEN_READ_WRITE_DATA_LENGTH);
1254:.\bmp280.c    **** 		bmp280_compute_wait_time(&v_waittime_u8);
ARM GAS  C:\Users\Svilen\AppData\Local\Temp\ccFr0ira.s 			page 61


1255:.\bmp280.c    **** 		p_bmp280->delay_msec(v_waittime_u8);
1256:.\bmp280.c    **** 		com_rslt += bmp280_read_uncomp_pressure_temperature(
1257:.\bmp280.c    **** 				v_uncomp_pressure_s32,
1258:.\bmp280.c    **** 				v_uncomp_temperature_s32);
1259:.\bmp280.c    **** 	}
1260:.\bmp280.c    **** 	return com_rslt;
1261:.\bmp280.c    **** }
1262:.\bmp280.c    **** /*!
1263:.\bmp280.c    ****  * @brief
1264:.\bmp280.c    ****  *	This API write the data to
1265:.\bmp280.c    ****  *	the given register
1266:.\bmp280.c    ****  *
1267:.\bmp280.c    ****  *
1268:.\bmp280.c    ****  *	@param v_addr_u8 -> Address of the register
1269:.\bmp280.c    ****  *	@param v_data_u8 -> The data from the register
1270:.\bmp280.c    ****  *	@param v_len_u8 -> no of bytes to read
1271:.\bmp280.c    ****  *
1272:.\bmp280.c    ****  *
1273:.\bmp280.c    ****  *	@return results of bus communication function
1274:.\bmp280.c    ****  *	@retval 0 -> Success
1275:.\bmp280.c    ****  *	@retval -1 -> Error
1276:.\bmp280.c    ****  *
1277:.\bmp280.c    ****  *
1278:.\bmp280.c    ****  */
1279:.\bmp280.c    **** BMP280_RETURN_FUNCTION_TYPE bmp280_write_register(u8 v_addr_u8, u8 *v_data_u8,
1280:.\bmp280.c    **** 		u8 v_len_u8)
1281:.\bmp280.c    **** {
 2087              		.loc 1 1281 0
 2088              		.cfi_startproc
 2089              	.LVL197:
 2090 0000 38B5     		push	{r3, r4, r5, lr}
 2091              		.cfi_def_cfa_offset 16
 2092              		.cfi_offset 3, -16
 2093              		.cfi_offset 4, -12
 2094              		.cfi_offset 5, -8
 2095              		.cfi_offset 14, -4
 2096              	.LVL198:
1282:.\bmp280.c    **** 	/* variable used to return communication result*/
1283:.\bmp280.c    **** 	BMP280_RETURN_FUNCTION_TYPE com_rslt = ERROR;
1284:.\bmp280.c    **** 	/* check the p_bmp280 structure pointer as NULL*/
1285:.\bmp280.c    **** 	if (p_bmp280 == BMP280_NULL) {
 2097              		.loc 1 1285 0
 2098 0002 074C     		ldr	r4, .L128
 2099 0004 2468     		ldr	r4, [r4]
 2100 0006 002C     		cmp	r4, #0
 2101 0008 06D0     		beq	.L127
 2102 000a 131C     		mov	r3, r2
 2103 000c 0A1C     		mov	r2, r1
 2104              	.LVL199:
 2105 000e 011C     		mov	r1, r0
 2106              	.LVL200:
1286:.\bmp280.c    **** 		com_rslt = E_BMP280_NULL_PTR;
1287:.\bmp280.c    **** 	} else {
1288:.\bmp280.c    **** 		com_rslt = p_bmp280->BMP280_BUS_WRITE_FUNC(p_bmp280->dev_addr,
 2107              		.loc 1 1288 0
 2108 0010 256A     		ldr	r5, [r4, #32]
 2109 0012 607F     		ldrb	r0, [r4, #29]
ARM GAS  C:\Users\Svilen\AppData\Local\Temp\ccFr0ira.s 			page 62


 2110              	.LVL201:
 2111 0014 A847     		blx	r5
 2112              	.LVL202:
 2113 0016 00E0     		b	.L126
 2114              	.LVL203:
 2115              	.L127:
1286:.\bmp280.c    **** 		com_rslt = E_BMP280_NULL_PTR;
 2116              		.loc 1 1286 0
 2117 0018 8120     		mov	r0, #129
 2118              	.LVL204:
 2119              	.L126:
1289:.\bmp280.c    **** 				v_addr_u8, v_data_u8, v_len_u8);
1290:.\bmp280.c    **** 	}
1291:.\bmp280.c    **** 	return com_rslt;
 2120              		.loc 1 1291 0
 2121 001a 40B2     		sxtb	r0, r0
1292:.\bmp280.c    **** }
 2122              		.loc 1 1292 0
 2123              		@ sp needed
 2124 001c 38BD     		pop	{r3, r4, r5, pc}
 2125              	.L129:
 2126 001e C046     		.align	2
 2127              	.L128:
 2128 0020 00000000 		.word	.LANCHOR0
 2129              		.cfi_endproc
 2130              	.LFE23:
 2131              		.size	bmp280_write_register, .-bmp280_write_register
 2132              		.section	.text.bmp280_read_register,"ax",%progbits
 2133              		.align	2
 2134              		.global	bmp280_read_register
 2135              		.code	16
 2136              		.thumb_func
 2137              		.type	bmp280_read_register, %function
 2138              	bmp280_read_register:
 2139              	.LFB24:
1293:.\bmp280.c    **** /*!
1294:.\bmp280.c    ****  * @brief
1295:.\bmp280.c    ****  *	This API reads the data from
1296:.\bmp280.c    ****  *	the given register
1297:.\bmp280.c    ****  *
1298:.\bmp280.c    ****  *
1299:.\bmp280.c    ****  *	@param v_addr_u8 -> Address of the register
1300:.\bmp280.c    ****  *	@param v_data_u8 -> The data from the register
1301:.\bmp280.c    ****  *	@param v_len_u8 -> no of bytes to read
1302:.\bmp280.c    ****  *
1303:.\bmp280.c    ****  *
1304:.\bmp280.c    ****  *	@return results of bus communication function
1305:.\bmp280.c    ****  *	@retval 0 -> Success
1306:.\bmp280.c    ****  *	@retval -1 -> Error
1307:.\bmp280.c    ****  *
1308:.\bmp280.c    ****  *
1309:.\bmp280.c    ****  */
1310:.\bmp280.c    **** BMP280_RETURN_FUNCTION_TYPE bmp280_read_register(u8 v_addr_u8, u8 *v_data_u8,
1311:.\bmp280.c    **** 		u8 v_len_u8)
1312:.\bmp280.c    **** {
 2140              		.loc 1 1312 0
 2141              		.cfi_startproc
ARM GAS  C:\Users\Svilen\AppData\Local\Temp\ccFr0ira.s 			page 63


 2142              	.LVL205:
 2143 0000 38B5     		push	{r3, r4, r5, lr}
 2144              		.cfi_def_cfa_offset 16
 2145              		.cfi_offset 3, -16
 2146              		.cfi_offset 4, -12
 2147              		.cfi_offset 5, -8
 2148              		.cfi_offset 14, -4
 2149              	.LVL206:
1313:.\bmp280.c    **** 	/* variable used to return communication result*/
1314:.\bmp280.c    **** 	BMP280_RETURN_FUNCTION_TYPE com_rslt = ERROR;
1315:.\bmp280.c    **** 	/* check the p_bmp280 structure pointer as NULL*/
1316:.\bmp280.c    **** 	if (p_bmp280 == BMP280_NULL) {
 2150              		.loc 1 1316 0
 2151 0002 074C     		ldr	r4, .L133
 2152 0004 2468     		ldr	r4, [r4]
 2153 0006 002C     		cmp	r4, #0
 2154 0008 06D0     		beq	.L132
 2155 000a 131C     		mov	r3, r2
 2156 000c 0A1C     		mov	r2, r1
 2157              	.LVL207:
 2158 000e 011C     		mov	r1, r0
 2159              	.LVL208:
1317:.\bmp280.c    **** 		com_rslt = E_BMP280_NULL_PTR;
1318:.\bmp280.c    **** 	} else {
1319:.\bmp280.c    **** 		com_rslt = p_bmp280->BMP280_BUS_READ_FUNC(p_bmp280->dev_addr,
 2160              		.loc 1 1319 0
 2161 0010 656A     		ldr	r5, [r4, #36]
 2162 0012 607F     		ldrb	r0, [r4, #29]
 2163              	.LVL209:
 2164 0014 A847     		blx	r5
 2165              	.LVL210:
 2166 0016 00E0     		b	.L131
 2167              	.LVL211:
 2168              	.L132:
1317:.\bmp280.c    **** 		com_rslt = E_BMP280_NULL_PTR;
 2169              		.loc 1 1317 0
 2170 0018 8120     		mov	r0, #129
 2171              	.LVL212:
 2172              	.L131:
1320:.\bmp280.c    **** 				v_addr_u8, v_data_u8, v_len_u8);
1321:.\bmp280.c    **** 	}
1322:.\bmp280.c    **** 	return com_rslt;
 2173              		.loc 1 1322 0
 2174 001a 40B2     		sxtb	r0, r0
1323:.\bmp280.c    **** }
 2175              		.loc 1 1323 0
 2176              		@ sp needed
 2177 001c 38BD     		pop	{r3, r4, r5, pc}
 2178              	.L134:
 2179 001e C046     		.align	2
 2180              	.L133:
 2181 0020 00000000 		.word	.LANCHOR0
 2182              		.cfi_endproc
 2183              	.LFE24:
 2184              		.size	bmp280_read_register, .-bmp280_read_register
 2185              		.global	__aeabi_i2d
 2186              		.global	__aeabi_dmul
ARM GAS  C:\Users\Svilen\AppData\Local\Temp\ccFr0ira.s 			page 64


 2187              		.global	__aeabi_ui2d
 2188              		.global	__aeabi_dsub
 2189              		.global	__aeabi_dadd
 2190              		.global	__aeabi_d2iz
 2191              		.global	__aeabi_ddiv
 2192              		.section	.text.bmp280_compensate_temperature_double,"ax",%progbits
 2193              		.align	2
 2194              		.global	bmp280_compensate_temperature_double
 2195              		.code	16
 2196              		.thumb_func
 2197              		.type	bmp280_compensate_temperature_double, %function
 2198              	bmp280_compensate_temperature_double:
 2199              	.LFB25:
1324:.\bmp280.c    **** #ifdef BMP280_ENABLE_FLOAT
1325:.\bmp280.c    **** /*!
1326:.\bmp280.c    ****  * @brief This API used to read
1327:.\bmp280.c    ****  * actual temperature from uncompensated temperature
1328:.\bmp280.c    ****  * @note Returns the value in Degree centigrade
1329:.\bmp280.c    ****  * @note Output value of "51.23" equals 51.23 DegC.
1330:.\bmp280.c    ****  *
1331:.\bmp280.c    ****  *
1332:.\bmp280.c    ****  *
1333:.\bmp280.c    ****  *  @param v_uncomp_temperature_s32 : value of uncompensated temperature
1334:.\bmp280.c    ****  *
1335:.\bmp280.c    ****  *
1336:.\bmp280.c    ****  *
1337:.\bmp280.c    ****  *  @return
1338:.\bmp280.c    ****  *	Actual temperature in floating point
1339:.\bmp280.c    ****  *
1340:.\bmp280.c    ****  */
1341:.\bmp280.c    **** double bmp280_compensate_temperature_double(s32 v_uncomp_temperature_s32)
1342:.\bmp280.c    **** {
 2200              		.loc 1 1342 0
 2201              		.cfi_startproc
 2202              	.LVL213:
 2203 0000 70B5     		push	{r4, r5, r6, lr}
 2204              		.cfi_def_cfa_offset 16
 2205              		.cfi_offset 4, -16
 2206              		.cfi_offset 5, -12
 2207              		.cfi_offset 6, -8
 2208              		.cfi_offset 14, -4
 2209 0002 84B0     		sub	sp, sp, #16
 2210              		.cfi_def_cfa_offset 32
 2211              	.LVL214:
1343:.\bmp280.c    **** 	double v_x1_u32r = BMP280_INIT_VALUE;
1344:.\bmp280.c    **** 	double v_x2_u32r = BMP280_INIT_VALUE;
1345:.\bmp280.c    **** 	double temperature = BMP280_INIT_VALUE;
1346:.\bmp280.c    **** 	/* calculate x1*/
1347:.\bmp280.c    **** 	v_x1_u32r = (((double)v_uncomp_temperature_s32) / 16384.0 -
 2212              		.loc 1 1347 0
 2213 0004 FFF7FEFF 		bl	__aeabi_i2d
 2214              	.LVL215:
 2215 0008 041C     		mov	r4, r0
 2216 000a 0D1C     		mov	r5, r1
 2217 000c 0022     		mov	r2, #0
 2218 000e 2E4B     		ldr	r3, .L136
 2219 0010 FFF7FEFF 		bl	__aeabi_dmul
ARM GAS  C:\Users\Svilen\AppData\Local\Temp\ccFr0ira.s 			page 65


 2220              	.LVL216:
 2221 0014 0290     		str	r0, [sp, #8]
 2222 0016 0391     		str	r1, [sp, #12]
1348:.\bmp280.c    **** 			((double)p_bmp280->calib_param.dig_T1) / 1024.0) *
 2223              		.loc 1 1348 0
 2224 0018 2C4B     		ldr	r3, .L136+4
 2225 001a 1E68     		ldr	r6, [r3]
 2226 001c 3088     		ldrh	r0, [r6]
 2227 001e FFF7FEFF 		bl	__aeabi_ui2d
 2228              	.LVL217:
 2229 0022 021C     		mov	r2, r0
 2230 0024 0B1C     		mov	r3, r1
 2231 0026 0092     		str	r2, [sp]
 2232 0028 0193     		str	r3, [sp, #4]
 2233 002a 0022     		mov	r2, #0
 2234 002c 284B     		ldr	r3, .L136+8
 2235 002e FFF7FEFF 		bl	__aeabi_dmul
 2236              	.LVL218:
 2237 0032 021C     		mov	r2, r0
 2238 0034 0B1C     		mov	r3, r1
1347:.\bmp280.c    **** 			((double)p_bmp280->calib_param.dig_T1) / 1024.0) *
 2239              		.loc 1 1347 0
 2240 0036 0298     		ldr	r0, [sp, #8]
 2241 0038 0399     		ldr	r1, [sp, #12]
 2242 003a FFF7FEFF 		bl	__aeabi_dsub
 2243              	.LVL219:
 2244 003e 0290     		str	r0, [sp, #8]
 2245 0040 0391     		str	r1, [sp, #12]
1349:.\bmp280.c    **** 	((double)p_bmp280->calib_param.dig_T2);
 2246              		.loc 1 1349 0
 2247 0042 0223     		mov	r3, #2
 2248 0044 F05E     		ldrsh	r0, [r6, r3]
 2249 0046 FFF7FEFF 		bl	__aeabi_i2d
 2250              	.LVL220:
 2251 004a 021C     		mov	r2, r0
 2252 004c 0B1C     		mov	r3, r1
1347:.\bmp280.c    **** 			((double)p_bmp280->calib_param.dig_T1) / 1024.0) *
 2253              		.loc 1 1347 0
 2254 004e 0298     		ldr	r0, [sp, #8]
 2255 0050 0399     		ldr	r1, [sp, #12]
 2256 0052 FFF7FEFF 		bl	__aeabi_dmul
 2257              	.LVL221:
 2258 0056 0290     		str	r0, [sp, #8]
 2259 0058 0391     		str	r1, [sp, #12]
 2260              	.LVL222:
1350:.\bmp280.c    **** 	/* calculate x2*/
1351:.\bmp280.c    **** 	v_x2_u32r = ((((double)v_uncomp_temperature_s32) / 131072.0 -
1352:.\bmp280.c    **** 			((double)p_bmp280->calib_param.dig_T1) / 8192.0) *
1353:.\bmp280.c    **** 			(((double)v_uncomp_temperature_s32) / 131072.0 -
 2261              		.loc 1 1353 0
 2262 005a 201C     		mov	r0, r4
 2263              	.LVL223:
 2264 005c 291C     		mov	r1, r5
 2265 005e 0022     		mov	r2, #0
 2266 0060 1C4B     		ldr	r3, .L136+12
 2267 0062 FFF7FEFF 		bl	__aeabi_dmul
 2268              	.LVL224:
ARM GAS  C:\Users\Svilen\AppData\Local\Temp\ccFr0ira.s 			page 66


 2269 0066 041C     		mov	r4, r0
 2270 0068 0D1C     		mov	r5, r1
1354:.\bmp280.c    **** 			((double)p_bmp280->calib_param.dig_T1) / 8192.0)) *
 2271              		.loc 1 1354 0
 2272 006a 0098     		ldr	r0, [sp]
 2273 006c 0199     		ldr	r1, [sp, #4]
 2274 006e 0022     		mov	r2, #0
 2275 0070 194B     		ldr	r3, .L136+16
 2276 0072 FFF7FEFF 		bl	__aeabi_dmul
 2277              	.LVL225:
 2278 0076 021C     		mov	r2, r0
 2279 0078 0B1C     		mov	r3, r1
1353:.\bmp280.c    **** 			((double)p_bmp280->calib_param.dig_T1) / 8192.0)) *
 2280              		.loc 1 1353 0
 2281 007a 201C     		mov	r0, r4
 2282 007c 291C     		mov	r1, r5
 2283 007e FFF7FEFF 		bl	__aeabi_dsub
 2284              	.LVL226:
 2285 0082 021C     		mov	r2, r0
 2286 0084 0B1C     		mov	r3, r1
1352:.\bmp280.c    **** 			(((double)v_uncomp_temperature_s32) / 131072.0 -
 2287              		.loc 1 1352 0
 2288 0086 FFF7FEFF 		bl	__aeabi_dmul
 2289              	.LVL227:
 2290 008a 041C     		mov	r4, r0
 2291 008c 0D1C     		mov	r5, r1
1355:.\bmp280.c    **** 	((double)p_bmp280->calib_param.dig_T3);
 2292              		.loc 1 1355 0
 2293 008e 0423     		mov	r3, #4
 2294 0090 F05E     		ldrsh	r0, [r6, r3]
 2295 0092 FFF7FEFF 		bl	__aeabi_i2d
 2296              	.LVL228:
 2297 0096 021C     		mov	r2, r0
 2298 0098 0B1C     		mov	r3, r1
1351:.\bmp280.c    **** 			((double)p_bmp280->calib_param.dig_T1) / 8192.0) *
 2299              		.loc 1 1351 0
 2300 009a 201C     		mov	r0, r4
 2301 009c 291C     		mov	r1, r5
 2302 009e FFF7FEFF 		bl	__aeabi_dmul
 2303              	.LVL229:
 2304 00a2 021C     		mov	r2, r0
 2305 00a4 0B1C     		mov	r3, r1
 2306              	.LVL230:
1356:.\bmp280.c    **** 	/* calculate t_fine*/
1357:.\bmp280.c    **** 	p_bmp280->calib_param.t_fine = (s32)(v_x1_u32r + v_x2_u32r);
 2307              		.loc 1 1357 0
 2308 00a6 0298     		ldr	r0, [sp, #8]
 2309 00a8 0399     		ldr	r1, [sp, #12]
 2310 00aa FFF7FEFF 		bl	__aeabi_dadd
 2311              	.LVL231:
 2312 00ae 041C     		mov	r4, r0
 2313 00b0 0D1C     		mov	r5, r1
 2314 00b2 FFF7FEFF 		bl	__aeabi_d2iz
 2315              	.LVL232:
 2316 00b6 B061     		str	r0, [r6, #24]
1358:.\bmp280.c    **** 	/* calculate true pressure*/
1359:.\bmp280.c    **** 	temperature = (v_x1_u32r + v_x2_u32r) / 5120.0;
ARM GAS  C:\Users\Svilen\AppData\Local\Temp\ccFr0ira.s 			page 67


 2317              		.loc 1 1359 0
 2318 00b8 201C     		mov	r0, r4
 2319 00ba 291C     		mov	r1, r5
 2320 00bc 0022     		mov	r2, #0
 2321 00be 074B     		ldr	r3, .L136+20
 2322 00c0 FFF7FEFF 		bl	__aeabi_ddiv
 2323              	.LVL233:
1360:.\bmp280.c    **** 
1361:.\bmp280.c    **** 	return temperature;
1362:.\bmp280.c    **** }
 2324              		.loc 1 1362 0
 2325 00c4 04B0     		add	sp, sp, #16
 2326              		@ sp needed
 2327 00c6 70BD     		pop	{r4, r5, r6, pc}
 2328              	.L137:
 2329              		.align	2
 2330              	.L136:
 2331 00c8 0000103F 		.word	1058013184
 2332 00cc 00000000 		.word	.LANCHOR0
 2333 00d0 0000503F 		.word	1062207488
 2334 00d4 0000E03E 		.word	1054867456
 2335 00d8 0000203F 		.word	1059061760
 2336 00dc 0000B440 		.word	1085538304
 2337              		.cfi_endproc
 2338              	.LFE25:
 2339              		.size	bmp280_compensate_temperature_double, .-bmp280_compensate_temperature_double
 2340              		.global	__aeabi_dcmpun
 2341              		.global	__aeabi_dcmpeq
 2342              		.section	.text.bmp280_compensate_pressure_double,"ax",%progbits
 2343              		.align	2
 2344              		.global	bmp280_compensate_pressure_double
 2345              		.code	16
 2346              		.thumb_func
 2347              		.type	bmp280_compensate_pressure_double, %function
 2348              	bmp280_compensate_pressure_double:
 2349              	.LFB26:
1363:.\bmp280.c    **** /*!
1364:.\bmp280.c    ****  *	@brief Reads actual pressure from uncompensated pressure
1365:.\bmp280.c    ****  *	and returns pressure in Pa as double.
1366:.\bmp280.c    ****  *	@note Output value of "96386.2"
1367:.\bmp280.c    ****  *	equals 96386.2 Pa = 963.862 hPa.
1368:.\bmp280.c    ****  *
1369:.\bmp280.c    ****  *
1370:.\bmp280.c    ****  *
1371:.\bmp280.c    ****  *  @param v_uncomp_pressure_s32 : value of uncompensated pressure
1372:.\bmp280.c    ****  *
1373:.\bmp280.c    ****  *
1374:.\bmp280.c    ****  *
1375:.\bmp280.c    ****  *  @return
1376:.\bmp280.c    ****  *	Actual pressure in floating point
1377:.\bmp280.c    ****  *
1378:.\bmp280.c    ****  */
1379:.\bmp280.c    **** double bmp280_compensate_pressure_double(s32 v_uncomp_pressure_s32)
1380:.\bmp280.c    **** {
 2350              		.loc 1 1380 0
 2351              		.cfi_startproc
 2352              	.LVL234:
ARM GAS  C:\Users\Svilen\AppData\Local\Temp\ccFr0ira.s 			page 68


 2353 0000 F0B5     		push	{r4, r5, r6, r7, lr}
 2354              		.cfi_def_cfa_offset 20
 2355              		.cfi_offset 4, -20
 2356              		.cfi_offset 5, -16
 2357              		.cfi_offset 6, -12
 2358              		.cfi_offset 7, -8
 2359              		.cfi_offset 14, -4
 2360 0002 85B0     		sub	sp, sp, #20
 2361              		.cfi_def_cfa_offset 40
 2362 0004 071C     		mov	r7, r0
 2363              	.LVL235:
1381:.\bmp280.c    **** 	double v_x1_u32r = BMP280_INIT_VALUE;
1382:.\bmp280.c    **** 	double v_x2_u32r = BMP280_INIT_VALUE;
1383:.\bmp280.c    **** 	double pressure = BMP280_INIT_VALUE;
1384:.\bmp280.c    **** 
1385:.\bmp280.c    **** 	v_x1_u32r = ((double)p_bmp280->calib_param.t_fine/2.0) - 64000.0;
 2364              		.loc 1 1385 0
 2365 0006 7C4B     		ldr	r3, .L143
 2366 0008 1E68     		ldr	r6, [r3]
 2367 000a B069     		ldr	r0, [r6, #24]
 2368              	.LVL236:
 2369 000c FFF7FEFF 		bl	__aeabi_i2d
 2370              	.LVL237:
 2371 0010 0022     		mov	r2, #0
 2372 0012 7A4B     		ldr	r3, .L143+4
 2373 0014 FFF7FEFF 		bl	__aeabi_dmul
 2374              	.LVL238:
 2375 0018 0022     		mov	r2, #0
 2376 001a 794B     		ldr	r3, .L143+8
 2377 001c FFF7FEFF 		bl	__aeabi_dsub
 2378              	.LVL239:
 2379 0020 041C     		mov	r4, r0
 2380 0022 0D1C     		mov	r5, r1
 2381              	.LVL240:
1386:.\bmp280.c    **** 	v_x2_u32r = v_x1_u32r * v_x1_u32r *
 2382              		.loc 1 1386 0
 2383 0024 221C     		mov	r2, r4
 2384 0026 2B1C     		mov	r3, r5
 2385 0028 FFF7FEFF 		bl	__aeabi_dmul
 2386              	.LVL241:
 2387 002c 0090     		str	r0, [sp]
 2388 002e 0191     		str	r1, [sp, #4]
1387:.\bmp280.c    **** 	((double)p_bmp280->calib_param.dig_P6) / 32768.0;
 2389              		.loc 1 1387 0
 2390 0030 1023     		mov	r3, #16
 2391 0032 F05E     		ldrsh	r0, [r6, r3]
 2392 0034 FFF7FEFF 		bl	__aeabi_i2d
 2393              	.LVL242:
 2394 0038 021C     		mov	r2, r0
 2395 003a 0B1C     		mov	r3, r1
1386:.\bmp280.c    **** 	v_x2_u32r = v_x1_u32r * v_x1_u32r *
 2396              		.loc 1 1386 0
 2397 003c 0098     		ldr	r0, [sp]
 2398 003e 0199     		ldr	r1, [sp, #4]
 2399 0040 FFF7FEFF 		bl	__aeabi_dmul
 2400              	.LVL243:
 2401 0044 0022     		mov	r2, #0
ARM GAS  C:\Users\Svilen\AppData\Local\Temp\ccFr0ira.s 			page 69


 2402 0046 FC23     		mov	r3, #252
 2403 0048 9B05     		lsl	r3, r3, #22
 2404 004a FFF7FEFF 		bl	__aeabi_dmul
 2405              	.LVL244:
 2406 004e 0090     		str	r0, [sp]
 2407 0050 0191     		str	r1, [sp, #4]
 2408              	.LVL245:
1388:.\bmp280.c    **** 	v_x2_u32r = v_x2_u32r + v_x1_u32r *
1389:.\bmp280.c    **** 	((double)p_bmp280->calib_param.dig_P5) * 2.0;
 2409              		.loc 1 1389 0
 2410 0052 0E23     		mov	r3, #14
 2411 0054 F05E     		ldrsh	r0, [r6, r3]
 2412              	.LVL246:
 2413 0056 FFF7FEFF 		bl	__aeabi_i2d
 2414              	.LVL247:
1388:.\bmp280.c    **** 	v_x2_u32r = v_x2_u32r + v_x1_u32r *
 2415              		.loc 1 1388 0
 2416 005a 221C     		mov	r2, r4
 2417 005c 2B1C     		mov	r3, r5
 2418 005e FFF7FEFF 		bl	__aeabi_dmul
 2419              	.LVL248:
 2420 0062 021C     		mov	r2, r0
 2421 0064 0B1C     		mov	r3, r1
 2422              		.loc 1 1389 0
 2423 0066 FFF7FEFF 		bl	__aeabi_dadd
 2424              	.LVL249:
1388:.\bmp280.c    **** 	v_x2_u32r = v_x2_u32r + v_x1_u32r *
 2425              		.loc 1 1388 0
 2426 006a 009A     		ldr	r2, [sp]
 2427 006c 019B     		ldr	r3, [sp, #4]
 2428 006e FFF7FEFF 		bl	__aeabi_dadd
 2429              	.LVL250:
1390:.\bmp280.c    **** 	v_x2_u32r = (v_x2_u32r / 4.0) +
 2430              		.loc 1 1390 0
 2431 0072 0022     		mov	r2, #0
 2432 0074 634B     		ldr	r3, .L143+12
 2433 0076 FFF7FEFF 		bl	__aeabi_dmul
 2434              	.LVL251:
 2435 007a 0090     		str	r0, [sp]
 2436 007c 0191     		str	r1, [sp, #4]
1391:.\bmp280.c    **** 	(((double)p_bmp280->calib_param.dig_P4) * 65536.0);
 2437              		.loc 1 1391 0
 2438 007e 0C23     		mov	r3, #12
 2439 0080 F05E     		ldrsh	r0, [r6, r3]
 2440 0082 FFF7FEFF 		bl	__aeabi_i2d
 2441              	.LVL252:
 2442 0086 0022     		mov	r2, #0
 2443 0088 5F4B     		ldr	r3, .L143+16
 2444 008a FFF7FEFF 		bl	__aeabi_dmul
 2445              	.LVL253:
 2446 008e 021C     		mov	r2, r0
 2447 0090 0B1C     		mov	r3, r1
1390:.\bmp280.c    **** 	v_x2_u32r = (v_x2_u32r / 4.0) +
 2448              		.loc 1 1390 0
 2449 0092 0098     		ldr	r0, [sp]
 2450 0094 0199     		ldr	r1, [sp, #4]
 2451 0096 FFF7FEFF 		bl	__aeabi_dadd
ARM GAS  C:\Users\Svilen\AppData\Local\Temp\ccFr0ira.s 			page 70


 2452              	.LVL254:
 2453 009a 0290     		str	r0, [sp, #8]
 2454 009c 0391     		str	r1, [sp, #12]
 2455              	.LVL255:
1392:.\bmp280.c    **** 	v_x1_u32r = (((double)p_bmp280->calib_param.dig_P3) *
 2456              		.loc 1 1392 0
 2457 009e 0A23     		mov	r3, #10
 2458 00a0 F05E     		ldrsh	r0, [r6, r3]
 2459              	.LVL256:
 2460 00a2 FFF7FEFF 		bl	__aeabi_i2d
 2461              	.LVL257:
 2462 00a6 221C     		mov	r2, r4
 2463 00a8 2B1C     		mov	r3, r5
 2464 00aa FFF7FEFF 		bl	__aeabi_dmul
 2465              	.LVL258:
1393:.\bmp280.c    **** 		v_x1_u32r * v_x1_u32r / 524288.0 +
 2466              		.loc 1 1393 0
 2467 00ae 221C     		mov	r2, r4
 2468 00b0 2B1C     		mov	r3, r5
 2469 00b2 FFF7FEFF 		bl	__aeabi_dmul
 2470              	.LVL259:
 2471 00b6 0022     		mov	r2, #0
 2472 00b8 FB23     		mov	r3, #251
 2473 00ba 9B05     		lsl	r3, r3, #22
 2474 00bc FFF7FEFF 		bl	__aeabi_dmul
 2475              	.LVL260:
 2476 00c0 0090     		str	r0, [sp]
 2477 00c2 0191     		str	r1, [sp, #4]
1394:.\bmp280.c    **** 		((double)p_bmp280->calib_param.dig_P2) * v_x1_u32r) / 524288.0;
 2478              		.loc 1 1394 0
 2479 00c4 0823     		mov	r3, #8
 2480 00c6 F05E     		ldrsh	r0, [r6, r3]
 2481 00c8 FFF7FEFF 		bl	__aeabi_i2d
 2482              	.LVL261:
 2483 00cc 221C     		mov	r2, r4
 2484 00ce 2B1C     		mov	r3, r5
 2485 00d0 FFF7FEFF 		bl	__aeabi_dmul
 2486              	.LVL262:
 2487 00d4 021C     		mov	r2, r0
 2488 00d6 0B1C     		mov	r3, r1
1393:.\bmp280.c    **** 		v_x1_u32r * v_x1_u32r / 524288.0 +
 2489              		.loc 1 1393 0
 2490 00d8 0098     		ldr	r0, [sp]
 2491 00da 0199     		ldr	r1, [sp, #4]
 2492 00dc FFF7FEFF 		bl	__aeabi_dadd
 2493              	.LVL263:
1392:.\bmp280.c    **** 	v_x1_u32r = (((double)p_bmp280->calib_param.dig_P3) *
 2494              		.loc 1 1392 0
 2495 00e0 0022     		mov	r2, #0
 2496 00e2 FB23     		mov	r3, #251
 2497 00e4 9B05     		lsl	r3, r3, #22
 2498 00e6 FFF7FEFF 		bl	__aeabi_dmul
 2499              	.LVL264:
1395:.\bmp280.c    **** 	v_x1_u32r = (1.0 + v_x1_u32r / 32768.0) *
 2500              		.loc 1 1395 0
 2501 00ea 0022     		mov	r2, #0
 2502 00ec FC23     		mov	r3, #252
ARM GAS  C:\Users\Svilen\AppData\Local\Temp\ccFr0ira.s 			page 71


 2503 00ee 9B05     		lsl	r3, r3, #22
 2504 00f0 FFF7FEFF 		bl	__aeabi_dmul
 2505              	.LVL265:
 2506 00f4 0022     		mov	r2, #0
 2507 00f6 454B     		ldr	r3, .L143+20
 2508 00f8 FFF7FEFF 		bl	__aeabi_dadd
 2509              	.LVL266:
 2510 00fc 041C     		mov	r4, r0
 2511 00fe 0D1C     		mov	r5, r1
1396:.\bmp280.c    **** 	((double)p_bmp280->calib_param.dig_P1);
 2512              		.loc 1 1396 0
 2513 0100 F088     		ldrh	r0, [r6, #6]
 2514 0102 FFF7FEFF 		bl	__aeabi_ui2d
 2515              	.LVL267:
 2516 0106 021C     		mov	r2, r0
 2517 0108 0B1C     		mov	r3, r1
1395:.\bmp280.c    **** 	v_x1_u32r = (1.0 + v_x1_u32r / 32768.0) *
 2518              		.loc 1 1395 0
 2519 010a 201C     		mov	r0, r4
 2520 010c 291C     		mov	r1, r5
 2521 010e FFF7FEFF 		bl	__aeabi_dmul
 2522              	.LVL268:
 2523 0112 041C     		mov	r4, r0
 2524 0114 0D1C     		mov	r5, r1
 2525              	.LVL269:
1397:.\bmp280.c    **** 	pressure = 1048576.0 - (double)v_uncomp_pressure_s32;
 2526              		.loc 1 1397 0
 2527 0116 381C     		mov	r0, r7
 2528 0118 FFF7FEFF 		bl	__aeabi_i2d
 2529              	.LVL270:
 2530 011c 021C     		mov	r2, r0
 2531 011e 0B1C     		mov	r3, r1
 2532 0120 0020     		mov	r0, #0
 2533 0122 3B49     		ldr	r1, .L143+24
 2534 0124 FFF7FEFF 		bl	__aeabi_dsub
 2535              	.LVL271:
 2536 0128 0090     		str	r0, [sp]
 2537 012a 0191     		str	r1, [sp, #4]
 2538              	.LVL272:
1398:.\bmp280.c    **** 	/* Avoid exception caused by division by zero */
1399:.\bmp280.c    **** 	if ((v_x1_u32r > 0) || (v_x1_u32r < 0))
 2539              		.loc 1 1399 0
 2540 012c 201C     		mov	r0, r4
 2541              	.LVL273:
 2542 012e 291C     		mov	r1, r5
 2543 0130 0022     		mov	r2, #0
 2544 0132 0023     		mov	r3, #0
 2545 0134 FFF7FEFF 		bl	__aeabi_dcmpun
 2546              	.LVL274:
 2547 0138 0028     		cmp	r0, #0
 2548 013a 58D1     		bne	.L141
 2549 013c 201C     		mov	r0, r4
 2550 013e 291C     		mov	r1, r5
 2551 0140 0022     		mov	r2, #0
 2552 0142 0023     		mov	r3, #0
 2553 0144 FFF7FEFF 		bl	__aeabi_dcmpeq
 2554              	.LVL275:
ARM GAS  C:\Users\Svilen\AppData\Local\Temp\ccFr0ira.s 			page 72


 2555 0148 0028     		cmp	r0, #0
 2556 014a 50D1     		bne	.L141
1400:.\bmp280.c    **** 		pressure = (pressure - (v_x2_u32r / 4096.0)) *
 2557              		.loc 1 1400 0
 2558 014c 0298     		ldr	r0, [sp, #8]
 2559 014e 0399     		ldr	r1, [sp, #12]
 2560 0150 0022     		mov	r2, #0
 2561 0152 304B     		ldr	r3, .L143+28
 2562 0154 FFF7FEFF 		bl	__aeabi_dmul
 2563              	.LVL276:
 2564 0158 021C     		mov	r2, r0
 2565 015a 0B1C     		mov	r3, r1
 2566 015c 0098     		ldr	r0, [sp]
 2567 015e 0199     		ldr	r1, [sp, #4]
 2568 0160 FFF7FEFF 		bl	__aeabi_dsub
 2569              	.LVL277:
 2570 0164 0022     		mov	r2, #0
 2571 0166 2C4B     		ldr	r3, .L143+32
 2572 0168 FFF7FEFF 		bl	__aeabi_dmul
 2573              	.LVL278:
 2574 016c 221C     		mov	r2, r4
 2575 016e 2B1C     		mov	r3, r5
 2576 0170 FFF7FEFF 		bl	__aeabi_ddiv
 2577              	.LVL279:
 2578 0174 041C     		mov	r4, r0
 2579              	.LVL280:
 2580 0176 0D1C     		mov	r5, r1
 2581              	.LVL281:
1401:.\bmp280.c    **** 					6250.0 / v_x1_u32r;
1402:.\bmp280.c    **** 	else
1403:.\bmp280.c    **** 	return BMP280_INVALID_DATA;
1404:.\bmp280.c    **** 	v_x1_u32r = ((double)p_bmp280->calib_param.dig_P9) *
 2582              		.loc 1 1404 0
 2583 0178 1623     		mov	r3, #22
 2584 017a F05E     		ldrsh	r0, [r6, r3]
 2585 017c FFF7FEFF 		bl	__aeabi_i2d
 2586              	.LVL282:
 2587 0180 221C     		mov	r2, r4
 2588 0182 2B1C     		mov	r3, r5
 2589 0184 FFF7FEFF 		bl	__aeabi_dmul
 2590              	.LVL283:
1405:.\bmp280.c    **** 	pressure * pressure / 2147483648.0;
 2591              		.loc 1 1405 0
 2592 0188 221C     		mov	r2, r4
 2593 018a 2B1C     		mov	r3, r5
 2594 018c FFF7FEFF 		bl	__aeabi_dmul
 2595              	.LVL284:
1404:.\bmp280.c    **** 	pressure * pressure / 2147483648.0;
 2596              		.loc 1 1404 0
 2597 0190 0022     		mov	r2, #0
 2598 0192 F823     		mov	r3, #248
 2599 0194 9B05     		lsl	r3, r3, #22
 2600 0196 FFF7FEFF 		bl	__aeabi_dmul
 2601              	.LVL285:
 2602 019a 0090     		str	r0, [sp]
 2603 019c 0191     		str	r1, [sp, #4]
 2604              	.LVL286:
ARM GAS  C:\Users\Svilen\AppData\Local\Temp\ccFr0ira.s 			page 73


1406:.\bmp280.c    **** 	v_x2_u32r = pressure * ((double)p_bmp280->calib_param.dig_P8) / 32768.0;
 2605              		.loc 1 1406 0
 2606 019e 1423     		mov	r3, #20
 2607 01a0 F05E     		ldrsh	r0, [r6, r3]
 2608              	.LVL287:
 2609 01a2 FFF7FEFF 		bl	__aeabi_i2d
 2610              	.LVL288:
 2611 01a6 221C     		mov	r2, r4
 2612 01a8 2B1C     		mov	r3, r5
 2613 01aa FFF7FEFF 		bl	__aeabi_dmul
 2614              	.LVL289:
 2615 01ae 0022     		mov	r2, #0
 2616 01b0 FC23     		mov	r3, #252
 2617 01b2 9B05     		lsl	r3, r3, #22
 2618 01b4 FFF7FEFF 		bl	__aeabi_dmul
 2619              	.LVL290:
 2620 01b8 021C     		mov	r2, r0
 2621 01ba 0B1C     		mov	r3, r1
 2622              	.LVL291:
1407:.\bmp280.c    **** 	pressure = pressure + (v_x1_u32r + v_x2_u32r +
 2623              		.loc 1 1407 0
 2624 01bc 0098     		ldr	r0, [sp]
 2625 01be 0199     		ldr	r1, [sp, #4]
 2626 01c0 FFF7FEFF 		bl	__aeabi_dadd
 2627              	.LVL292:
 2628 01c4 0090     		str	r0, [sp]
 2629 01c6 0191     		str	r1, [sp, #4]
 2630              	.LVL293:
1408:.\bmp280.c    **** 			((double)p_bmp280->calib_param.dig_P7)) / 16.0;
 2631              		.loc 1 1408 0
 2632 01c8 1223     		mov	r3, #18
 2633 01ca F05E     		ldrsh	r0, [r6, r3]
 2634 01cc FFF7FEFF 		bl	__aeabi_i2d
 2635              	.LVL294:
 2636 01d0 021C     		mov	r2, r0
 2637 01d2 0B1C     		mov	r3, r1
1407:.\bmp280.c    **** 	pressure = pressure + (v_x1_u32r + v_x2_u32r +
 2638              		.loc 1 1407 0
 2639 01d4 0098     		ldr	r0, [sp]
 2640 01d6 0199     		ldr	r1, [sp, #4]
 2641 01d8 FFF7FEFF 		bl	__aeabi_dadd
 2642              	.LVL295:
 2643              		.loc 1 1408 0
 2644 01dc 0022     		mov	r2, #0
 2645 01de 0F4B     		ldr	r3, .L143+36
 2646 01e0 FFF7FEFF 		bl	__aeabi_dmul
 2647              	.LVL296:
1407:.\bmp280.c    **** 	pressure = pressure + (v_x1_u32r + v_x2_u32r +
 2648              		.loc 1 1407 0
 2649 01e4 221C     		mov	r2, r4
 2650 01e6 2B1C     		mov	r3, r5
 2651 01e8 FFF7FEFF 		bl	__aeabi_dadd
 2652              	.LVL297:
1409:.\bmp280.c    **** 
1410:.\bmp280.c    **** 	return pressure;
 2653              		.loc 1 1410 0
 2654 01ec 01E0     		b	.L139
ARM GAS  C:\Users\Svilen\AppData\Local\Temp\ccFr0ira.s 			page 74


 2655              	.LVL298:
 2656              	.L141:
1403:.\bmp280.c    **** 	v_x1_u32r = ((double)p_bmp280->calib_param.dig_P9) *
 2657              		.loc 1 1403 0
 2658 01ee 0020     		mov	r0, #0
 2659 01f0 0021     		mov	r1, #0
 2660              	.LVL299:
 2661              	.L139:
1411:.\bmp280.c    **** }
 2662              		.loc 1 1411 0
 2663 01f2 05B0     		add	sp, sp, #20
 2664              		@ sp needed
 2665              	.LVL300:
 2666 01f4 F0BD     		pop	{r4, r5, r6, r7, pc}
 2667              	.L144:
 2668 01f6 C046     		.align	2
 2669              	.L143:
 2670 01f8 00000000 		.word	.LANCHOR0
 2671 01fc 0000E03F 		.word	1071644672
 2672 0200 0040EF40 		.word	1089421312
 2673 0204 0000D03F 		.word	1070596096
 2674 0208 0000F040 		.word	1089470464
 2675 020c 0000F03F 		.word	1072693248
 2676 0210 00003041 		.word	1093664768
 2677 0214 0000303F 		.word	1060110336
 2678 0218 006AB840 		.word	1085827584
 2679 021c 0000B03F 		.word	1068498944
 2680              		.cfi_endproc
 2681              	.LFE26:
 2682              		.size	bmp280_compensate_pressure_double, .-bmp280_compensate_pressure_double
 2683              		.global	__aeabi_lmul
 2684              		.global	__aeabi_ldivmod
 2685              		.section	.text.bmp280_compensate_pressure_int64,"ax",%progbits
 2686              		.align	2
 2687              		.global	bmp280_compensate_pressure_int64
 2688              		.code	16
 2689              		.thumb_func
 2690              		.type	bmp280_compensate_pressure_int64, %function
 2691              	bmp280_compensate_pressure_int64:
 2692              	.LFB27:
1412:.\bmp280.c    **** #endif
1413:.\bmp280.c    **** #if defined(BMP280_ENABLE_INT64) && defined(BMP280_64BITSUPPORT_PRESENT)
1414:.\bmp280.c    **** /*!
1415:.\bmp280.c    ****  * @brief This API used to read actual pressure from uncompensated pressure
1416:.\bmp280.c    ****  * @note returns the value in Pa as unsigned 32 bit
1417:.\bmp280.c    ****  * integer in Q24.8 format (24 integer bits and
1418:.\bmp280.c    ****  * 8 fractional bits). Output value of "24674867"
1419:.\bmp280.c    ****  * represents 24674867 / 256 = 96386.2 Pa = 963.862 hPa
1420:.\bmp280.c    ****  *
1421:.\bmp280.c    ****  *
1422:.\bmp280.c    ****  *
1423:.\bmp280.c    ****  *  @param v_uncomp_pressure_s32 : value of uncompensated pressure
1424:.\bmp280.c    ****  *
1425:.\bmp280.c    ****  *
1426:.\bmp280.c    ****  *
1427:.\bmp280.c    ****  *  @return actual pressure as 64bit output
1428:.\bmp280.c    ****  *
ARM GAS  C:\Users\Svilen\AppData\Local\Temp\ccFr0ira.s 			page 75


1429:.\bmp280.c    ****  */
1430:.\bmp280.c    **** u32 bmp280_compensate_pressure_int64(s32 v_uncomp_pressure_s32)
1431:.\bmp280.c    **** {
 2693              		.loc 1 1431 0
 2694              		.cfi_startproc
 2695              	.LVL301:
 2696 0000 F0B5     		push	{r4, r5, r6, r7, lr}
 2697              		.cfi_def_cfa_offset 20
 2698              		.cfi_offset 4, -20
 2699              		.cfi_offset 5, -16
 2700              		.cfi_offset 6, -12
 2701              		.cfi_offset 7, -8
 2702              		.cfi_offset 14, -4
 2703 0002 5746     		mov	r7, r10
 2704 0004 4E46     		mov	r6, r9
 2705 0006 4546     		mov	r5, r8
 2706 0008 E0B4     		push	{r5, r6, r7}
 2707              		.cfi_def_cfa_offset 32
 2708              		.cfi_offset 8, -32
 2709              		.cfi_offset 9, -28
 2710              		.cfi_offset 10, -24
 2711 000a 84B0     		sub	sp, sp, #16
 2712              		.cfi_def_cfa_offset 48
 2713 000c 8146     		mov	r9, r0
 2714              	.LVL302:
1432:.\bmp280.c    **** 	s64 v_x1_s64r = BMP280_INIT_VALUE;
1433:.\bmp280.c    **** 	s64 v_x2_s64r = BMP280_INIT_VALUE;
1434:.\bmp280.c    **** 	s64 pressure = BMP280_INIT_VALUE;
1435:.\bmp280.c    **** 	/* calculate x1*/
1436:.\bmp280.c    **** 	v_x1_s64r = ((s64)p_bmp280->calib_param.t_fine) - 128000;
 2715              		.loc 1 1436 0
 2716 000e 564B     		ldr	r3, .L149
 2717 0010 1B68     		ldr	r3, [r3]
 2718 0012 9846     		mov	r8, r3
 2719 0014 4146     		mov	r1, r8
 2720 0016 8A69     		ldr	r2, [r1, #24]
 2721 0018 D317     		asr	r3, r2, #31
 2722 001a 544E     		ldr	r6, .L149+4
 2723 001c 0127     		mov	r7, #1
 2724 001e 7F42     		neg	r7, r7
 2725 0020 B618     		add	r6, r6, r2
 2726 0022 5F41     		adc	r7, r7, r3
 2727              	.LVL303:
1437:.\bmp280.c    **** 	v_x2_s64r = v_x1_s64r * v_x1_s64r *
 2728              		.loc 1 1437 0
 2729 0024 301C     		mov	r0, r6
 2730              	.LVL304:
 2731 0026 391C     		mov	r1, r7
 2732 0028 321C     		mov	r2, r6
 2733 002a 3B1C     		mov	r3, r7
 2734 002c FFF7FEFF 		bl	__aeabi_lmul
 2735              	.LVL305:
1438:.\bmp280.c    **** 	(s64)p_bmp280->calib_param.dig_P6;
 2736              		.loc 1 1438 0
 2737 0030 4346     		mov	r3, r8
 2738 0032 1022     		mov	r2, #16
 2739 0034 9A5E     		ldrsh	r2, [r3, r2]
ARM GAS  C:\Users\Svilen\AppData\Local\Temp\ccFr0ira.s 			page 76


 2740 0036 D317     		asr	r3, r2, #31
1437:.\bmp280.c    **** 	v_x2_s64r = v_x1_s64r * v_x1_s64r *
 2741              		.loc 1 1437 0
 2742 0038 0090     		str	r0, [sp]
 2743 003a 0191     		str	r1, [sp, #4]
 2744 003c FFF7FEFF 		bl	__aeabi_lmul
 2745              	.LVL306:
 2746 0040 041C     		mov	r4, r0
 2747 0042 0D1C     		mov	r5, r1
 2748              	.LVL307:
1439:.\bmp280.c    **** 	/* calculate x2*/
1440:.\bmp280.c    **** 	v_x2_s64r = v_x2_s64r + ((v_x1_s64r * (s64)p_bmp280->calib_param.dig_P5)
 2749              		.loc 1 1440 0
 2750 0044 4346     		mov	r3, r8
 2751 0046 0E20     		mov	r0, #14
 2752 0048 185E     		ldrsh	r0, [r3, r0]
 2753 004a C117     		asr	r1, r0, #31
 2754 004c 321C     		mov	r2, r6
 2755 004e 3B1C     		mov	r3, r7
 2756 0050 FFF7FEFF 		bl	__aeabi_lmul
 2757              	.LVL308:
1441:.\bmp280.c    **** 			<< BMP280_SHIFT_BIT_POSITION_BY_17_BITS);
 2758              		.loc 1 1441 0
 2759 0054 C30B     		lsr	r3, r0, #15
 2760 0056 9A46     		mov	r10, r3
 2761 0058 4B04     		lsl	r3, r1, #17
 2762 005a 5146     		mov	r1, r10
 2763 005c 0B43     		orr	r3, r1
 2764 005e 4204     		lsl	r2, r0, #17
1440:.\bmp280.c    **** 			<< BMP280_SHIFT_BIT_POSITION_BY_17_BITS);
 2765              		.loc 1 1440 0
 2766 0060 A418     		add	r4, r4, r2
 2767 0062 5D41     		adc	r5, r5, r3
 2768              	.LVL309:
1442:.\bmp280.c    **** 	v_x2_s64r = v_x2_s64r +
1443:.\bmp280.c    **** 	(((s64)p_bmp280->calib_param.dig_P4)
 2769              		.loc 1 1443 0
 2770 0064 4346     		mov	r3, r8
 2771 0066 0C21     		mov	r1, #12
 2772 0068 595E     		ldrsh	r1, [r3, r1]
1444:.\bmp280.c    **** 			<< BMP280_SHIFT_BIT_POSITION_BY_35_BITS);
 2773              		.loc 1 1444 0
 2774 006a 0022     		mov	r2, #0
 2775 006c CB00     		lsl	r3, r1, #3
1442:.\bmp280.c    **** 	v_x2_s64r = v_x2_s64r +
 2776              		.loc 1 1442 0
 2777 006e 1219     		add	r2, r2, r4
 2778 0070 6B41     		adc	r3, r3, r5
 2779 0072 0292     		str	r2, [sp, #8]
 2780 0074 0393     		str	r3, [sp, #12]
 2781              	.LVL310:
1445:.\bmp280.c    **** 	v_x1_s64r = ((v_x1_s64r * v_x1_s64r *
1446:.\bmp280.c    **** 			(s64)p_bmp280->calib_param.dig_P3)
 2782              		.loc 1 1446 0
 2783 0076 4346     		mov	r3, r8
 2784 0078 0A22     		mov	r2, #10
 2785 007a 9A5E     		ldrsh	r2, [r3, r2]
ARM GAS  C:\Users\Svilen\AppData\Local\Temp\ccFr0ira.s 			page 77


 2786              	.LVL311:
 2787 007c D317     		asr	r3, r2, #31
1445:.\bmp280.c    **** 	v_x1_s64r = ((v_x1_s64r * v_x1_s64r *
 2788              		.loc 1 1445 0
 2789 007e 0098     		ldr	r0, [sp]
 2790 0080 0199     		ldr	r1, [sp, #4]
 2791 0082 FFF7FEFF 		bl	__aeabi_lmul
 2792              	.LVL312:
1447:.\bmp280.c    **** 			>> BMP280_SHIFT_BIT_POSITION_BY_08_BITS) +
 2793              		.loc 1 1447 0
 2794 0086 0B06     		lsl	r3, r1, #24
 2795 0088 040A     		lsr	r4, r0, #8
 2796 008a 1C43     		orr	r4, r3
 2797 008c 0D12     		asr	r5, r1, #8
1448:.\bmp280.c    **** 	((v_x1_s64r * (s64)p_bmp280->calib_param.dig_P2)
 2798              		.loc 1 1448 0
 2799 008e 4346     		mov	r3, r8
 2800 0090 0820     		mov	r0, #8
 2801 0092 185E     		ldrsh	r0, [r3, r0]
 2802 0094 C117     		asr	r1, r0, #31
 2803 0096 321C     		mov	r2, r6
 2804 0098 3B1C     		mov	r3, r7
 2805 009a FFF7FEFF 		bl	__aeabi_lmul
 2806              	.LVL313:
1449:.\bmp280.c    **** 			<< BMP280_SHIFT_BIT_POSITION_BY_12_BITS);
 2807              		.loc 1 1449 0
 2808 009e 060D     		lsr	r6, r0, #20
 2809              	.LVL314:
 2810 00a0 0B03     		lsl	r3, r1, #12
 2811 00a2 3343     		orr	r3, r6
 2812 00a4 0203     		lsl	r2, r0, #12
1445:.\bmp280.c    **** 			(s64)p_bmp280->calib_param.dig_P3)
 2813              		.loc 1 1445 0
 2814 00a6 A418     		add	r4, r4, r2
 2815 00a8 5D41     		adc	r5, r5, r3
 2816              	.LVL315:
1450:.\bmp280.c    **** 	v_x1_s64r = (((((s64)1) << BMP280_SHIFT_BIT_POSITION_BY_47_BITS)
1451:.\bmp280.c    **** 			+ v_x1_s64r)) * ((s64)p_bmp280->calib_param.dig_P1) >>
 2817              		.loc 1 1451 0
 2818 00aa 0020     		mov	r0, #0
 2819 00ac 8021     		mov	r1, #128
 2820 00ae 0902     		lsl	r1, r1, #8
 2821 00b0 0019     		add	r0, r0, r4
 2822 00b2 6941     		adc	r1, r1, r5
 2823 00b4 4346     		mov	r3, r8
 2824 00b6 DA88     		ldrh	r2, [r3, #6]
 2825 00b8 0023     		mov	r3, #0
 2826 00ba FFF7FEFF 		bl	__aeabi_lmul
 2827              	.LVL316:
1450:.\bmp280.c    **** 	v_x1_s64r = (((((s64)1) << BMP280_SHIFT_BIT_POSITION_BY_47_BITS)
 2828              		.loc 1 1450 0
 2829 00be 4D10     		asr	r5, r1, #1
 2830 00c0 CC17     		asr	r4, r1, #31
 2831              	.LVL317:
1452:.\bmp280.c    **** 			BMP280_SHIFT_BIT_POSITION_BY_33_BITS;
1453:.\bmp280.c    **** 	pressure = 1048576 - v_uncomp_pressure_s32;
 2832              		.loc 1 1453 0
ARM GAS  C:\Users\Svilen\AppData\Local\Temp\ccFr0ira.s 			page 78


 2833 00c2 8023     		mov	r3, #128
 2834 00c4 5B03     		lsl	r3, r3, #13
 2835 00c6 4946     		mov	r1, r9
 2836 00c8 5B1A     		sub	r3, r3, r1
 2837 00ca DE17     		asr	r6, r3, #31
 2838              	.LVL318:
1454:.\bmp280.c    **** 	if (v_x1_s64r != BMP280_INIT_VALUE)
 2839              		.loc 1 1454 0
 2840 00cc 291C     		mov	r1, r5
 2841 00ce 2143     		orr	r1, r4
 2842 00d0 43D0     		beq	.L148
1455:.\bmp280.c    **** #if defined __KERNEL__
1456:.\bmp280.c    **** 		pressure = div64_s64((((pressure
1457:.\bmp280.c    **** 				<< BMP280_SHIFT_BIT_POSITION_BY_31_BITS)
1458:.\bmp280.c    **** 				- v_x2_s64r) * 3125), v_x1_s64r);
1459:.\bmp280.c    **** #else
1460:.\bmp280.c    **** 		pressure = (((pressure
1461:.\bmp280.c    **** 				<< BMP280_SHIFT_BIT_POSITION_BY_31_BITS)
 2843              		.loc 1 1461 0
 2844 00d2 5A08     		lsr	r2, r3, #1
 2845 00d4 F107     		lsl	r1, r6, #31
 2846 00d6 1143     		orr	r1, r2
 2847 00d8 D807     		lsl	r0, r3, #31
1462:.\bmp280.c    **** 				- v_x2_s64r) * 3125) / v_x1_s64r;
 2848              		.loc 1 1462 0
 2849 00da 029A     		ldr	r2, [sp, #8]
 2850 00dc 039B     		ldr	r3, [sp, #12]
 2851 00de 801A     		sub	r0, r0, r2
 2852 00e0 9941     		sbc	r1, r1, r3
 2853 00e2 234A     		ldr	r2, .L149+8
 2854 00e4 0023     		mov	r3, #0
 2855              	.LVL319:
 2856 00e6 FFF7FEFF 		bl	__aeabi_lmul
 2857              	.LVL320:
1460:.\bmp280.c    **** 				<< BMP280_SHIFT_BIT_POSITION_BY_31_BITS)
 2858              		.loc 1 1460 0
 2859 00ea 2A1C     		mov	r2, r5
 2860 00ec 231C     		mov	r3, r4
 2861 00ee FFF7FEFF 		bl	__aeabi_ldivmod
 2862              	.LVL321:
 2863 00f2 061C     		mov	r6, r0
 2864              	.LVL322:
 2865 00f4 0F1C     		mov	r7, r1
 2866              	.LVL323:
1463:.\bmp280.c    **** #endif
1464:.\bmp280.c    **** 	else
1465:.\bmp280.c    **** 		return BMP280_INVALID_DATA;
1466:.\bmp280.c    **** 	v_x1_s64r = (((s64)p_bmp280->calib_param.dig_P9) *
 2867              		.loc 1 1466 0
 2868 00f6 4346     		mov	r3, r8
 2869 00f8 1620     		mov	r0, #22
 2870 00fa 185E     		ldrsh	r0, [r3, r0]
 2871 00fc C117     		asr	r1, r0, #31
1467:.\bmp280.c    **** 			(pressure >> BMP280_SHIFT_BIT_POSITION_BY_13_BITS) *
 2872              		.loc 1 1467 0
 2873 00fe FB04     		lsl	r3, r7, #19
 2874 0100 750B     		lsr	r5, r6, #13
ARM GAS  C:\Users\Svilen\AppData\Local\Temp\ccFr0ira.s 			page 79


 2875              	.LVL324:
 2876 0102 1D43     		orr	r5, r3
 2877 0104 7C13     		asr	r4, r7, #13
1466:.\bmp280.c    **** 			(pressure >> BMP280_SHIFT_BIT_POSITION_BY_13_BITS) *
 2878              		.loc 1 1466 0
 2879 0106 2A1C     		mov	r2, r5
 2880 0108 231C     		mov	r3, r4
 2881 010a FFF7FEFF 		bl	__aeabi_lmul
 2882              	.LVL325:
 2883 010e 021C     		mov	r2, r0
 2884 0110 0B1C     		mov	r3, r1
 2885              		.loc 1 1467 0
 2886 0112 281C     		mov	r0, r5
 2887 0114 211C     		mov	r1, r4
 2888 0116 FFF7FEFF 		bl	__aeabi_lmul
 2889              	.LVL326:
1466:.\bmp280.c    **** 			(pressure >> BMP280_SHIFT_BIT_POSITION_BY_13_BITS) *
 2890              		.loc 1 1466 0
 2891 011a CB01     		lsl	r3, r1, #7
 2892 011c 440E     		lsr	r4, r0, #25
 2893 011e 1C43     		orr	r4, r3
 2894 0120 4D16     		asr	r5, r1, #25
 2895              	.LVL327:
1468:.\bmp280.c    **** 			(pressure >> BMP280_SHIFT_BIT_POSITION_BY_13_BITS))
1469:.\bmp280.c    **** 	>> BMP280_SHIFT_BIT_POSITION_BY_25_BITS;
1470:.\bmp280.c    **** 	v_x2_s64r = (((s64)p_bmp280->calib_param.dig_P8) *
 2896              		.loc 1 1470 0
 2897 0122 4346     		mov	r3, r8
 2898 0124 1420     		mov	r0, #20
 2899 0126 185E     		ldrsh	r0, [r3, r0]
 2900 0128 C117     		asr	r1, r0, #31
 2901 012a 321C     		mov	r2, r6
 2902 012c 3B1C     		mov	r3, r7
 2903 012e FFF7FEFF 		bl	__aeabi_lmul
 2904              	.LVL328:
 2905 0132 4B03     		lsl	r3, r1, #13
 2906 0134 9946     		mov	r9, r3
 2907              	.LVL329:
 2908 0136 C20C     		lsr	r2, r0, #19
 2909 0138 4846     		mov	r0, r9
 2910 013a 0243     		orr	r2, r0
 2911 013c CB14     		asr	r3, r1, #19
 2912              	.LVL330:
1471:.\bmp280.c    **** 			pressure) >> BMP280_SHIFT_BIT_POSITION_BY_19_BITS;
1472:.\bmp280.c    **** 	/* calculate pressure*/
1473:.\bmp280.c    **** 	pressure = ((pressure + v_x1_s64r + v_x2_s64r)
 2913              		.loc 1 1473 0
 2914 013e A419     		add	r4, r4, r6
 2915 0140 7D41     		adc	r5, r5, r7
 2916              	.LVL331:
 2917 0142 1219     		add	r2, r2, r4
 2918 0144 6B41     		adc	r3, r3, r5
 2919              	.LVL332:
 2920 0146 111C     		mov	r1, r2
1474:.\bmp280.c    **** 			>> BMP280_SHIFT_BIT_POSITION_BY_08_BITS) +
 2921              		.loc 1 1474 0
 2922 0148 1B06     		lsl	r3, r3, #24
ARM GAS  C:\Users\Svilen\AppData\Local\Temp\ccFr0ira.s 			page 80


 2923 014a 080A     		lsr	r0, r1, #8
 2924 014c 1843     		orr	r0, r3
1475:.\bmp280.c    **** 	(((s64)p_bmp280->calib_param.dig_P7)
 2925              		.loc 1 1475 0
 2926 014e 4346     		mov	r3, r8
 2927 0150 1222     		mov	r2, #18
 2928 0152 9A5E     		ldrsh	r2, [r3, r2]
1476:.\bmp280.c    **** 			<< BMP280_SHIFT_BIT_POSITION_BY_04_BITS);
 2929              		.loc 1 1476 0
 2930 0154 1301     		lsl	r3, r2, #4
 2931              	.LVL333:
1477:.\bmp280.c    **** 	return (u32)pressure;
 2932              		.loc 1 1477 0
 2933 0156 C018     		add	r0, r0, r3
 2934 0158 00E0     		b	.L146
 2935              	.LVL334:
 2936              	.L148:
1465:.\bmp280.c    **** 	v_x1_s64r = (((s64)p_bmp280->calib_param.dig_P9) *
 2937              		.loc 1 1465 0
 2938 015a 0020     		mov	r0, #0
 2939              	.LVL335:
 2940              	.L146:
1478:.\bmp280.c    **** }
 2941              		.loc 1 1478 0
 2942 015c 04B0     		add	sp, sp, #16
 2943              		@ sp needed
 2944 015e 1CBC     		pop	{r2, r3, r4}
 2945 0160 9046     		mov	r8, r2
 2946 0162 9946     		mov	r9, r3
 2947 0164 A246     		mov	r10, r4
 2948 0166 F0BD     		pop	{r4, r5, r6, r7, pc}
 2949              	.L150:
 2950              		.align	2
 2951              	.L149:
 2952 0168 00000000 		.word	.LANCHOR0
 2953 016c 000CFEFF 		.word	-128000
 2954 0170 350C0000 		.word	3125
 2955              		.cfi_endproc
 2956              	.LFE27:
 2957              		.size	bmp280_compensate_pressure_int64, .-bmp280_compensate_pressure_int64
 2958              		.section	.text.bmp280_compute_wait_time,"ax",%progbits
 2959              		.align	2
 2960              		.global	bmp280_compute_wait_time
 2961              		.code	16
 2962              		.thumb_func
 2963              		.type	bmp280_compute_wait_time, %function
 2964              	bmp280_compute_wait_time:
 2965              	.LFB28:
1479:.\bmp280.c    **** #endif
1480:.\bmp280.c    **** /*!
1481:.\bmp280.c    ****  * @brief Computing waiting time for sensor data read
1482:.\bmp280.c    ****  *
1483:.\bmp280.c    ****  *
1484:.\bmp280.c    ****  *
1485:.\bmp280.c    ****  *
1486:.\bmp280.c    ****  *  @param v_delaytime_u8r: The value of delay time
1487:.\bmp280.c    ****  *
ARM GAS  C:\Users\Svilen\AppData\Local\Temp\ccFr0ira.s 			page 81


1488:.\bmp280.c    ****  *
1489:.\bmp280.c    ****  *  @return 0
1490:.\bmp280.c    ****  *
1491:.\bmp280.c    ****  *
1492:.\bmp280.c    ****  */
1493:.\bmp280.c    **** BMP280_RETURN_FUNCTION_TYPE bmp280_compute_wait_time(u8 *v_delaytime_u8r)
1494:.\bmp280.c    **** {
 2966              		.loc 1 1494 0
 2967              		.cfi_startproc
 2968              	.LVL336:
 2969 0000 10B5     		push	{r4, lr}
 2970              		.cfi_def_cfa_offset 8
 2971              		.cfi_offset 4, -8
 2972              		.cfi_offset 14, -4
 2973              	.LVL337:
1495:.\bmp280.c    **** 	/* variable used to return communication result*/
1496:.\bmp280.c    **** 	BMP280_RETURN_FUNCTION_TYPE com_rslt = SUCCESS;
1497:.\bmp280.c    **** 
1498:.\bmp280.c    **** 	*v_delaytime_u8r = (T_INIT_MAX + T_MEASURE_PER_OSRS_MAX * (((1
1499:.\bmp280.c    **** 			<< p_bmp280->oversamp_temperature)
 2974              		.loc 1 1499 0
 2975 0002 0F4B     		ldr	r3, .L154
 2976 0004 1968     		ldr	r1, [r3]
 2977 0006 8B7F     		ldrb	r3, [r1, #30]
 2978 0008 0122     		mov	r2, #1
 2979 000a 141C     		mov	r4, r2
 2980 000c 9C40     		lsl	r4, r4, r3
1500:.\bmp280.c    **** 			>> BMP280_SHIFT_BIT_POSITION_BY_01_BIT)
 2981              		.loc 1 1500 0
 2982 000e 6310     		asr	r3, r4, #1
1501:.\bmp280.c    **** 			+ ((1 << p_bmp280->oversamp_pressure)
 2983              		.loc 1 1501 0
 2984 0010 C97F     		ldrb	r1, [r1, #31]
 2985 0012 8A40     		lsl	r2, r2, r1
1502:.\bmp280.c    **** 			>> BMP280_SHIFT_BIT_POSITION_BY_01_BIT))
 2986              		.loc 1 1502 0
 2987 0014 5210     		asr	r2, r2, #1
1501:.\bmp280.c    **** 			+ ((1 << p_bmp280->oversamp_pressure)
 2988              		.loc 1 1501 0
 2989 0016 9B18     		add	r3, r3, r2
1498:.\bmp280.c    **** 			<< p_bmp280->oversamp_temperature)
 2990              		.loc 1 1498 0
 2991 0018 DA00     		lsl	r2, r3, #3
 2992 001a D218     		add	r2, r2, r3
 2993 001c 9200     		lsl	r2, r2, #2
 2994 001e D318     		add	r3, r2, r3
 2995 0020 1433     		add	r3, r3, #20
1503:.\bmp280.c    **** 			+ ((p_bmp280->oversamp_pressure > 0) ?
1504:.\bmp280.c    **** 			T_SETUP_PRESSURE_MAX : 0) + 15) / 16;
 2996              		.loc 1 1504 0
 2997 0022 0029     		cmp	r1, #0
 2998 0024 01D0     		beq	.L153
 2999 0026 0A22     		mov	r2, #10
 3000 0028 00E0     		b	.L152
 3001              	.L153:
 3002 002a 0022     		mov	r2, #0
 3003              	.L152:
ARM GAS  C:\Users\Svilen\AppData\Local\Temp\ccFr0ira.s 			page 82


1503:.\bmp280.c    **** 			+ ((p_bmp280->oversamp_pressure > 0) ?
 3004              		.loc 1 1503 0
 3005 002c 9B18     		add	r3, r3, r2
 3006              		.loc 1 1504 0
 3007 002e 0F33     		add	r3, r3, #15
 3008 0030 DA17     		asr	r2, r3, #31
 3009 0032 120F     		lsr	r2, r2, #28
 3010 0034 D318     		add	r3, r2, r3
 3011 0036 1B11     		asr	r3, r3, #4
1498:.\bmp280.c    **** 			<< p_bmp280->oversamp_temperature)
 3012              		.loc 1 1498 0
 3013 0038 0370     		strb	r3, [r0]
1505:.\bmp280.c    **** 	return com_rslt;
1506:.\bmp280.c    **** }
 3014              		.loc 1 1506 0
 3015 003a 0020     		mov	r0, #0
 3016              	.LVL338:
 3017              		@ sp needed
 3018 003c 10BD     		pop	{r4, pc}
 3019              	.L155:
 3020 003e C046     		.align	2
 3021              	.L154:
 3022 0040 00000000 		.word	.LANCHOR0
 3023              		.cfi_endproc
 3024              	.LFE28:
 3025              		.size	bmp280_compute_wait_time, .-bmp280_compute_wait_time
 3026              		.section	.text.bmp280_get_forced_uncomp_pressure_temperature,"ax",%progbits
 3027              		.align	2
 3028              		.global	bmp280_get_forced_uncomp_pressure_temperature
 3029              		.code	16
 3030              		.thumb_func
 3031              		.type	bmp280_get_forced_uncomp_pressure_temperature, %function
 3032              	bmp280_get_forced_uncomp_pressure_temperature:
 3033              	.LFB22:
1236:.\bmp280.c    **** 	/* variable used to return communication result*/
 3034              		.loc 1 1236 0
 3035              		.cfi_startproc
 3036              	.LVL339:
 3037 0000 F0B5     		push	{r4, r5, r6, r7, lr}
 3038              		.cfi_def_cfa_offset 20
 3039              		.cfi_offset 4, -20
 3040              		.cfi_offset 5, -16
 3041              		.cfi_offset 6, -12
 3042              		.cfi_offset 7, -8
 3043              		.cfi_offset 14, -4
 3044 0002 83B0     		sub	sp, sp, #12
 3045              		.cfi_def_cfa_offset 32
 3046              	.LVL340:
1239:.\bmp280.c    **** 	u8 v_waittime_u8 = BMP280_INIT_VALUE;
 3047              		.loc 1 1239 0
 3048 0004 0023     		mov	r3, #0
 3049 0006 6A46     		mov	r2, sp
 3050 0008 D371     		strb	r3, [r2, #7]
1240:.\bmp280.c    **** 	/* check the p_bmp280 structure pointer as NULL*/
 3051              		.loc 1 1240 0
 3052 000a 6A46     		mov	r2, sp
 3053 000c 9371     		strb	r3, [r2, #6]
ARM GAS  C:\Users\Svilen\AppData\Local\Temp\ccFr0ira.s 			page 83


1242:.\bmp280.c    **** 		com_rslt = E_BMP280_NULL_PTR;
 3054              		.loc 1 1242 0
 3055 000e 154B     		ldr	r3, .L159
 3056 0010 1C68     		ldr	r4, [r3]
 3057 0012 002C     		cmp	r4, #0
 3058 0014 21D0     		beq	.L158
 3059 0016 0D1C     		mov	r5, r1
 3060 0018 061C     		mov	r6, r0
1246:.\bmp280.c    **** 				<< BMP280_SHIFT_BIT_POSITION_BY_05_BITS)
 3061              		.loc 1 1246 0
 3062 001a A17F     		ldrb	r1, [r4, #30]
 3063              	.LVL341:
1248:.\bmp280.c    **** 				<< BMP280_SHIFT_BIT_POSITION_BY_02_BITS)
 3064              		.loc 1 1248 0
 3065 001c E37F     		ldrb	r3, [r4, #31]
1246:.\bmp280.c    **** 				<< BMP280_SHIFT_BIT_POSITION_BY_05_BITS)
 3066              		.loc 1 1246 0
 3067 001e 6A46     		mov	r2, sp
 3068 0020 0732     		add	r2, r2, #7
 3069 0022 4901     		lsl	r1, r1, #5
 3070 0024 9B00     		lsl	r3, r3, #2
 3071 0026 CB18     		add	r3, r1, r3
 3072 0028 0133     		add	r3, r3, #1
 3073 002a 1370     		strb	r3, [r2]
1251:.\bmp280.c    **** 				BMP280_CTRL_MEAS_REG, &v_data_u8,
 3074              		.loc 1 1251 0
 3075 002c 276A     		ldr	r7, [r4, #32]
 3076 002e 607F     		ldrb	r0, [r4, #29]
 3077              	.LVL342:
 3078 0030 F421     		mov	r1, #244
 3079 0032 0123     		mov	r3, #1
 3080 0034 B847     		blx	r7
 3081              	.LVL343:
 3082 0036 041C     		mov	r4, r0
 3083              	.LVL344:
1254:.\bmp280.c    **** 		p_bmp280->delay_msec(v_waittime_u8);
 3084              		.loc 1 1254 0
 3085 0038 6B46     		mov	r3, sp
 3086 003a 9F1D     		add	r7, r3, #6
 3087 003c 381C     		mov	r0, r7
 3088 003e FFF7FEFF 		bl	bmp280_compute_wait_time
 3089              	.LVL345:
1255:.\bmp280.c    **** 		com_rslt += bmp280_read_uncomp_pressure_temperature(
 3090              		.loc 1 1255 0
 3091 0042 084B     		ldr	r3, .L159
 3092 0044 1B68     		ldr	r3, [r3]
 3093 0046 9B6A     		ldr	r3, [r3, #40]
 3094 0048 3878     		ldrb	r0, [r7]
 3095 004a 9847     		blx	r3
 3096              	.LVL346:
1256:.\bmp280.c    **** 				v_uncomp_pressure_s32,
 3097              		.loc 1 1256 0
 3098 004c 301C     		mov	r0, r6
 3099 004e 291C     		mov	r1, r5
 3100 0050 FFF7FEFF 		bl	bmp280_read_uncomp_pressure_temperature
 3101              	.LVL347:
 3102 0054 0019     		add	r0, r0, r4
ARM GAS  C:\Users\Svilen\AppData\Local\Temp\ccFr0ira.s 			page 84


 3103 0056 C0B2     		uxtb	r0, r0
 3104              	.LVL348:
 3105 0058 00E0     		b	.L157
 3106              	.LVL349:
 3107              	.L158:
1243:.\bmp280.c    **** 	} else {
 3108              		.loc 1 1243 0
 3109 005a 8120     		mov	r0, #129
 3110              	.LVL350:
 3111              	.L157:
1260:.\bmp280.c    **** }
 3112              		.loc 1 1260 0
 3113 005c 40B2     		sxtb	r0, r0
1261:.\bmp280.c    **** /*!
 3114              		.loc 1 1261 0
 3115 005e 03B0     		add	sp, sp, #12
 3116              		@ sp needed
 3117 0060 F0BD     		pop	{r4, r5, r6, r7, pc}
 3118              	.L160:
 3119 0062 C046     		.align	2
 3120              	.L159:
 3121 0064 00000000 		.word	.LANCHOR0
 3122              		.cfi_endproc
 3123              	.LFE22:
 3124              		.size	bmp280_get_forced_uncomp_pressure_temperature, .-bmp280_get_forced_uncomp_pressure_temperatu
 3125              		.bss
 3126              		.align	2
 3127              		.set	.LANCHOR0,. + 0
 3128              		.type	p_bmp280, %object
 3129              		.size	p_bmp280, 4
 3130              	p_bmp280:
 3131 0000 00000000 		.space	4
 3132              		.text
 3133              	.Letext0:
 3134              		.file 2 ".\\bmp280.h"
 3135              		.section	.debug_info,"",%progbits
 3136              	.Ldebug_info0:
 3137 0000 BA0E0000 		.4byte	0xeba
 3138 0004 0400     		.2byte	0x4
 3139 0006 00000000 		.4byte	.Ldebug_abbrev0
 3140 000a 04       		.byte	0x4
 3141 000b 01       		.uleb128 0x1
 3142 000c 8F020000 		.4byte	.LASF89
 3143 0010 01       		.byte	0x1
 3144 0011 82050000 		.4byte	.LASF90
 3145 0015 4E020000 		.4byte	.LASF91
 3146 0019 00000000 		.4byte	.Ldebug_ranges0+0
 3147 001d 00000000 		.4byte	0
 3148 0021 00000000 		.4byte	.Ldebug_line0
 3149 0025 02       		.uleb128 0x2
 3150 0026 733800   		.ascii	"s8\000"
 3151 0029 02       		.byte	0x2
 3152 002a 1401     		.2byte	0x114
 3153 002c 30000000 		.4byte	0x30
 3154 0030 03       		.uleb128 0x3
 3155 0031 01       		.byte	0x1
 3156 0032 06       		.byte	0x6
ARM GAS  C:\Users\Svilen\AppData\Local\Temp\ccFr0ira.s 			page 85


 3157 0033 AE030000 		.4byte	.LASF0
 3158 0037 02       		.uleb128 0x2
 3159 0038 73313600 		.ascii	"s16\000"
 3160 003c 02       		.byte	0x2
 3161 003d 1501     		.2byte	0x115
 3162 003f 43000000 		.4byte	0x43
 3163 0043 03       		.uleb128 0x3
 3164 0044 02       		.byte	0x2
 3165 0045 05       		.byte	0x5
 3166 0046 A6000000 		.4byte	.LASF1
 3167 004a 02       		.uleb128 0x2
 3168 004b 73333200 		.ascii	"s32\000"
 3169 004f 02       		.byte	0x2
 3170 0050 1601     		.2byte	0x116
 3171 0052 56000000 		.4byte	0x56
 3172 0056 03       		.uleb128 0x3
 3173 0057 04       		.byte	0x4
 3174 0058 05       		.byte	0x5
 3175 0059 EE010000 		.4byte	.LASF2
 3176 005d 02       		.uleb128 0x2
 3177 005e 73363400 		.ascii	"s64\000"
 3178 0062 02       		.byte	0x2
 3179 0063 1701     		.2byte	0x117
 3180 0065 69000000 		.4byte	0x69
 3181 0069 03       		.uleb128 0x3
 3182 006a 08       		.byte	0x8
 3183 006b 05       		.byte	0x5
 3184 006c C4010000 		.4byte	.LASF3
 3185 0070 02       		.uleb128 0x2
 3186 0071 753800   		.ascii	"u8\000"
 3187 0074 02       		.byte	0x2
 3188 0075 1A01     		.2byte	0x11a
 3189 0077 7B000000 		.4byte	0x7b
 3190 007b 03       		.uleb128 0x3
 3191 007c 01       		.byte	0x1
 3192 007d 08       		.byte	0x8
 3193 007e 62030000 		.4byte	.LASF4
 3194 0082 02       		.uleb128 0x2
 3195 0083 75313600 		.ascii	"u16\000"
 3196 0087 02       		.byte	0x2
 3197 0088 1B01     		.2byte	0x11b
 3198 008a 8E000000 		.4byte	0x8e
 3199 008e 03       		.uleb128 0x3
 3200 008f 02       		.byte	0x2
 3201 0090 07       		.byte	0x7
 3202 0091 88040000 		.4byte	.LASF5
 3203 0095 02       		.uleb128 0x2
 3204 0096 75333200 		.ascii	"u32\000"
 3205 009a 02       		.byte	0x2
 3206 009b 1C01     		.2byte	0x11c
 3207 009d A1000000 		.4byte	0xa1
 3208 00a1 03       		.uleb128 0x3
 3209 00a2 04       		.byte	0x4
 3210 00a3 07       		.byte	0x7
 3211 00a4 8D050000 		.4byte	.LASF6
 3212 00a8 03       		.uleb128 0x3
 3213 00a9 08       		.byte	0x8
ARM GAS  C:\Users\Svilen\AppData\Local\Temp\ccFr0ira.s 			page 86


 3214 00aa 07       		.byte	0x7
 3215 00ab BA030000 		.4byte	.LASF7
 3216 00af 04       		.uleb128 0x4
 3217 00b0 4F000000 		.4byte	.LASF21
 3218 00b4 1C       		.byte	0x1c
 3219 00b5 02       		.byte	0x2
 3220 00b6 EC02     		.2byte	0x2ec
 3221 00b8 66010000 		.4byte	0x166
 3222 00bc 05       		.uleb128 0x5
 3223 00bd A6050000 		.4byte	.LASF8
 3224 00c1 02       		.byte	0x2
 3225 00c2 ED02     		.2byte	0x2ed
 3226 00c4 82000000 		.4byte	0x82
 3227 00c8 00       		.byte	0
 3228 00c9 05       		.uleb128 0x5
 3229 00ca AD050000 		.4byte	.LASF9
 3230 00ce 02       		.byte	0x2
 3231 00cf EE02     		.2byte	0x2ee
 3232 00d1 37000000 		.4byte	0x37
 3233 00d5 02       		.byte	0x2
 3234 00d6 05       		.uleb128 0x5
 3235 00d7 9B040000 		.4byte	.LASF10
 3236 00db 02       		.byte	0x2
 3237 00dc EF02     		.2byte	0x2ef
 3238 00de 37000000 		.4byte	0x37
 3239 00e2 04       		.byte	0x4
 3240 00e3 05       		.uleb128 0x5
 3241 00e4 43050000 		.4byte	.LASF11
 3242 00e8 02       		.byte	0x2
 3243 00e9 F002     		.2byte	0x2f0
 3244 00eb 82000000 		.4byte	0x82
 3245 00ef 06       		.byte	0x6
 3246 00f0 05       		.uleb128 0x5
 3247 00f1 4A050000 		.4byte	.LASF12
 3248 00f5 02       		.byte	0x2
 3249 00f6 F102     		.2byte	0x2f1
 3250 00f8 37000000 		.4byte	0x37
 3251 00fc 08       		.byte	0x8
 3252 00fd 05       		.uleb128 0x5
 3253 00fe 51050000 		.4byte	.LASF13
 3254 0102 02       		.byte	0x2
 3255 0103 F202     		.2byte	0x2f2
 3256 0105 37000000 		.4byte	0x37
 3257 0109 0A       		.byte	0xa
 3258 010a 05       		.uleb128 0x5
 3259 010b 58050000 		.4byte	.LASF14
 3260 010f 02       		.byte	0x2
 3261 0110 F302     		.2byte	0x2f3
 3262 0112 37000000 		.4byte	0x37
 3263 0116 0C       		.byte	0xc
 3264 0117 05       		.uleb128 0x5
 3265 0118 5F050000 		.4byte	.LASF15
 3266 011c 02       		.byte	0x2
 3267 011d F402     		.2byte	0x2f4
 3268 011f 37000000 		.4byte	0x37
 3269 0123 0E       		.byte	0xe
 3270 0124 05       		.uleb128 0x5
ARM GAS  C:\Users\Svilen\AppData\Local\Temp\ccFr0ira.s 			page 87


 3271 0125 66050000 		.4byte	.LASF16
 3272 0129 02       		.byte	0x2
 3273 012a F502     		.2byte	0x2f5
 3274 012c 37000000 		.4byte	0x37
 3275 0130 10       		.byte	0x10
 3276 0131 05       		.uleb128 0x5
 3277 0132 6D050000 		.4byte	.LASF17
 3278 0136 02       		.byte	0x2
 3279 0137 F602     		.2byte	0x2f6
 3280 0139 37000000 		.4byte	0x37
 3281 013d 12       		.byte	0x12
 3282 013e 05       		.uleb128 0x5
 3283 013f 74050000 		.4byte	.LASF18
 3284 0143 02       		.byte	0x2
 3285 0144 F702     		.2byte	0x2f7
 3286 0146 37000000 		.4byte	0x37
 3287 014a 14       		.byte	0x14
 3288 014b 05       		.uleb128 0x5
 3289 014c 7B050000 		.4byte	.LASF19
 3290 0150 02       		.byte	0x2
 3291 0151 F802     		.2byte	0x2f8
 3292 0153 37000000 		.4byte	0x37
 3293 0157 16       		.byte	0x16
 3294 0158 05       		.uleb128 0x5
 3295 0159 F7010000 		.4byte	.LASF20
 3296 015d 02       		.byte	0x2
 3297 015e FA02     		.2byte	0x2fa
 3298 0160 4A000000 		.4byte	0x4a
 3299 0164 18       		.byte	0x18
 3300 0165 00       		.byte	0
 3301 0166 04       		.uleb128 0x4
 3302 0167 E8030000 		.4byte	.LASF22
 3303 016b 2C       		.byte	0x2c
 3304 016c 02       		.byte	0x2
 3305 016d FF02     		.2byte	0x2ff
 3306 016f DC010000 		.4byte	0x1dc
 3307 0173 05       		.uleb128 0x5
 3308 0174 29040000 		.4byte	.LASF23
 3309 0178 02       		.byte	0x2
 3310 0179 0003     		.2byte	0x300
 3311 017b AF000000 		.4byte	0xaf
 3312 017f 00       		.byte	0
 3313 0180 05       		.uleb128 0x5
 3314 0181 BE050000 		.4byte	.LASF24
 3315 0185 02       		.byte	0x2
 3316 0186 0203     		.2byte	0x302
 3317 0188 70000000 		.4byte	0x70
 3318 018c 1C       		.byte	0x1c
 3319 018d 05       		.uleb128 0x5
 3320 018e 20040000 		.4byte	.LASF25
 3321 0192 02       		.byte	0x2
 3322 0193 0303     		.2byte	0x303
 3323 0195 70000000 		.4byte	0x70
 3324 0199 1D       		.byte	0x1d
 3325 019a 05       		.uleb128 0x5
 3326 019b 4D030000 		.4byte	.LASF26
 3327 019f 02       		.byte	0x2
ARM GAS  C:\Users\Svilen\AppData\Local\Temp\ccFr0ira.s 			page 88


 3328 01a0 0503     		.2byte	0x305
 3329 01a2 70000000 		.4byte	0x70
 3330 01a6 1E       		.byte	0x1e
 3331 01a7 05       		.uleb128 0x5
 3332 01a8 44010000 		.4byte	.LASF27
 3333 01ac 02       		.byte	0x2
 3334 01ad 0603     		.2byte	0x306
 3335 01af 70000000 		.4byte	0x70
 3336 01b3 1F       		.byte	0x1f
 3337 01b4 05       		.uleb128 0x5
 3338 01b5 64000000 		.4byte	.LASF28
 3339 01b9 02       		.byte	0x2
 3340 01ba 0803     		.2byte	0x308
 3341 01bc 00020000 		.4byte	0x200
 3342 01c0 20       		.byte	0x20
 3343 01c1 05       		.uleb128 0x5
 3344 01c2 00000000 		.4byte	.LASF29
 3345 01c6 02       		.byte	0x2
 3346 01c7 0903     		.2byte	0x309
 3347 01c9 00020000 		.4byte	0x200
 3348 01cd 24       		.byte	0x24
 3349 01ce 05       		.uleb128 0x5
 3350 01cf F1030000 		.4byte	.LASF30
 3351 01d3 02       		.byte	0x2
 3352 01d4 0A03     		.2byte	0x30a
 3353 01d6 11020000 		.4byte	0x211
 3354 01da 28       		.byte	0x28
 3355 01db 00       		.byte	0
 3356 01dc 06       		.uleb128 0x6
 3357 01dd 25000000 		.4byte	0x25
 3358 01e1 FA010000 		.4byte	0x1fa
 3359 01e5 07       		.uleb128 0x7
 3360 01e6 70000000 		.4byte	0x70
 3361 01ea 07       		.uleb128 0x7
 3362 01eb 70000000 		.4byte	0x70
 3363 01ef 07       		.uleb128 0x7
 3364 01f0 FA010000 		.4byte	0x1fa
 3365 01f4 07       		.uleb128 0x7
 3366 01f5 70000000 		.4byte	0x70
 3367 01f9 00       		.byte	0
 3368 01fa 08       		.uleb128 0x8
 3369 01fb 04       		.byte	0x4
 3370 01fc 70000000 		.4byte	0x70
 3371 0200 08       		.uleb128 0x8
 3372 0201 04       		.byte	0x4
 3373 0202 DC010000 		.4byte	0x1dc
 3374 0206 09       		.uleb128 0x9
 3375 0207 11020000 		.4byte	0x211
 3376 020b 07       		.uleb128 0x7
 3377 020c 95000000 		.4byte	0x95
 3378 0210 00       		.byte	0
 3379 0211 08       		.uleb128 0x8
 3380 0212 04       		.byte	0x4
 3381 0213 06020000 		.4byte	0x206
 3382 0217 0A       		.uleb128 0xa
 3383 0218 70030000 		.4byte	.LASF34
 3384 021c 01       		.byte	0x1
ARM GAS  C:\Users\Svilen\AppData\Local\Temp\ccFr0ira.s 			page 89


 3385 021d 89       		.byte	0x89
 3386 021e 25000000 		.4byte	0x25
 3387 0222 00000000 		.4byte	.LFB1
 3388 0226 48000000 		.4byte	.LFE1-.LFB1
 3389 022a 01       		.uleb128 0x1
 3390 022b 9C       		.byte	0x9c
 3391 022c 77020000 		.4byte	0x277
 3392 0230 0B       		.uleb128 0xb
 3393 0231 A2040000 		.4byte	.LASF36
 3394 0235 01       		.byte	0x1
 3395 0236 8A       		.byte	0x8a
 3396 0237 77020000 		.4byte	0x277
 3397 023b 00000000 		.4byte	.LLST0
 3398 023f 0C       		.uleb128 0xc
 3399 0240 A5030000 		.4byte	.LASF31
 3400 0244 01       		.byte	0x1
 3401 0245 8D       		.byte	0x8d
 3402 0246 25000000 		.4byte	0x25
 3403 024a 37000000 		.4byte	.LLST1
 3404 024e 0D       		.uleb128 0xd
 3405 024f C6050000 		.4byte	.LASF32
 3406 0253 01       		.byte	0x1
 3407 0254 93       		.byte	0x93
 3408 0255 7D020000 		.4byte	0x27d
 3409 0259 02       		.uleb128 0x2
 3410 025a 91       		.byte	0x91
 3411 025b 6C       		.sleb128 -20
 3412 025c 0E       		.uleb128 0xe
 3413 025d 26000000 		.4byte	.LVL3
 3414 0261 02       		.uleb128 0x2
 3415 0262 76       		.byte	0x76
 3416 0263 00       		.sleb128 0
 3417 0264 0F       		.uleb128 0xf
 3418 0265 01       		.uleb128 0x1
 3419 0266 53       		.byte	0x53
 3420 0267 01       		.uleb128 0x1
 3421 0268 33       		.byte	0x33
 3422 0269 0F       		.uleb128 0xf
 3423 026a 01       		.uleb128 0x1
 3424 026b 52       		.byte	0x52
 3425 026c 02       		.uleb128 0x2
 3426 026d 74       		.byte	0x74
 3427 026e 00       		.sleb128 0
 3428 026f 0F       		.uleb128 0xf
 3429 0270 01       		.uleb128 0x1
 3430 0271 51       		.byte	0x51
 3431 0272 02       		.uleb128 0x2
 3432 0273 09       		.byte	0x9
 3433 0274 FA       		.byte	0xfa
 3434 0275 00       		.byte	0
 3435 0276 00       		.byte	0
 3436 0277 08       		.uleb128 0x8
 3437 0278 04       		.byte	0x4
 3438 0279 4A000000 		.4byte	0x4a
 3439 027d 10       		.uleb128 0x10
 3440 027e 70000000 		.4byte	0x70
 3441 0282 8D020000 		.4byte	0x28d
ARM GAS  C:\Users\Svilen\AppData\Local\Temp\ccFr0ira.s 			page 90


 3442 0286 11       		.uleb128 0x11
 3443 0287 8D020000 		.4byte	0x28d
 3444 028b 02       		.byte	0x2
 3445 028c 00       		.byte	0
 3446 028d 03       		.uleb128 0x3
 3447 028e 04       		.byte	0x4
 3448 028f 07       		.byte	0x7
 3449 0290 B0000000 		.4byte	.LASF33
 3450 0294 0A       		.uleb128 0xa
 3451 0295 FC030000 		.4byte	.LASF35
 3452 0299 01       		.byte	0x1
 3453 029a B7       		.byte	0xb7
 3454 029b 4A000000 		.4byte	0x4a
 3455 029f 00000000 		.4byte	.LFB2
 3456 02a3 38000000 		.4byte	.LFE2-.LFB2
 3457 02a7 01       		.uleb128 0x1
 3458 02a8 9C       		.byte	0x9c
 3459 02a9 EA020000 		.4byte	0x2ea
 3460 02ad 0B       		.uleb128 0xb
 3461 02ae A2040000 		.4byte	.LASF36
 3462 02b2 01       		.byte	0x1
 3463 02b3 B7       		.byte	0xb7
 3464 02b4 4A000000 		.4byte	0x4a
 3465 02b8 6F000000 		.4byte	.LLST2
 3466 02bc 0C       		.uleb128 0xc
 3467 02bd 99010000 		.4byte	.LASF37
 3468 02c1 01       		.byte	0x1
 3469 02c2 B9       		.byte	0xb9
 3470 02c3 4A000000 		.4byte	0x4a
 3471 02c7 90000000 		.4byte	.LLST3
 3472 02cb 0C       		.uleb128 0xc
 3473 02cc B4050000 		.4byte	.LASF38
 3474 02d0 01       		.byte	0x1
 3475 02d1 BA       		.byte	0xba
 3476 02d2 4A000000 		.4byte	0x4a
 3477 02d6 AF000000 		.4byte	.LLST4
 3478 02da 0C       		.uleb128 0xc
 3479 02db 0E020000 		.4byte	.LASF39
 3480 02df 01       		.byte	0x1
 3481 02e0 BB       		.byte	0xbb
 3482 02e1 4A000000 		.4byte	0x4a
 3483 02e5 28010000 		.4byte	.LLST5
 3484 02e9 00       		.byte	0
 3485 02ea 0A       		.uleb128 0xa
 3486 02eb D2010000 		.4byte	.LASF40
 3487 02ef 01       		.byte	0x1
 3488 02f0 E9       		.byte	0xe9
 3489 02f1 25000000 		.4byte	0x25
 3490 02f5 00000000 		.4byte	.LFB3
 3491 02f9 48000000 		.4byte	.LFE3-.LFB3
 3492 02fd 01       		.uleb128 0x1
 3493 02fe 9C       		.byte	0x9c
 3494 02ff 4A030000 		.4byte	0x34a
 3495 0303 0B       		.uleb128 0xb
 3496 0304 EE050000 		.4byte	.LASF41
 3497 0308 01       		.byte	0x1
 3498 0309 EA       		.byte	0xea
ARM GAS  C:\Users\Svilen\AppData\Local\Temp\ccFr0ira.s 			page 91


 3499 030a 77020000 		.4byte	0x277
 3500 030e 47010000 		.4byte	.LLST6
 3501 0312 0C       		.uleb128 0xc
 3502 0313 A5030000 		.4byte	.LASF31
 3503 0317 01       		.byte	0x1
 3504 0318 ED       		.byte	0xed
 3505 0319 25000000 		.4byte	0x25
 3506 031d 7E010000 		.4byte	.LLST7
 3507 0321 0D       		.uleb128 0xd
 3508 0322 B9000000 		.4byte	.LASF42
 3509 0326 01       		.byte	0x1
 3510 0327 F3       		.byte	0xf3
 3511 0328 7D020000 		.4byte	0x27d
 3512 032c 02       		.uleb128 0x2
 3513 032d 91       		.byte	0x91
 3514 032e 6C       		.sleb128 -20
 3515 032f 0E       		.uleb128 0xe
 3516 0330 26000000 		.4byte	.LVL17
 3517 0334 02       		.uleb128 0x2
 3518 0335 76       		.byte	0x76
 3519 0336 00       		.sleb128 0
 3520 0337 0F       		.uleb128 0xf
 3521 0338 01       		.uleb128 0x1
 3522 0339 53       		.byte	0x53
 3523 033a 01       		.uleb128 0x1
 3524 033b 33       		.byte	0x33
 3525 033c 0F       		.uleb128 0xf
 3526 033d 01       		.uleb128 0x1
 3527 033e 52       		.byte	0x52
 3528 033f 02       		.uleb128 0x2
 3529 0340 74       		.byte	0x74
 3530 0341 00       		.sleb128 0
 3531 0342 0F       		.uleb128 0xf
 3532 0343 01       		.uleb128 0x1
 3533 0344 51       		.byte	0x51
 3534 0345 02       		.uleb128 0x2
 3535 0346 09       		.byte	0x9
 3536 0347 F7       		.byte	0xf7
 3537 0348 00       		.byte	0
 3538 0349 00       		.byte	0
 3539 034a 12       		.uleb128 0x12
 3540 034b 1D030000 		.4byte	.LASF43
 3541 034f 01       		.byte	0x1
 3542 0350 1601     		.2byte	0x116
 3543 0352 95000000 		.4byte	0x95
 3544 0356 00000000 		.4byte	.LFB4
 3545 035a BC000000 		.4byte	.LFE4-.LFB4
 3546 035e 01       		.uleb128 0x1
 3547 035f 9C       		.byte	0x9c
 3548 0360 A5030000 		.4byte	0x3a5
 3549 0364 13       		.uleb128 0x13
 3550 0365 EE050000 		.4byte	.LASF41
 3551 0369 01       		.byte	0x1
 3552 036a 1601     		.2byte	0x116
 3553 036c 4A000000 		.4byte	0x4a
 3554 0370 B6010000 		.4byte	.LLST8
 3555 0374 14       		.uleb128 0x14
ARM GAS  C:\Users\Svilen\AppData\Local\Temp\ccFr0ira.s 			page 92


 3556 0375 99010000 		.4byte	.LASF37
 3557 0379 01       		.byte	0x1
 3558 037a 1801     		.2byte	0x118
 3559 037c 4A000000 		.4byte	0x4a
 3560 0380 E5010000 		.4byte	.LLST9
 3561 0384 14       		.uleb128 0x14
 3562 0385 B4050000 		.4byte	.LASF38
 3563 0389 01       		.byte	0x1
 3564 038a 1901     		.2byte	0x119
 3565 038c 4A000000 		.4byte	0x4a
 3566 0390 7E020000 		.4byte	.LLST10
 3567 0394 14       		.uleb128 0x14
 3568 0395 B5010000 		.4byte	.LASF44
 3569 0399 01       		.byte	0x1
 3570 039a 1A01     		.2byte	0x11a
 3571 039c 95000000 		.4byte	0x95
 3572 03a0 F6030000 		.4byte	.LLST11
 3573 03a4 00       		.byte	0
 3574 03a5 15       		.uleb128 0x15
 3575 03a6 35040000 		.4byte	.LASF45
 3576 03aa 01       		.byte	0x1
 3577 03ab 6A01     		.2byte	0x16a
 3578 03ad 25000000 		.4byte	0x25
 3579 03b1 00000000 		.4byte	.LFB5
 3580 03b5 68000000 		.4byte	.LFE5-.LFB5
 3581 03b9 01       		.uleb128 0x1
 3582 03ba 9C       		.byte	0x9c
 3583 03bb 19040000 		.4byte	0x419
 3584 03bf 13       		.uleb128 0x13
 3585 03c0 EE050000 		.4byte	.LASF41
 3586 03c4 01       		.byte	0x1
 3587 03c5 6B01     		.2byte	0x16b
 3588 03c7 77020000 		.4byte	0x277
 3589 03cb D0040000 		.4byte	.LLST12
 3590 03cf 13       		.uleb128 0x13
 3591 03d0 A2040000 		.4byte	.LASF36
 3592 03d4 01       		.byte	0x1
 3593 03d5 6B01     		.2byte	0x16b
 3594 03d7 77020000 		.4byte	0x277
 3595 03db 07050000 		.4byte	.LLST13
 3596 03df 14       		.uleb128 0x14
 3597 03e0 A5030000 		.4byte	.LASF31
 3598 03e4 01       		.byte	0x1
 3599 03e5 6E01     		.2byte	0x16e
 3600 03e7 25000000 		.4byte	0x25
 3601 03eb 3E050000 		.4byte	.LLST14
 3602 03ef 16       		.uleb128 0x16
 3603 03f0 B9000000 		.4byte	.LASF42
 3604 03f4 01       		.byte	0x1
 3605 03f5 7701     		.2byte	0x177
 3606 03f7 19040000 		.4byte	0x419
 3607 03fb 02       		.uleb128 0x2
 3608 03fc 91       		.byte	0x91
 3609 03fd 68       		.sleb128 -24
 3610 03fe 0E       		.uleb128 0xe
 3611 03ff 2A000000 		.4byte	.LVL56
 3612 0403 02       		.uleb128 0x2
ARM GAS  C:\Users\Svilen\AppData\Local\Temp\ccFr0ira.s 			page 93


 3613 0404 76       		.byte	0x76
 3614 0405 00       		.sleb128 0
 3615 0406 0F       		.uleb128 0xf
 3616 0407 01       		.uleb128 0x1
 3617 0408 53       		.byte	0x53
 3618 0409 01       		.uleb128 0x1
 3619 040a 36       		.byte	0x36
 3620 040b 0F       		.uleb128 0xf
 3621 040c 01       		.uleb128 0x1
 3622 040d 52       		.byte	0x52
 3623 040e 02       		.uleb128 0x2
 3624 040f 7D       		.byte	0x7d
 3625 0410 00       		.sleb128 0
 3626 0411 0F       		.uleb128 0xf
 3627 0412 01       		.uleb128 0x1
 3628 0413 51       		.byte	0x51
 3629 0414 02       		.uleb128 0x2
 3630 0415 09       		.byte	0x9
 3631 0416 F7       		.byte	0xf7
 3632 0417 00       		.byte	0
 3633 0418 00       		.byte	0
 3634 0419 10       		.uleb128 0x10
 3635 041a 70000000 		.4byte	0x70
 3636 041e 29040000 		.4byte	0x429
 3637 0422 11       		.uleb128 0x11
 3638 0423 8D020000 		.4byte	0x28d
 3639 0427 05       		.byte	0x5
 3640 0428 00       		.byte	0
 3641 0429 15       		.uleb128 0x15
 3642 042a CE040000 		.4byte	.LASF46
 3643 042e 01       		.byte	0x1
 3644 042f A701     		.2byte	0x1a7
 3645 0431 25000000 		.4byte	0x25
 3646 0435 00000000 		.4byte	.LFB6
 3647 0439 40000000 		.4byte	.LFE6-.LFB6
 3648 043d 01       		.uleb128 0x1
 3649 043e 9C       		.byte	0x9c
 3650 043f BE040000 		.4byte	0x4be
 3651 0443 13       		.uleb128 0x13
 3652 0444 B5010000 		.4byte	.LASF44
 3653 0448 01       		.byte	0x1
 3654 0449 A801     		.2byte	0x1a8
 3655 044b BE040000 		.4byte	0x4be
 3656 044f 76050000 		.4byte	.LLST15
 3657 0453 13       		.uleb128 0x13
 3658 0454 87010000 		.4byte	.LASF47
 3659 0458 01       		.byte	0x1
 3660 0459 A801     		.2byte	0x1a8
 3661 045b 77020000 		.4byte	0x277
 3662 045f AD050000 		.4byte	.LLST16
 3663 0463 14       		.uleb128 0x14
 3664 0464 A5030000 		.4byte	.LASF31
 3665 0468 01       		.byte	0x1
 3666 0469 AB01     		.2byte	0x1ab
 3667 046b 25000000 		.4byte	0x25
 3668 046f E4050000 		.4byte	.LLST17
 3669 0473 16       		.uleb128 0x16
ARM GAS  C:\Users\Svilen\AppData\Local\Temp\ccFr0ira.s 			page 94


 3670 0474 EE050000 		.4byte	.LASF41
 3671 0478 01       		.byte	0x1
 3672 0479 AC01     		.2byte	0x1ac
 3673 047b 4A000000 		.4byte	0x4a
 3674 047f 02       		.uleb128 0x2
 3675 0480 91       		.byte	0x91
 3676 0481 6C       		.sleb128 -20
 3677 0482 16       		.uleb128 0x16
 3678 0483 A2040000 		.4byte	.LASF36
 3679 0487 01       		.byte	0x1
 3680 0488 AD01     		.2byte	0x1ad
 3681 048a 4A000000 		.4byte	0x4a
 3682 048e 02       		.uleb128 0x2
 3683 048f 91       		.byte	0x91
 3684 0490 68       		.sleb128 -24
 3685 0491 17       		.uleb128 0x17
 3686 0492 1E000000 		.4byte	.LVL63
 3687 0496 A5030000 		.4byte	0x3a5
 3688 049a AB040000 		.4byte	0x4ab
 3689 049e 0F       		.uleb128 0xf
 3690 049f 01       		.uleb128 0x1
 3691 04a0 51       		.byte	0x51
 3692 04a1 02       		.uleb128 0x2
 3693 04a2 7D       		.byte	0x7d
 3694 04a3 00       		.sleb128 0
 3695 04a4 0F       		.uleb128 0xf
 3696 04a5 01       		.uleb128 0x1
 3697 04a6 50       		.byte	0x50
 3698 04a7 02       		.uleb128 0x2
 3699 04a8 91       		.byte	0x91
 3700 04a9 6C       		.sleb128 -20
 3701 04aa 00       		.byte	0
 3702 04ab 18       		.uleb128 0x18
 3703 04ac 26000000 		.4byte	.LVL66
 3704 04b0 94020000 		.4byte	0x294
 3705 04b4 18       		.uleb128 0x18
 3706 04b5 2E000000 		.4byte	.LVL67
 3707 04b9 4A030000 		.4byte	0x34a
 3708 04bd 00       		.byte	0
 3709 04be 08       		.uleb128 0x8
 3710 04bf 04       		.byte	0x4
 3711 04c0 95000000 		.4byte	0x95
 3712 04c4 15       		.uleb128 0x15
 3713 04c5 D1030000 		.4byte	.LASF48
 3714 04c9 01       		.byte	0x1
 3715 04ca D701     		.2byte	0x1d7
 3716 04cc 25000000 		.4byte	0x25
 3717 04d0 00000000 		.4byte	.LFB7
 3718 04d4 F4000000 		.4byte	.LFE7-.LFB7
 3719 04d8 01       		.uleb128 0x1
 3720 04d9 9C       		.byte	0x9c
 3721 04da 18050000 		.4byte	0x518
 3722 04de 14       		.uleb128 0x14
 3723 04df A5030000 		.4byte	.LASF31
 3724 04e3 01       		.byte	0x1
 3725 04e4 DA01     		.2byte	0x1da
 3726 04e6 25000000 		.4byte	0x25
ARM GAS  C:\Users\Svilen\AppData\Local\Temp\ccFr0ira.s 			page 95


 3727 04ea 32060000 		.4byte	.LLST18
 3728 04ee 16       		.uleb128 0x16
 3729 04ef B9000000 		.4byte	.LASF42
 3730 04f3 01       		.byte	0x1
 3731 04f4 DB01     		.2byte	0x1db
 3732 04f6 18050000 		.4byte	0x518
 3733 04fa 02       		.uleb128 0x2
 3734 04fb 91       		.byte	0x91
 3735 04fc 60       		.sleb128 -32
 3736 04fd 0E       		.uleb128 0xe
 3737 04fe 26000000 		.4byte	.LVL72
 3738 0502 02       		.uleb128 0x2
 3739 0503 74       		.byte	0x74
 3740 0504 00       		.sleb128 0
 3741 0505 0F       		.uleb128 0xf
 3742 0506 01       		.uleb128 0x1
 3743 0507 53       		.byte	0x53
 3744 0508 01       		.uleb128 0x1
 3745 0509 48       		.byte	0x48
 3746 050a 0F       		.uleb128 0xf
 3747 050b 01       		.uleb128 0x1
 3748 050c 52       		.byte	0x52
 3749 050d 02       		.uleb128 0x2
 3750 050e 7D       		.byte	0x7d
 3751 050f 00       		.sleb128 0
 3752 0510 0F       		.uleb128 0xf
 3753 0511 01       		.uleb128 0x1
 3754 0512 51       		.byte	0x51
 3755 0513 02       		.uleb128 0x2
 3756 0514 09       		.byte	0x9
 3757 0515 88       		.byte	0x88
 3758 0516 00       		.byte	0
 3759 0517 00       		.byte	0
 3760 0518 10       		.uleb128 0x10
 3761 0519 70000000 		.4byte	0x70
 3762 051d 28050000 		.4byte	0x528
 3763 0521 11       		.uleb128 0x11
 3764 0522 8D020000 		.4byte	0x28d
 3765 0526 17       		.byte	0x17
 3766 0527 00       		.byte	0
 3767 0528 0A       		.uleb128 0xa
 3768 0529 09000000 		.4byte	.LASF49
 3769 052d 01       		.byte	0x1
 3770 052e 53       		.byte	0x53
 3771 052f 25000000 		.4byte	0x25
 3772 0533 00000000 		.4byte	.LFB0
 3773 0537 6C000000 		.4byte	.LFE0-.LFB0
 3774 053b 01       		.uleb128 0x1
 3775 053c 9C       		.byte	0x9c
 3776 053d B3050000 		.4byte	0x5b3
 3777 0541 0B       		.uleb128 0xb
 3778 0542 56010000 		.4byte	.LASF50
 3779 0546 01       		.byte	0x1
 3780 0547 53       		.byte	0x53
 3781 0548 B3050000 		.4byte	0x5b3
 3782 054c 6A060000 		.4byte	.LLST19
 3783 0550 0C       		.uleb128 0xc
ARM GAS  C:\Users\Svilen\AppData\Local\Temp\ccFr0ira.s 			page 96


 3784 0551 A5030000 		.4byte	.LASF31
 3785 0555 01       		.byte	0x1
 3786 0556 56       		.byte	0x56
 3787 0557 25000000 		.4byte	0x25
 3788 055b 8B060000 		.4byte	.LLST20
 3789 055f 0D       		.uleb128 0xd
 3790 0560 1A060000 		.4byte	.LASF51
 3791 0564 01       		.byte	0x1
 3792 0565 57       		.byte	0x57
 3793 0566 70000000 		.4byte	0x70
 3794 056a 02       		.uleb128 0x2
 3795 056b 91       		.byte	0x91
 3796 056c 6F       		.sleb128 -17
 3797 056d 0C       		.uleb128 0xc
 3798 056e 73040000 		.4byte	.LASF52
 3799 0572 01       		.byte	0x1
 3800 0573 58       		.byte	0x58
 3801 0574 70000000 		.4byte	0x70
 3802 0578 C1060000 		.4byte	.LLST21
 3803 057c 19       		.uleb128 0x19
 3804 057d 26000000 		.4byte	.LVL79
 3805 0581 02       		.uleb128 0x2
 3806 0582 76       		.byte	0x76
 3807 0583 00       		.sleb128 0
 3808 0584 9A050000 		.4byte	0x59a
 3809 0588 0F       		.uleb128 0xf
 3810 0589 01       		.uleb128 0x1
 3811 058a 53       		.byte	0x53
 3812 058b 01       		.uleb128 0x1
 3813 058c 31       		.byte	0x31
 3814 058d 0F       		.uleb128 0xf
 3815 058e 01       		.uleb128 0x1
 3816 058f 52       		.byte	0x52
 3817 0590 02       		.uleb128 0x2
 3818 0591 75       		.byte	0x75
 3819 0592 00       		.sleb128 0
 3820 0593 0F       		.uleb128 0xf
 3821 0594 01       		.uleb128 0x1
 3822 0595 51       		.byte	0x51
 3823 0596 02       		.uleb128 0x2
 3824 0597 09       		.byte	0x9
 3825 0598 D0       		.byte	0xd0
 3826 0599 00       		.byte	0
 3827 059a 1A       		.uleb128 0x1a
 3828 059b 3C000000 		.4byte	.LVL82
 3829 059f A9050000 		.4byte	0x5a9
 3830 05a3 0F       		.uleb128 0xf
 3831 05a4 01       		.uleb128 0x1
 3832 05a5 50       		.byte	0x50
 3833 05a6 01       		.uleb128 0x1
 3834 05a7 31       		.byte	0x31
 3835 05a8 00       		.byte	0
 3836 05a9 18       		.uleb128 0x18
 3837 05aa 5E000000 		.4byte	.LVL86
 3838 05ae C4040000 		.4byte	0x4c4
 3839 05b2 00       		.byte	0
 3840 05b3 08       		.uleb128 0x8
ARM GAS  C:\Users\Svilen\AppData\Local\Temp\ccFr0ira.s 			page 97


 3841 05b4 04       		.byte	0x4
 3842 05b5 66010000 		.4byte	0x166
 3843 05b9 15       		.uleb128 0x15
 3844 05ba D1000000 		.4byte	.LASF53
 3845 05be 01       		.byte	0x1
 3846 05bf 4502     		.2byte	0x245
 3847 05c1 25000000 		.4byte	0x25
 3848 05c5 00000000 		.4byte	.LFB8
 3849 05c9 40000000 		.4byte	.LFE8-.LFB8
 3850 05cd 01       		.uleb128 0x1
 3851 05ce 9C       		.byte	0x9c
 3852 05cf 1D060000 		.4byte	0x61d
 3853 05d3 13       		.uleb128 0x13
 3854 05d4 EF040000 		.4byte	.LASF54
 3855 05d8 01       		.byte	0x1
 3856 05d9 4502     		.2byte	0x245
 3857 05db FA010000 		.4byte	0x1fa
 3858 05df F6060000 		.4byte	.LLST22
 3859 05e3 14       		.uleb128 0x14
 3860 05e4 A5030000 		.4byte	.LASF31
 3861 05e8 01       		.byte	0x1
 3862 05e9 4802     		.2byte	0x248
 3863 05eb 25000000 		.4byte	0x25
 3864 05ef 2D070000 		.4byte	.LLST23
 3865 05f3 16       		.uleb128 0x16
 3866 05f4 1A060000 		.4byte	.LASF51
 3867 05f8 01       		.byte	0x1
 3868 05f9 4902     		.2byte	0x249
 3869 05fb 70000000 		.4byte	0x70
 3870 05ff 02       		.uleb128 0x2
 3871 0600 91       		.byte	0x91
 3872 0601 6F       		.sleb128 -17
 3873 0602 0E       		.uleb128 0xe
 3874 0603 24000000 		.4byte	.LVL93
 3875 0607 02       		.uleb128 0x2
 3876 0608 76       		.byte	0x76
 3877 0609 00       		.sleb128 0
 3878 060a 0F       		.uleb128 0xf
 3879 060b 01       		.uleb128 0x1
 3880 060c 53       		.byte	0x53
 3881 060d 01       		.uleb128 0x1
 3882 060e 31       		.byte	0x31
 3883 060f 0F       		.uleb128 0xf
 3884 0610 01       		.uleb128 0x1
 3885 0611 52       		.byte	0x52
 3886 0612 02       		.uleb128 0x2
 3887 0613 74       		.byte	0x74
 3888 0614 00       		.sleb128 0
 3889 0615 0F       		.uleb128 0xf
 3890 0616 01       		.uleb128 0x1
 3891 0617 51       		.byte	0x51
 3892 0618 02       		.uleb128 0x2
 3893 0619 09       		.byte	0x9
 3894 061a F4       		.byte	0xf4
 3895 061b 00       		.byte	0
 3896 061c 00       		.byte	0
 3897 061d 15       		.uleb128 0x15
ARM GAS  C:\Users\Svilen\AppData\Local\Temp\ccFr0ira.s 			page 98


 3898 061e 2E020000 		.4byte	.LASF55
 3899 0622 01       		.byte	0x1
 3900 0623 7202     		.2byte	0x272
 3901 0625 25000000 		.4byte	0x25
 3902 0629 00000000 		.4byte	.LFB9
 3903 062d 5C000000 		.4byte	.LFE9-.LFB9
 3904 0631 01       		.uleb128 0x1
 3905 0632 9C       		.byte	0x9c
 3906 0633 9F060000 		.4byte	0x69f
 3907 0637 13       		.uleb128 0x13
 3908 0638 EF040000 		.4byte	.LASF54
 3909 063c 01       		.byte	0x1
 3910 063d 7202     		.2byte	0x272
 3911 063f 70000000 		.4byte	0x70
 3912 0643 65070000 		.4byte	.LLST24
 3913 0647 14       		.uleb128 0x14
 3914 0648 A5030000 		.4byte	.LASF31
 3915 064c 01       		.byte	0x1
 3916 064d 7502     		.2byte	0x275
 3917 064f 25000000 		.4byte	0x25
 3918 0653 9F070000 		.4byte	.LLST25
 3919 0657 16       		.uleb128 0x16
 3920 0658 1A060000 		.4byte	.LASF51
 3921 065c 01       		.byte	0x1
 3922 065d 7602     		.2byte	0x276
 3923 065f 70000000 		.4byte	0x70
 3924 0663 02       		.uleb128 0x2
 3925 0664 91       		.byte	0x91
 3926 0665 67       		.sleb128 -25
 3927 0666 19       		.uleb128 0x19
 3928 0667 22000000 		.4byte	.LVL99
 3929 066b 02       		.uleb128 0x2
 3930 066c 74       		.byte	0x74
 3931 066d 00       		.sleb128 0
 3932 066e 84060000 		.4byte	0x684
 3933 0672 0F       		.uleb128 0xf
 3934 0673 01       		.uleb128 0x1
 3935 0674 53       		.byte	0x53
 3936 0675 01       		.uleb128 0x1
 3937 0676 31       		.byte	0x31
 3938 0677 0F       		.uleb128 0xf
 3939 0678 01       		.uleb128 0x1
 3940 0679 52       		.byte	0x52
 3941 067a 02       		.uleb128 0x2
 3942 067b 7D       		.byte	0x7d
 3943 067c 07       		.sleb128 7
 3944 067d 0F       		.uleb128 0xf
 3945 067e 01       		.uleb128 0x1
 3946 067f 51       		.byte	0x51
 3947 0680 02       		.uleb128 0x2
 3948 0681 09       		.byte	0x9
 3949 0682 F4       		.byte	0xf4
 3950 0683 00       		.byte	0
 3951 0684 0E       		.uleb128 0xe
 3952 0685 44000000 		.4byte	.LVL101
 3953 0689 02       		.uleb128 0x2
 3954 068a 77       		.byte	0x77
ARM GAS  C:\Users\Svilen\AppData\Local\Temp\ccFr0ira.s 			page 99


 3955 068b 00       		.sleb128 0
 3956 068c 0F       		.uleb128 0xf
 3957 068d 01       		.uleb128 0x1
 3958 068e 53       		.byte	0x53
 3959 068f 01       		.uleb128 0x1
 3960 0690 31       		.byte	0x31
 3961 0691 0F       		.uleb128 0xf
 3962 0692 01       		.uleb128 0x1
 3963 0693 52       		.byte	0x52
 3964 0694 02       		.uleb128 0x2
 3965 0695 7D       		.byte	0x7d
 3966 0696 07       		.sleb128 7
 3967 0697 0F       		.uleb128 0xf
 3968 0698 01       		.uleb128 0x1
 3969 0699 51       		.byte	0x51
 3970 069a 02       		.uleb128 0x2
 3971 069b 09       		.byte	0x9
 3972 069c F4       		.byte	0xf4
 3973 069d 00       		.byte	0
 3974 069e 00       		.byte	0
 3975 069f 15       		.uleb128 0x15
 3976 06a0 D1050000 		.4byte	.LASF56
 3977 06a4 01       		.byte	0x1
 3978 06a5 A602     		.2byte	0x2a6
 3979 06a7 25000000 		.4byte	0x25
 3980 06ab 00000000 		.4byte	.LFB10
 3981 06af 40000000 		.4byte	.LFE10-.LFB10
 3982 06b3 01       		.uleb128 0x1
 3983 06b4 9C       		.byte	0x9c
 3984 06b5 03070000 		.4byte	0x703
 3985 06b9 13       		.uleb128 0x13
 3986 06ba EF040000 		.4byte	.LASF54
 3987 06be 01       		.byte	0x1
 3988 06bf A602     		.2byte	0x2a6
 3989 06c1 FA010000 		.4byte	0x1fa
 3990 06c5 E2070000 		.4byte	.LLST26
 3991 06c9 14       		.uleb128 0x14
 3992 06ca A5030000 		.4byte	.LASF31
 3993 06ce 01       		.byte	0x1
 3994 06cf A902     		.2byte	0x2a9
 3995 06d1 25000000 		.4byte	0x25
 3996 06d5 19080000 		.4byte	.LLST27
 3997 06d9 16       		.uleb128 0x16
 3998 06da 1A060000 		.4byte	.LASF51
 3999 06de 01       		.byte	0x1
 4000 06df AA02     		.2byte	0x2aa
 4001 06e1 70000000 		.4byte	0x70
 4002 06e5 02       		.uleb128 0x2
 4003 06e6 91       		.byte	0x91
 4004 06e7 6F       		.sleb128 -17
 4005 06e8 0E       		.uleb128 0xe
 4006 06e9 24000000 		.4byte	.LVL108
 4007 06ed 02       		.uleb128 0x2
 4008 06ee 76       		.byte	0x76
 4009 06ef 00       		.sleb128 0
 4010 06f0 0F       		.uleb128 0xf
 4011 06f1 01       		.uleb128 0x1
ARM GAS  C:\Users\Svilen\AppData\Local\Temp\ccFr0ira.s 			page 100


 4012 06f2 53       		.byte	0x53
 4013 06f3 01       		.uleb128 0x1
 4014 06f4 31       		.byte	0x31
 4015 06f5 0F       		.uleb128 0xf
 4016 06f6 01       		.uleb128 0x1
 4017 06f7 52       		.byte	0x52
 4018 06f8 02       		.uleb128 0x2
 4019 06f9 74       		.byte	0x74
 4020 06fa 00       		.sleb128 0
 4021 06fb 0F       		.uleb128 0xf
 4022 06fc 01       		.uleb128 0x1
 4023 06fd 51       		.byte	0x51
 4024 06fe 02       		.uleb128 0x2
 4025 06ff 09       		.byte	0x9
 4026 0700 F4       		.byte	0xf4
 4027 0701 00       		.byte	0
 4028 0702 00       		.byte	0
 4029 0703 15       		.uleb128 0x15
 4030 0704 1C050000 		.4byte	.LASF57
 4031 0708 01       		.byte	0x1
 4032 0709 D302     		.2byte	0x2d3
 4033 070b 25000000 		.4byte	0x25
 4034 070f 00000000 		.4byte	.LFB11
 4035 0713 60000000 		.4byte	.LFE11-.LFB11
 4036 0717 01       		.uleb128 0x1
 4037 0718 9C       		.byte	0x9c
 4038 0719 85070000 		.4byte	0x785
 4039 071d 13       		.uleb128 0x13
 4040 071e EF040000 		.4byte	.LASF54
 4041 0722 01       		.byte	0x1
 4042 0723 D302     		.2byte	0x2d3
 4043 0725 70000000 		.4byte	0x70
 4044 0729 51080000 		.4byte	.LLST28
 4045 072d 14       		.uleb128 0x14
 4046 072e A5030000 		.4byte	.LASF31
 4047 0732 01       		.byte	0x1
 4048 0733 D602     		.2byte	0x2d6
 4049 0735 25000000 		.4byte	0x25
 4050 0739 8B080000 		.4byte	.LLST29
 4051 073d 16       		.uleb128 0x16
 4052 073e 1A060000 		.4byte	.LASF51
 4053 0742 01       		.byte	0x1
 4054 0743 D702     		.2byte	0x2d7
 4055 0745 70000000 		.4byte	0x70
 4056 0749 02       		.uleb128 0x2
 4057 074a 91       		.byte	0x91
 4058 074b 67       		.sleb128 -25
 4059 074c 19       		.uleb128 0x19
 4060 074d 22000000 		.4byte	.LVL114
 4061 0751 02       		.uleb128 0x2
 4062 0752 74       		.byte	0x74
 4063 0753 00       		.sleb128 0
 4064 0754 6A070000 		.4byte	0x76a
 4065 0758 0F       		.uleb128 0xf
 4066 0759 01       		.uleb128 0x1
 4067 075a 53       		.byte	0x53
 4068 075b 01       		.uleb128 0x1
ARM GAS  C:\Users\Svilen\AppData\Local\Temp\ccFr0ira.s 			page 101


 4069 075c 31       		.byte	0x31
 4070 075d 0F       		.uleb128 0xf
 4071 075e 01       		.uleb128 0x1
 4072 075f 52       		.byte	0x52
 4073 0760 02       		.uleb128 0x2
 4074 0761 7D       		.byte	0x7d
 4075 0762 07       		.sleb128 7
 4076 0763 0F       		.uleb128 0xf
 4077 0764 01       		.uleb128 0x1
 4078 0765 51       		.byte	0x51
 4079 0766 02       		.uleb128 0x2
 4080 0767 09       		.byte	0x9
 4081 0768 F4       		.byte	0xf4
 4082 0769 00       		.byte	0
 4083 076a 0E       		.uleb128 0xe
 4084 076b 4A000000 		.4byte	.LVL116
 4085 076f 02       		.uleb128 0x2
 4086 0770 77       		.byte	0x77
 4087 0771 00       		.sleb128 0
 4088 0772 0F       		.uleb128 0xf
 4089 0773 01       		.uleb128 0x1
 4090 0774 53       		.byte	0x53
 4091 0775 01       		.uleb128 0x1
 4092 0776 31       		.byte	0x31
 4093 0777 0F       		.uleb128 0xf
 4094 0778 01       		.uleb128 0x1
 4095 0779 52       		.byte	0x52
 4096 077a 02       		.uleb128 0x2
 4097 077b 7D       		.byte	0x7d
 4098 077c 07       		.sleb128 7
 4099 077d 0F       		.uleb128 0xf
 4100 077e 01       		.uleb128 0x1
 4101 077f 51       		.byte	0x51
 4102 0780 02       		.uleb128 0x2
 4103 0781 09       		.byte	0x9
 4104 0782 F4       		.byte	0xf4
 4105 0783 00       		.byte	0
 4106 0784 00       		.byte	0
 4107 0785 15       		.uleb128 0x15
 4108 0786 5D040000 		.4byte	.LASF58
 4109 078a 01       		.byte	0x1
 4110 078b 0203     		.2byte	0x302
 4111 078d 25000000 		.4byte	0x25
 4112 0791 00000000 		.4byte	.LFB12
 4113 0795 3C000000 		.4byte	.LFE12-.LFB12
 4114 0799 01       		.uleb128 0x1
 4115 079a 9C       		.byte	0x9c
 4116 079b E9070000 		.4byte	0x7e9
 4117 079f 13       		.uleb128 0x13
 4118 07a0 3D060000 		.4byte	.LASF59
 4119 07a4 01       		.byte	0x1
 4120 07a5 0203     		.2byte	0x302
 4121 07a7 FA010000 		.4byte	0x1fa
 4122 07ab CE080000 		.4byte	.LLST30
 4123 07af 14       		.uleb128 0x14
 4124 07b0 A5030000 		.4byte	.LASF31
 4125 07b4 01       		.byte	0x1
ARM GAS  C:\Users\Svilen\AppData\Local\Temp\ccFr0ira.s 			page 102


 4126 07b5 0503     		.2byte	0x305
 4127 07b7 25000000 		.4byte	0x25
 4128 07bb 05090000 		.4byte	.LLST31
 4129 07bf 16       		.uleb128 0x16
 4130 07c0 6E000000 		.4byte	.LASF60
 4131 07c4 01       		.byte	0x1
 4132 07c5 0603     		.2byte	0x306
 4133 07c7 70000000 		.4byte	0x70
 4134 07cb 02       		.uleb128 0x2
 4135 07cc 91       		.byte	0x91
 4136 07cd 6F       		.sleb128 -17
 4137 07ce 0E       		.uleb128 0xe
 4138 07cf 24000000 		.4byte	.LVL123
 4139 07d3 02       		.uleb128 0x2
 4140 07d4 76       		.byte	0x76
 4141 07d5 00       		.sleb128 0
 4142 07d6 0F       		.uleb128 0xf
 4143 07d7 01       		.uleb128 0x1
 4144 07d8 53       		.byte	0x53
 4145 07d9 01       		.uleb128 0x1
 4146 07da 31       		.byte	0x31
 4147 07db 0F       		.uleb128 0xf
 4148 07dc 01       		.uleb128 0x1
 4149 07dd 52       		.byte	0x52
 4150 07de 02       		.uleb128 0x2
 4151 07df 74       		.byte	0x74
 4152 07e0 00       		.sleb128 0
 4153 07e1 0F       		.uleb128 0xf
 4154 07e2 01       		.uleb128 0x1
 4155 07e3 51       		.byte	0x51
 4156 07e4 02       		.uleb128 0x2
 4157 07e5 09       		.byte	0x9
 4158 07e6 F4       		.byte	0xf4
 4159 07e7 00       		.byte	0
 4160 07e8 00       		.byte	0
 4161 07e9 15       		.uleb128 0x15
 4162 07ea 04060000 		.4byte	.LASF61
 4163 07ee 01       		.byte	0x1
 4164 07ef 2703     		.2byte	0x327
 4165 07f1 25000000 		.4byte	0x25
 4166 07f5 00000000 		.4byte	.LFB13
 4167 07f9 44000000 		.4byte	.LFE13-.LFB13
 4168 07fd 01       		.uleb128 0x1
 4169 07fe 9C       		.byte	0x9c
 4170 07ff 4D080000 		.4byte	0x84d
 4171 0803 13       		.uleb128 0x13
 4172 0804 3D060000 		.4byte	.LASF59
 4173 0808 01       		.byte	0x1
 4174 0809 2703     		.2byte	0x327
 4175 080b 70000000 		.4byte	0x70
 4176 080f 3D090000 		.4byte	.LLST32
 4177 0813 14       		.uleb128 0x14
 4178 0814 A5030000 		.4byte	.LASF31
 4179 0818 01       		.byte	0x1
 4180 0819 2A03     		.2byte	0x32a
 4181 081b 25000000 		.4byte	0x25
 4182 081f 90090000 		.4byte	.LLST33
ARM GAS  C:\Users\Svilen\AppData\Local\Temp\ccFr0ira.s 			page 103


 4183 0823 16       		.uleb128 0x16
 4184 0824 6E000000 		.4byte	.LASF60
 4185 0828 01       		.byte	0x1
 4186 0829 2B03     		.2byte	0x32b
 4187 082b 70000000 		.4byte	0x70
 4188 082f 02       		.uleb128 0x2
 4189 0830 91       		.byte	0x91
 4190 0831 77       		.sleb128 -9
 4191 0832 0E       		.uleb128 0xe
 4192 0833 32000000 		.4byte	.LVL129
 4193 0837 02       		.uleb128 0x2
 4194 0838 74       		.byte	0x74
 4195 0839 00       		.sleb128 0
 4196 083a 0F       		.uleb128 0xf
 4197 083b 01       		.uleb128 0x1
 4198 083c 53       		.byte	0x53
 4199 083d 01       		.uleb128 0x1
 4200 083e 31       		.byte	0x31
 4201 083f 0F       		.uleb128 0xf
 4202 0840 01       		.uleb128 0x1
 4203 0841 52       		.byte	0x52
 4204 0842 02       		.uleb128 0x2
 4205 0843 7D       		.byte	0x7d
 4206 0844 07       		.sleb128 7
 4207 0845 0F       		.uleb128 0xf
 4208 0846 01       		.uleb128 0x1
 4209 0847 51       		.byte	0x51
 4210 0848 02       		.uleb128 0x2
 4211 0849 09       		.byte	0x9
 4212 084a F4       		.byte	0xf4
 4213 084b 00       		.byte	0
 4214 084c 00       		.byte	0
 4215 084d 15       		.uleb128 0x15
 4216 084e 30010000 		.4byte	.LASF62
 4217 0852 01       		.byte	0x1
 4218 0853 5203     		.2byte	0x352
 4219 0855 25000000 		.4byte	0x25
 4220 0859 00000000 		.4byte	.LFB14
 4221 085d 30000000 		.4byte	.LFE14-.LFB14
 4222 0861 01       		.uleb128 0x1
 4223 0862 9C       		.byte	0x9c
 4224 0863 A1080000 		.4byte	0x8a1
 4225 0867 14       		.uleb128 0x14
 4226 0868 A5030000 		.4byte	.LASF31
 4227 086c 01       		.byte	0x1
 4228 086d 5503     		.2byte	0x355
 4229 086f 25000000 		.4byte	0x25
 4230 0873 C8090000 		.4byte	.LLST34
 4231 0877 16       		.uleb128 0x16
 4232 0878 1A060000 		.4byte	.LASF51
 4233 087c 01       		.byte	0x1
 4234 087d 5603     		.2byte	0x356
 4235 087f 70000000 		.4byte	0x70
 4236 0883 02       		.uleb128 0x2
 4237 0884 91       		.byte	0x91
 4238 0885 77       		.sleb128 -9
 4239 0886 0E       		.uleb128 0xe
ARM GAS  C:\Users\Svilen\AppData\Local\Temp\ccFr0ira.s 			page 104


 4240 0887 20000000 		.4byte	.LVL135
 4241 088b 02       		.uleb128 0x2
 4242 088c 74       		.byte	0x74
 4243 088d 00       		.sleb128 0
 4244 088e 0F       		.uleb128 0xf
 4245 088f 01       		.uleb128 0x1
 4246 0890 53       		.byte	0x53
 4247 0891 01       		.uleb128 0x1
 4248 0892 31       		.byte	0x31
 4249 0893 0F       		.uleb128 0xf
 4250 0894 01       		.uleb128 0x1
 4251 0895 52       		.byte	0x52
 4252 0896 02       		.uleb128 0x2
 4253 0897 7D       		.byte	0x7d
 4254 0898 07       		.sleb128 7
 4255 0899 0F       		.uleb128 0xf
 4256 089a 01       		.uleb128 0x1
 4257 089b 51       		.byte	0x51
 4258 089c 02       		.uleb128 0x2
 4259 089d 09       		.byte	0x9
 4260 089e E0       		.byte	0xe0
 4261 089f 00       		.byte	0
 4262 08a0 00       		.byte	0
 4263 08a1 15       		.uleb128 0x15
 4264 08a2 FE010000 		.4byte	.LASF63
 4265 08a6 01       		.byte	0x1
 4266 08a7 7603     		.2byte	0x376
 4267 08a9 25000000 		.4byte	0x25
 4268 08ad 00000000 		.4byte	.LFB15
 4269 08b1 3C000000 		.4byte	.LFE15-.LFB15
 4270 08b5 01       		.uleb128 0x1
 4271 08b6 9C       		.byte	0x9c
 4272 08b7 05090000 		.4byte	0x905
 4273 08bb 13       		.uleb128 0x13
 4274 08bc 1A020000 		.4byte	.LASF64
 4275 08c0 01       		.byte	0x1
 4276 08c1 7603     		.2byte	0x376
 4277 08c3 FA010000 		.4byte	0x1fa
 4278 08c7 000A0000 		.4byte	.LLST35
 4279 08cb 14       		.uleb128 0x14
 4280 08cc A5030000 		.4byte	.LASF31
 4281 08d0 01       		.byte	0x1
 4282 08d1 7903     		.2byte	0x379
 4283 08d3 25000000 		.4byte	0x25
 4284 08d7 370A0000 		.4byte	.LLST36
 4285 08db 16       		.uleb128 0x16
 4286 08dc 1A060000 		.4byte	.LASF51
 4287 08e0 01       		.byte	0x1
 4288 08e1 7A03     		.2byte	0x37a
 4289 08e3 70000000 		.4byte	0x70
 4290 08e7 02       		.uleb128 0x2
 4291 08e8 91       		.byte	0x91
 4292 08e9 6F       		.sleb128 -17
 4293 08ea 0E       		.uleb128 0xe
 4294 08eb 24000000 		.4byte	.LVL141
 4295 08ef 02       		.uleb128 0x2
 4296 08f0 76       		.byte	0x76
ARM GAS  C:\Users\Svilen\AppData\Local\Temp\ccFr0ira.s 			page 105


 4297 08f1 00       		.sleb128 0
 4298 08f2 0F       		.uleb128 0xf
 4299 08f3 01       		.uleb128 0x1
 4300 08f4 53       		.byte	0x53
 4301 08f5 01       		.uleb128 0x1
 4302 08f6 31       		.byte	0x31
 4303 08f7 0F       		.uleb128 0xf
 4304 08f8 01       		.uleb128 0x1
 4305 08f9 52       		.byte	0x52
 4306 08fa 02       		.uleb128 0x2
 4307 08fb 74       		.byte	0x74
 4308 08fc 00       		.sleb128 0
 4309 08fd 0F       		.uleb128 0xf
 4310 08fe 01       		.uleb128 0x1
 4311 08ff 51       		.byte	0x51
 4312 0900 02       		.uleb128 0x2
 4313 0901 09       		.byte	0x9
 4314 0902 F5       		.byte	0xf5
 4315 0903 00       		.byte	0
 4316 0904 00       		.byte	0
 4317 0905 15       		.uleb128 0x15
 4318 0906 20010000 		.4byte	.LASF65
 4319 090a 01       		.byte	0x1
 4320 090b 9B03     		.2byte	0x39b
 4321 090d 25000000 		.4byte	0x25
 4322 0911 00000000 		.4byte	.LFB16
 4323 0915 5C000000 		.4byte	.LFE16-.LFB16
 4324 0919 01       		.uleb128 0x1
 4325 091a 9C       		.byte	0x9c
 4326 091b 87090000 		.4byte	0x987
 4327 091f 13       		.uleb128 0x13
 4328 0920 1A020000 		.4byte	.LASF64
 4329 0924 01       		.byte	0x1
 4330 0925 9B03     		.2byte	0x39b
 4331 0927 70000000 		.4byte	0x70
 4332 092b 6F0A0000 		.4byte	.LLST37
 4333 092f 14       		.uleb128 0x14
 4334 0930 A5030000 		.4byte	.LASF31
 4335 0934 01       		.byte	0x1
 4336 0935 9E03     		.2byte	0x39e
 4337 0937 25000000 		.4byte	0x25
 4338 093b A90A0000 		.4byte	.LLST38
 4339 093f 16       		.uleb128 0x16
 4340 0940 1A060000 		.4byte	.LASF51
 4341 0944 01       		.byte	0x1
 4342 0945 9F03     		.2byte	0x39f
 4343 0947 70000000 		.4byte	0x70
 4344 094b 02       		.uleb128 0x2
 4345 094c 91       		.byte	0x91
 4346 094d 6F       		.sleb128 -17
 4347 094e 19       		.uleb128 0x19
 4348 094f 22000000 		.4byte	.LVL147
 4349 0953 02       		.uleb128 0x2
 4350 0954 74       		.byte	0x74
 4351 0955 00       		.sleb128 0
 4352 0956 6C090000 		.4byte	0x96c
 4353 095a 0F       		.uleb128 0xf
ARM GAS  C:\Users\Svilen\AppData\Local\Temp\ccFr0ira.s 			page 106


 4354 095b 01       		.uleb128 0x1
 4355 095c 53       		.byte	0x53
 4356 095d 01       		.uleb128 0x1
 4357 095e 31       		.byte	0x31
 4358 095f 0F       		.uleb128 0xf
 4359 0960 01       		.uleb128 0x1
 4360 0961 52       		.byte	0x52
 4361 0962 02       		.uleb128 0x2
 4362 0963 7D       		.byte	0x7d
 4363 0964 07       		.sleb128 7
 4364 0965 0F       		.uleb128 0xf
 4365 0966 01       		.uleb128 0x1
 4366 0967 51       		.byte	0x51
 4367 0968 02       		.uleb128 0x2
 4368 0969 09       		.byte	0x9
 4369 096a F5       		.byte	0xf5
 4370 096b 00       		.byte	0
 4371 096c 0E       		.uleb128 0xe
 4372 096d 4A000000 		.4byte	.LVL150
 4373 0971 02       		.uleb128 0x2
 4374 0972 75       		.byte	0x75
 4375 0973 00       		.sleb128 0
 4376 0974 0F       		.uleb128 0xf
 4377 0975 01       		.uleb128 0x1
 4378 0976 53       		.byte	0x53
 4379 0977 01       		.uleb128 0x1
 4380 0978 31       		.byte	0x31
 4381 0979 0F       		.uleb128 0xf
 4382 097a 01       		.uleb128 0x1
 4383 097b 52       		.byte	0x52
 4384 097c 02       		.uleb128 0x2
 4385 097d 7D       		.byte	0x7d
 4386 097e 07       		.sleb128 7
 4387 097f 0F       		.uleb128 0xf
 4388 0980 01       		.uleb128 0x1
 4389 0981 51       		.byte	0x51
 4390 0982 02       		.uleb128 0x2
 4391 0983 09       		.byte	0x9
 4392 0984 F5       		.byte	0xf5
 4393 0985 00       		.byte	0
 4394 0986 00       		.byte	0
 4395 0987 15       		.uleb128 0x15
 4396 0988 98060000 		.4byte	.LASF66
 4397 098c 01       		.byte	0x1
 4398 098d C903     		.2byte	0x3c9
 4399 098f 25000000 		.4byte	0x25
 4400 0993 00000000 		.4byte	.LFB17
 4401 0997 3C000000 		.4byte	.LFE17-.LFB17
 4402 099b 01       		.uleb128 0x1
 4403 099c 9C       		.byte	0x9c
 4404 099d EB090000 		.4byte	0x9eb
 4405 09a1 13       		.uleb128 0x13
 4406 09a2 EF040000 		.4byte	.LASF54
 4407 09a6 01       		.byte	0x1
 4408 09a7 C903     		.2byte	0x3c9
 4409 09a9 FA010000 		.4byte	0x1fa
 4410 09ad EC0A0000 		.4byte	.LLST39
ARM GAS  C:\Users\Svilen\AppData\Local\Temp\ccFr0ira.s 			page 107


 4411 09b1 14       		.uleb128 0x14
 4412 09b2 A5030000 		.4byte	.LASF31
 4413 09b6 01       		.byte	0x1
 4414 09b7 CC03     		.2byte	0x3cc
 4415 09b9 25000000 		.4byte	0x25
 4416 09bd 230B0000 		.4byte	.LLST40
 4417 09c1 16       		.uleb128 0x16
 4418 09c2 1A060000 		.4byte	.LASF51
 4419 09c6 01       		.byte	0x1
 4420 09c7 CD03     		.2byte	0x3cd
 4421 09c9 70000000 		.4byte	0x70
 4422 09cd 02       		.uleb128 0x2
 4423 09ce 91       		.byte	0x91
 4424 09cf 6F       		.sleb128 -17
 4425 09d0 0E       		.uleb128 0xe
 4426 09d1 24000000 		.4byte	.LVL157
 4427 09d5 02       		.uleb128 0x2
 4428 09d6 76       		.byte	0x76
 4429 09d7 00       		.sleb128 0
 4430 09d8 0F       		.uleb128 0xf
 4431 09d9 01       		.uleb128 0x1
 4432 09da 53       		.byte	0x53
 4433 09db 01       		.uleb128 0x1
 4434 09dc 31       		.byte	0x31
 4435 09dd 0F       		.uleb128 0xf
 4436 09de 01       		.uleb128 0x1
 4437 09df 52       		.byte	0x52
 4438 09e0 02       		.uleb128 0x2
 4439 09e1 74       		.byte	0x74
 4440 09e2 00       		.sleb128 0
 4441 09e3 0F       		.uleb128 0xf
 4442 09e4 01       		.uleb128 0x1
 4443 09e5 51       		.byte	0x51
 4444 09e6 02       		.uleb128 0x2
 4445 09e7 09       		.byte	0x9
 4446 09e8 F5       		.byte	0xf5
 4447 09e9 00       		.byte	0
 4448 09ea 00       		.byte	0
 4449 09eb 15       		.uleb128 0x15
 4450 09ec A3010000 		.4byte	.LASF67
 4451 09f0 01       		.byte	0x1
 4452 09f1 F003     		.2byte	0x3f0
 4453 09f3 25000000 		.4byte	0x25
 4454 09f7 00000000 		.4byte	.LFB18
 4455 09fb 60000000 		.4byte	.LFE18-.LFB18
 4456 09ff 01       		.uleb128 0x1
 4457 0a00 9C       		.byte	0x9c
 4458 0a01 6D0A0000 		.4byte	0xa6d
 4459 0a05 13       		.uleb128 0x13
 4460 0a06 EF040000 		.4byte	.LASF54
 4461 0a0a 01       		.byte	0x1
 4462 0a0b F003     		.2byte	0x3f0
 4463 0a0d 70000000 		.4byte	0x70
 4464 0a11 5B0B0000 		.4byte	.LLST41
 4465 0a15 14       		.uleb128 0x14
 4466 0a16 A5030000 		.4byte	.LASF31
 4467 0a1a 01       		.byte	0x1
ARM GAS  C:\Users\Svilen\AppData\Local\Temp\ccFr0ira.s 			page 108


 4468 0a1b F203     		.2byte	0x3f2
 4469 0a1d 25000000 		.4byte	0x25
 4470 0a21 950B0000 		.4byte	.LLST42
 4471 0a25 16       		.uleb128 0x16
 4472 0a26 1A060000 		.4byte	.LASF51
 4473 0a2a 01       		.byte	0x1
 4474 0a2b F303     		.2byte	0x3f3
 4475 0a2d 70000000 		.4byte	0x70
 4476 0a31 02       		.uleb128 0x2
 4477 0a32 91       		.byte	0x91
 4478 0a33 6F       		.sleb128 -17
 4479 0a34 19       		.uleb128 0x19
 4480 0a35 22000000 		.4byte	.LVL163
 4481 0a39 02       		.uleb128 0x2
 4482 0a3a 74       		.byte	0x74
 4483 0a3b 00       		.sleb128 0
 4484 0a3c 520A0000 		.4byte	0xa52
 4485 0a40 0F       		.uleb128 0xf
 4486 0a41 01       		.uleb128 0x1
 4487 0a42 53       		.byte	0x53
 4488 0a43 01       		.uleb128 0x1
 4489 0a44 31       		.byte	0x31
 4490 0a45 0F       		.uleb128 0xf
 4491 0a46 01       		.uleb128 0x1
 4492 0a47 52       		.byte	0x52
 4493 0a48 02       		.uleb128 0x2
 4494 0a49 7D       		.byte	0x7d
 4495 0a4a 07       		.sleb128 7
 4496 0a4b 0F       		.uleb128 0xf
 4497 0a4c 01       		.uleb128 0x1
 4498 0a4d 51       		.byte	0x51
 4499 0a4e 02       		.uleb128 0x2
 4500 0a4f 09       		.byte	0x9
 4501 0a50 F5       		.byte	0xf5
 4502 0a51 00       		.byte	0
 4503 0a52 0E       		.uleb128 0xe
 4504 0a53 4C000000 		.4byte	.LVL166
 4505 0a57 02       		.uleb128 0x2
 4506 0a58 75       		.byte	0x75
 4507 0a59 00       		.sleb128 0
 4508 0a5a 0F       		.uleb128 0xf
 4509 0a5b 01       		.uleb128 0x1
 4510 0a5c 53       		.byte	0x53
 4511 0a5d 01       		.uleb128 0x1
 4512 0a5e 31       		.byte	0x31
 4513 0a5f 0F       		.uleb128 0xf
 4514 0a60 01       		.uleb128 0x1
 4515 0a61 52       		.byte	0x52
 4516 0a62 02       		.uleb128 0x2
 4517 0a63 7D       		.byte	0x7d
 4518 0a64 07       		.sleb128 7
 4519 0a65 0F       		.uleb128 0xf
 4520 0a66 01       		.uleb128 0x1
 4521 0a67 51       		.byte	0x51
 4522 0a68 02       		.uleb128 0x2
 4523 0a69 09       		.byte	0x9
 4524 0a6a F5       		.byte	0xf5
ARM GAS  C:\Users\Svilen\AppData\Local\Temp\ccFr0ira.s 			page 109


 4525 0a6b 00       		.byte	0
 4526 0a6c 00       		.byte	0
 4527 0a6d 15       		.uleb128 0x15
 4528 0a6e 56060000 		.4byte	.LASF68
 4529 0a72 01       		.byte	0x1
 4530 0a73 2004     		.2byte	0x420
 4531 0a75 25000000 		.4byte	0x25
 4532 0a79 00000000 		.4byte	.LFB19
 4533 0a7d 38000000 		.4byte	.LFE19-.LFB19
 4534 0a81 01       		.uleb128 0x1
 4535 0a82 9C       		.byte	0x9c
 4536 0a83 D10A0000 		.4byte	0xad1
 4537 0a87 13       		.uleb128 0x13
 4538 0a88 3D000000 		.4byte	.LASF69
 4539 0a8c 01       		.byte	0x1
 4540 0a8d 2004     		.2byte	0x420
 4541 0a8f FA010000 		.4byte	0x1fa
 4542 0a93 D60B0000 		.4byte	.LLST43
 4543 0a97 14       		.uleb128 0x14
 4544 0a98 A5030000 		.4byte	.LASF31
 4545 0a9c 01       		.byte	0x1
 4546 0a9d 2304     		.2byte	0x423
 4547 0a9f 25000000 		.4byte	0x25
 4548 0aa3 0D0C0000 		.4byte	.LLST44
 4549 0aa7 16       		.uleb128 0x16
 4550 0aa8 1A060000 		.4byte	.LASF51
 4551 0aac 01       		.byte	0x1
 4552 0aad 2404     		.2byte	0x424
 4553 0aaf 70000000 		.4byte	0x70
 4554 0ab3 02       		.uleb128 0x2
 4555 0ab4 91       		.byte	0x91
 4556 0ab5 6F       		.sleb128 -17
 4557 0ab6 0E       		.uleb128 0xe
 4558 0ab7 24000000 		.4byte	.LVL173
 4559 0abb 02       		.uleb128 0x2
 4560 0abc 76       		.byte	0x76
 4561 0abd 00       		.sleb128 0
 4562 0abe 0F       		.uleb128 0xf
 4563 0abf 01       		.uleb128 0x1
 4564 0ac0 53       		.byte	0x53
 4565 0ac1 01       		.uleb128 0x1
 4566 0ac2 31       		.byte	0x31
 4567 0ac3 0F       		.uleb128 0xf
 4568 0ac4 01       		.uleb128 0x1
 4569 0ac5 52       		.byte	0x52
 4570 0ac6 02       		.uleb128 0x2
 4571 0ac7 74       		.byte	0x74
 4572 0ac8 00       		.sleb128 0
 4573 0ac9 0F       		.uleb128 0xf
 4574 0aca 01       		.uleb128 0x1
 4575 0acb 51       		.byte	0x51
 4576 0acc 02       		.uleb128 0x2
 4577 0acd 09       		.byte	0x9
 4578 0ace F5       		.byte	0xf5
 4579 0acf 00       		.byte	0
 4580 0ad0 00       		.byte	0
 4581 0ad1 15       		.uleb128 0x15
ARM GAS  C:\Users\Svilen\AppData\Local\Temp\ccFr0ira.s 			page 110


 4582 0ad2 15000000 		.4byte	.LASF70
 4583 0ad6 01       		.byte	0x1
 4584 0ad7 5504     		.2byte	0x455
 4585 0ad9 25000000 		.4byte	0x25
 4586 0add 00000000 		.4byte	.LFB20
 4587 0ae1 58000000 		.4byte	.LFE20-.LFB20
 4588 0ae5 01       		.uleb128 0x1
 4589 0ae6 9C       		.byte	0x9c
 4590 0ae7 530B0000 		.4byte	0xb53
 4591 0aeb 13       		.uleb128 0x13
 4592 0aec 3D000000 		.4byte	.LASF69
 4593 0af0 01       		.byte	0x1
 4594 0af1 5504     		.2byte	0x455
 4595 0af3 70000000 		.4byte	0x70
 4596 0af7 450C0000 		.4byte	.LLST45
 4597 0afb 14       		.uleb128 0x14
 4598 0afc A5030000 		.4byte	.LASF31
 4599 0b00 01       		.byte	0x1
 4600 0b01 5804     		.2byte	0x458
 4601 0b03 25000000 		.4byte	0x25
 4602 0b07 7F0C0000 		.4byte	.LLST46
 4603 0b0b 16       		.uleb128 0x16
 4604 0b0c 1A060000 		.4byte	.LASF51
 4605 0b10 01       		.byte	0x1
 4606 0b11 5904     		.2byte	0x459
 4607 0b13 70000000 		.4byte	0x70
 4608 0b17 02       		.uleb128 0x2
 4609 0b18 91       		.byte	0x91
 4610 0b19 6F       		.sleb128 -17
 4611 0b1a 19       		.uleb128 0x19
 4612 0b1b 22000000 		.4byte	.LVL179
 4613 0b1f 02       		.uleb128 0x2
 4614 0b20 74       		.byte	0x74
 4615 0b21 00       		.sleb128 0
 4616 0b22 380B0000 		.4byte	0xb38
 4617 0b26 0F       		.uleb128 0xf
 4618 0b27 01       		.uleb128 0x1
 4619 0b28 53       		.byte	0x53
 4620 0b29 01       		.uleb128 0x1
 4621 0b2a 31       		.byte	0x31
 4622 0b2b 0F       		.uleb128 0xf
 4623 0b2c 01       		.uleb128 0x1
 4624 0b2d 52       		.byte	0x52
 4625 0b2e 02       		.uleb128 0x2
 4626 0b2f 7D       		.byte	0x7d
 4627 0b30 07       		.sleb128 7
 4628 0b31 0F       		.uleb128 0xf
 4629 0b32 01       		.uleb128 0x1
 4630 0b33 51       		.byte	0x51
 4631 0b34 02       		.uleb128 0x2
 4632 0b35 09       		.byte	0x9
 4633 0b36 F5       		.byte	0xf5
 4634 0b37 00       		.byte	0
 4635 0b38 0E       		.uleb128 0xe
 4636 0b39 46000000 		.4byte	.LVL182
 4637 0b3d 02       		.uleb128 0x2
 4638 0b3e 75       		.byte	0x75
ARM GAS  C:\Users\Svilen\AppData\Local\Temp\ccFr0ira.s 			page 111


 4639 0b3f 00       		.sleb128 0
 4640 0b40 0F       		.uleb128 0xf
 4641 0b41 01       		.uleb128 0x1
 4642 0b42 53       		.byte	0x53
 4643 0b43 01       		.uleb128 0x1
 4644 0b44 31       		.byte	0x31
 4645 0b45 0F       		.uleb128 0xf
 4646 0b46 01       		.uleb128 0x1
 4647 0b47 52       		.byte	0x52
 4648 0b48 02       		.uleb128 0x2
 4649 0b49 7D       		.byte	0x7d
 4650 0b4a 07       		.sleb128 7
 4651 0b4b 0F       		.uleb128 0xf
 4652 0b4c 01       		.uleb128 0x1
 4653 0b4d 51       		.byte	0x51
 4654 0b4e 02       		.uleb128 0x2
 4655 0b4f 09       		.byte	0x9
 4656 0b50 F5       		.byte	0xf5
 4657 0b51 00       		.byte	0
 4658 0b52 00       		.byte	0
 4659 0b53 15       		.uleb128 0x15
 4660 0b54 6E060000 		.4byte	.LASF71
 4661 0b58 01       		.byte	0x1
 4662 0b59 8304     		.2byte	0x483
 4663 0b5b 25000000 		.4byte	0x25
 4664 0b5f 00000000 		.4byte	.LFB21
 4665 0b63 C4000000 		.4byte	.LFE21-.LFB21
 4666 0b67 01       		.uleb128 0x1
 4667 0b68 9C       		.byte	0x9c
 4668 0b69 D50B0000 		.4byte	0xbd5
 4669 0b6d 13       		.uleb128 0x13
 4670 0b6e 3E030000 		.4byte	.LASF72
 4671 0b72 01       		.byte	0x1
 4672 0b73 8304     		.2byte	0x483
 4673 0b75 70000000 		.4byte	0x70
 4674 0b79 C20C0000 		.4byte	.LLST47
 4675 0b7d 14       		.uleb128 0x14
 4676 0b7e A5030000 		.4byte	.LASF31
 4677 0b82 01       		.byte	0x1
 4678 0b83 8604     		.2byte	0x486
 4679 0b85 25000000 		.4byte	0x25
 4680 0b89 150D0000 		.4byte	.LLST48
 4681 0b8d 16       		.uleb128 0x16
 4682 0b8e 1A060000 		.4byte	.LASF51
 4683 0b92 01       		.byte	0x1
 4684 0b93 8704     		.2byte	0x487
 4685 0b95 70000000 		.4byte	0x70
 4686 0b99 02       		.uleb128 0x2
 4687 0b9a 91       		.byte	0x91
 4688 0b9b 6F       		.sleb128 -17
 4689 0b9c 19       		.uleb128 0x19
 4690 0b9d 26000000 		.4byte	.LVL189
 4691 0ba1 02       		.uleb128 0x2
 4692 0ba2 74       		.byte	0x74
 4693 0ba3 00       		.sleb128 0
 4694 0ba4 BA0B0000 		.4byte	0xbba
 4695 0ba8 0F       		.uleb128 0xf
ARM GAS  C:\Users\Svilen\AppData\Local\Temp\ccFr0ira.s 			page 112


 4696 0ba9 01       		.uleb128 0x1
 4697 0baa 53       		.byte	0x53
 4698 0bab 01       		.uleb128 0x1
 4699 0bac 31       		.byte	0x31
 4700 0bad 0F       		.uleb128 0xf
 4701 0bae 01       		.uleb128 0x1
 4702 0baf 52       		.byte	0x52
 4703 0bb0 02       		.uleb128 0x2
 4704 0bb1 7D       		.byte	0x7d
 4705 0bb2 07       		.sleb128 7
 4706 0bb3 0F       		.uleb128 0xf
 4707 0bb4 01       		.uleb128 0x1
 4708 0bb5 51       		.byte	0x51
 4709 0bb6 02       		.uleb128 0x2
 4710 0bb7 09       		.byte	0x9
 4711 0bb8 F4       		.byte	0xf4
 4712 0bb9 00       		.byte	0
 4713 0bba 0E       		.uleb128 0xe
 4714 0bbb A8000000 		.4byte	.LVL191
 4715 0bbf 02       		.uleb128 0x2
 4716 0bc0 75       		.byte	0x75
 4717 0bc1 00       		.sleb128 0
 4718 0bc2 0F       		.uleb128 0xf
 4719 0bc3 01       		.uleb128 0x1
 4720 0bc4 53       		.byte	0x53
 4721 0bc5 01       		.uleb128 0x1
 4722 0bc6 31       		.byte	0x31
 4723 0bc7 0F       		.uleb128 0xf
 4724 0bc8 01       		.uleb128 0x1
 4725 0bc9 52       		.byte	0x52
 4726 0bca 02       		.uleb128 0x2
 4727 0bcb 7D       		.byte	0x7d
 4728 0bcc 07       		.sleb128 7
 4729 0bcd 0F       		.uleb128 0xf
 4730 0bce 01       		.uleb128 0x1
 4731 0bcf 51       		.byte	0x51
 4732 0bd0 02       		.uleb128 0x2
 4733 0bd1 09       		.byte	0x9
 4734 0bd2 F4       		.byte	0xf4
 4735 0bd3 00       		.byte	0
 4736 0bd4 00       		.byte	0
 4737 0bd5 15       		.uleb128 0x15
 4738 0bd6 8F030000 		.4byte	.LASF73
 4739 0bda 01       		.byte	0x1
 4740 0bdb FF04     		.2byte	0x4ff
 4741 0bdd 25000000 		.4byte	0x25
 4742 0be1 00000000 		.4byte	.LFB23
 4743 0be5 24000000 		.4byte	.LFE23-.LFB23
 4744 0be9 01       		.uleb128 0x1
 4745 0bea 9C       		.byte	0x9c
 4746 0beb 400C0000 		.4byte	0xc40
 4747 0bef 13       		.uleb128 0x13
 4748 0bf0 39050000 		.4byte	.LASF74
 4749 0bf4 01       		.byte	0x1
 4750 0bf5 FF04     		.2byte	0x4ff
 4751 0bf7 70000000 		.4byte	0x70
 4752 0bfb 580D0000 		.4byte	.LLST49
ARM GAS  C:\Users\Svilen\AppData\Local\Temp\ccFr0ira.s 			page 113


 4753 0bff 13       		.uleb128 0x13
 4754 0c00 1A060000 		.4byte	.LASF51
 4755 0c04 01       		.byte	0x1
 4756 0c05 FF04     		.2byte	0x4ff
 4757 0c07 FA010000 		.4byte	0x1fa
 4758 0c0b 920D0000 		.4byte	.LLST50
 4759 0c0f 13       		.uleb128 0x13
 4760 0c10 4D060000 		.4byte	.LASF75
 4761 0c14 01       		.byte	0x1
 4762 0c15 0005     		.2byte	0x500
 4763 0c17 70000000 		.4byte	0x70
 4764 0c1b D70D0000 		.4byte	.LLST51
 4765 0c1f 14       		.uleb128 0x14
 4766 0c20 A5030000 		.4byte	.LASF31
 4767 0c24 01       		.byte	0x1
 4768 0c25 0305     		.2byte	0x503
 4769 0c27 25000000 		.4byte	0x25
 4770 0c2b 110E0000 		.4byte	.LLST52
 4771 0c2f 0E       		.uleb128 0xe
 4772 0c30 16000000 		.4byte	.LVL202
 4773 0c34 02       		.uleb128 0x2
 4774 0c35 75       		.byte	0x75
 4775 0c36 00       		.sleb128 0
 4776 0c37 0F       		.uleb128 0xf
 4777 0c38 01       		.uleb128 0x1
 4778 0c39 52       		.byte	0x52
 4779 0c3a 03       		.uleb128 0x3
 4780 0c3b F3       		.byte	0xf3
 4781 0c3c 01       		.uleb128 0x1
 4782 0c3d 51       		.byte	0x51
 4783 0c3e 00       		.byte	0
 4784 0c3f 00       		.byte	0
 4785 0c40 15       		.uleb128 0x15
 4786 0c41 83060000 		.4byte	.LASF76
 4787 0c45 01       		.byte	0x1
 4788 0c46 1E05     		.2byte	0x51e
 4789 0c48 25000000 		.4byte	0x25
 4790 0c4c 00000000 		.4byte	.LFB24
 4791 0c50 24000000 		.4byte	.LFE24-.LFB24
 4792 0c54 01       		.uleb128 0x1
 4793 0c55 9C       		.byte	0x9c
 4794 0c56 AB0C0000 		.4byte	0xcab
 4795 0c5a 13       		.uleb128 0x13
 4796 0c5b 39050000 		.4byte	.LASF74
 4797 0c5f 01       		.byte	0x1
 4798 0c60 1E05     		.2byte	0x51e
 4799 0c62 70000000 		.4byte	0x70
 4800 0c66 490E0000 		.4byte	.LLST53
 4801 0c6a 13       		.uleb128 0x13
 4802 0c6b 1A060000 		.4byte	.LASF51
 4803 0c6f 01       		.byte	0x1
 4804 0c70 1E05     		.2byte	0x51e
 4805 0c72 FA010000 		.4byte	0x1fa
 4806 0c76 830E0000 		.4byte	.LLST54
 4807 0c7a 13       		.uleb128 0x13
 4808 0c7b 4D060000 		.4byte	.LASF75
 4809 0c7f 01       		.byte	0x1
ARM GAS  C:\Users\Svilen\AppData\Local\Temp\ccFr0ira.s 			page 114


 4810 0c80 1F05     		.2byte	0x51f
 4811 0c82 70000000 		.4byte	0x70
 4812 0c86 C80E0000 		.4byte	.LLST55
 4813 0c8a 14       		.uleb128 0x14
 4814 0c8b A5030000 		.4byte	.LASF31
 4815 0c8f 01       		.byte	0x1
 4816 0c90 2205     		.2byte	0x522
 4817 0c92 25000000 		.4byte	0x25
 4818 0c96 020F0000 		.4byte	.LLST56
 4819 0c9a 0E       		.uleb128 0xe
 4820 0c9b 16000000 		.4byte	.LVL210
 4821 0c9f 02       		.uleb128 0x2
 4822 0ca0 75       		.byte	0x75
 4823 0ca1 00       		.sleb128 0
 4824 0ca2 0F       		.uleb128 0xf
 4825 0ca3 01       		.uleb128 0x1
 4826 0ca4 52       		.byte	0x52
 4827 0ca5 03       		.uleb128 0x3
 4828 0ca6 F3       		.byte	0xf3
 4829 0ca7 01       		.uleb128 0x1
 4830 0ca8 51       		.byte	0x51
 4831 0ca9 00       		.byte	0
 4832 0caa 00       		.byte	0
 4833 0cab 12       		.uleb128 0x12
 4834 0cac F1000000 		.4byte	.LASF77
 4835 0cb0 01       		.byte	0x1
 4836 0cb1 3D05     		.2byte	0x53d
 4837 0cb3 060D0000 		.4byte	0xd06
 4838 0cb7 00000000 		.4byte	.LFB25
 4839 0cbb E0000000 		.4byte	.LFE25-.LFB25
 4840 0cbf 01       		.uleb128 0x1
 4841 0cc0 9C       		.byte	0x9c
 4842 0cc1 060D0000 		.4byte	0xd06
 4843 0cc5 13       		.uleb128 0x13
 4844 0cc6 A2040000 		.4byte	.LASF36
 4845 0cca 01       		.byte	0x1
 4846 0ccb 3D05     		.2byte	0x53d
 4847 0ccd 4A000000 		.4byte	0x4a
 4848 0cd1 3A0F0000 		.4byte	.LLST57
 4849 0cd5 14       		.uleb128 0x14
 4850 0cd6 99010000 		.4byte	.LASF37
 4851 0cda 01       		.byte	0x1
 4852 0cdb 3F05     		.2byte	0x53f
 4853 0cdd 060D0000 		.4byte	0xd06
 4854 0ce1 5B0F0000 		.4byte	.LLST58
 4855 0ce5 14       		.uleb128 0x14
 4856 0ce6 B4050000 		.4byte	.LASF38
 4857 0cea 01       		.byte	0x1
 4858 0ceb 4005     		.2byte	0x540
 4859 0ced 060D0000 		.4byte	0xd06
 4860 0cf1 930F0000 		.4byte	.LLST59
 4861 0cf5 14       		.uleb128 0x14
 4862 0cf6 0E020000 		.4byte	.LASF39
 4863 0cfa 01       		.byte	0x1
 4864 0cfb 4105     		.2byte	0x541
 4865 0cfd 060D0000 		.4byte	0xd06
 4866 0d01 BF0F0000 		.4byte	.LLST60
ARM GAS  C:\Users\Svilen\AppData\Local\Temp\ccFr0ira.s 			page 115


 4867 0d05 00       		.byte	0
 4868 0d06 03       		.uleb128 0x3
 4869 0d07 08       		.byte	0x8
 4870 0d08 04       		.byte	0x4
 4871 0d09 9F050000 		.4byte	.LASF78
 4872 0d0d 12       		.uleb128 0x12
 4873 0d0e FA040000 		.4byte	.LASF79
 4874 0d12 01       		.byte	0x1
 4875 0d13 6305     		.2byte	0x563
 4876 0d15 060D0000 		.4byte	0xd06
 4877 0d19 00000000 		.4byte	.LFB26
 4878 0d1d 20020000 		.4byte	.LFE26-.LFB26
 4879 0d21 01       		.uleb128 0x1
 4880 0d22 9C       		.byte	0x9c
 4881 0d23 680D0000 		.4byte	0xd68
 4882 0d27 13       		.uleb128 0x13
 4883 0d28 EE050000 		.4byte	.LASF41
 4884 0d2c 01       		.byte	0x1
 4885 0d2d 6305     		.2byte	0x563
 4886 0d2f 4A000000 		.4byte	0x4a
 4887 0d33 EB0F0000 		.4byte	.LLST61
 4888 0d37 14       		.uleb128 0x14
 4889 0d38 99010000 		.4byte	.LASF37
 4890 0d3c 01       		.byte	0x1
 4891 0d3d 6505     		.2byte	0x565
 4892 0d3f 060D0000 		.4byte	0xd06
 4893 0d43 17100000 		.4byte	.LLST62
 4894 0d47 14       		.uleb128 0x14
 4895 0d48 B4050000 		.4byte	.LASF38
 4896 0d4c 01       		.byte	0x1
 4897 0d4d 6605     		.2byte	0x566
 4898 0d4f 060D0000 		.4byte	0xd06
 4899 0d53 8F100000 		.4byte	.LLST63
 4900 0d57 14       		.uleb128 0x14
 4901 0d58 5D010000 		.4byte	.LASF80
 4902 0d5c 01       		.byte	0x1
 4903 0d5d 6705     		.2byte	0x567
 4904 0d5f 060D0000 		.4byte	0xd06
 4905 0d63 0F110000 		.4byte	.LLST64
 4906 0d67 00       		.byte	0
 4907 0d68 12       		.uleb128 0x12
 4908 0d69 66010000 		.4byte	.LASF81
 4909 0d6d 01       		.byte	0x1
 4910 0d6e 9605     		.2byte	0x596
 4911 0d70 95000000 		.4byte	0x95
 4912 0d74 00000000 		.4byte	.LFB27
 4913 0d78 74010000 		.4byte	.LFE27-.LFB27
 4914 0d7c 01       		.uleb128 0x1
 4915 0d7d 9C       		.byte	0x9c
 4916 0d7e C30D0000 		.4byte	0xdc3
 4917 0d82 13       		.uleb128 0x13
 4918 0d83 EE050000 		.4byte	.LASF41
 4919 0d87 01       		.byte	0x1
 4920 0d88 9605     		.2byte	0x596
 4921 0d8a 4A000000 		.4byte	0x4a
 4922 0d8e 73110000 		.4byte	.LLST65
 4923 0d92 14       		.uleb128 0x14
ARM GAS  C:\Users\Svilen\AppData\Local\Temp\ccFr0ira.s 			page 116


 4924 0d93 BB040000 		.4byte	.LASF82
 4925 0d97 01       		.byte	0x1
 4926 0d98 9805     		.2byte	0x598
 4927 0d9a 5D000000 		.4byte	0x5d
 4928 0d9e B8110000 		.4byte	.LLST66
 4929 0da2 14       		.uleb128 0x14
 4930 0da3 16010000 		.4byte	.LASF83
 4931 0da7 01       		.byte	0x1
 4932 0da8 9905     		.2byte	0x599
 4933 0daa 5D000000 		.4byte	0x5d
 4934 0dae 24120000 		.4byte	.LLST67
 4935 0db2 14       		.uleb128 0x14
 4936 0db3 5D010000 		.4byte	.LASF80
 4937 0db7 01       		.byte	0x1
 4938 0db8 9A05     		.2byte	0x59a
 4939 0dba 5D000000 		.4byte	0x5d
 4940 0dbe 88120000 		.4byte	.LLST68
 4941 0dc2 00       		.byte	0
 4942 0dc3 15       		.uleb128 0x15
 4943 0dc4 24060000 		.4byte	.LASF84
 4944 0dc8 01       		.byte	0x1
 4945 0dc9 D505     		.2byte	0x5d5
 4946 0dcb 25000000 		.4byte	0x25
 4947 0dcf 00000000 		.4byte	.LFB28
 4948 0dd3 44000000 		.4byte	.LFE28-.LFB28
 4949 0dd7 01       		.uleb128 0x1
 4950 0dd8 9C       		.byte	0x9c
 4951 0dd9 FB0D0000 		.4byte	0xdfb
 4952 0ddd 13       		.uleb128 0x13
 4953 0dde 2D000000 		.4byte	.LASF85
 4954 0de2 01       		.byte	0x1
 4955 0de3 D505     		.2byte	0x5d5
 4956 0de5 FA010000 		.4byte	0x1fa
 4957 0de9 D4120000 		.4byte	.LLST69
 4958 0ded 1B       		.uleb128 0x1b
 4959 0dee A5030000 		.4byte	.LASF31
 4960 0df2 01       		.byte	0x1
 4961 0df3 D805     		.2byte	0x5d8
 4962 0df5 25000000 		.4byte	0x25
 4963 0df9 00       		.byte	0
 4964 0dfa 00       		.byte	0
 4965 0dfb 12       		.uleb128 0x12
 4966 0dfc 78000000 		.4byte	.LASF86
 4967 0e00 01       		.byte	0x1
 4968 0e01 D204     		.2byte	0x4d2
 4969 0e03 25000000 		.4byte	0x25
 4970 0e07 00000000 		.4byte	.LFB22
 4971 0e0b 68000000 		.4byte	.LFE22-.LFB22
 4972 0e0f 01       		.uleb128 0x1
 4973 0e10 9C       		.byte	0x9c
 4974 0e11 AC0E0000 		.4byte	0xeac
 4975 0e15 13       		.uleb128 0x13
 4976 0e16 EE050000 		.4byte	.LASF41
 4977 0e1a 01       		.byte	0x1
 4978 0e1b D304     		.2byte	0x4d3
 4979 0e1d 77020000 		.4byte	0x277
 4980 0e21 F5120000 		.4byte	.LLST70
ARM GAS  C:\Users\Svilen\AppData\Local\Temp\ccFr0ira.s 			page 117


 4981 0e25 13       		.uleb128 0x13
 4982 0e26 A2040000 		.4byte	.LASF36
 4983 0e2a 01       		.byte	0x1
 4984 0e2b D304     		.2byte	0x4d3
 4985 0e2d 77020000 		.4byte	0x277
 4986 0e31 2C130000 		.4byte	.LLST71
 4987 0e35 14       		.uleb128 0x14
 4988 0e36 A5030000 		.4byte	.LASF31
 4989 0e3a 01       		.byte	0x1
 4990 0e3b D604     		.2byte	0x4d6
 4991 0e3d 25000000 		.4byte	0x25
 4992 0e41 63130000 		.4byte	.LLST72
 4993 0e45 16       		.uleb128 0x16
 4994 0e46 1A060000 		.4byte	.LASF51
 4995 0e4a 01       		.byte	0x1
 4996 0e4b D704     		.2byte	0x4d7
 4997 0e4d 70000000 		.4byte	0x70
 4998 0e51 02       		.uleb128 0x2
 4999 0e52 91       		.byte	0x91
 5000 0e53 67       		.sleb128 -25
 5001 0e54 16       		.uleb128 0x16
 5002 0e55 C3000000 		.4byte	.LASF87
 5003 0e59 01       		.byte	0x1
 5004 0e5a D804     		.2byte	0x4d8
 5005 0e5c 70000000 		.4byte	0x70
 5006 0e60 02       		.uleb128 0x2
 5007 0e61 91       		.byte	0x91
 5008 0e62 66       		.sleb128 -26
 5009 0e63 19       		.uleb128 0x19
 5010 0e64 36000000 		.4byte	.LVL343
 5011 0e68 02       		.uleb128 0x2
 5012 0e69 77       		.byte	0x77
 5013 0e6a 00       		.sleb128 0
 5014 0e6b 810E0000 		.4byte	0xe81
 5015 0e6f 0F       		.uleb128 0xf
 5016 0e70 01       		.uleb128 0x1
 5017 0e71 53       		.byte	0x53
 5018 0e72 01       		.uleb128 0x1
 5019 0e73 31       		.byte	0x31
 5020 0e74 0F       		.uleb128 0xf
 5021 0e75 01       		.uleb128 0x1
 5022 0e76 52       		.byte	0x52
 5023 0e77 02       		.uleb128 0x2
 5024 0e78 7D       		.byte	0x7d
 5025 0e79 07       		.sleb128 7
 5026 0e7a 0F       		.uleb128 0xf
 5027 0e7b 01       		.uleb128 0x1
 5028 0e7c 51       		.byte	0x51
 5029 0e7d 02       		.uleb128 0x2
 5030 0e7e 09       		.byte	0x9
 5031 0e7f F4       		.byte	0xf4
 5032 0e80 00       		.byte	0
 5033 0e81 17       		.uleb128 0x17
 5034 0e82 42000000 		.4byte	.LVL345
 5035 0e86 C30D0000 		.4byte	0xdc3
 5036 0e8a 950E0000 		.4byte	0xe95
 5037 0e8e 0F       		.uleb128 0xf
ARM GAS  C:\Users\Svilen\AppData\Local\Temp\ccFr0ira.s 			page 118


 5038 0e8f 01       		.uleb128 0x1
 5039 0e90 50       		.byte	0x50
 5040 0e91 02       		.uleb128 0x2
 5041 0e92 77       		.byte	0x77
 5042 0e93 00       		.sleb128 0
 5043 0e94 00       		.byte	0
 5044 0e95 1C       		.uleb128 0x1c
 5045 0e96 54000000 		.4byte	.LVL347
 5046 0e9a A5030000 		.4byte	0x3a5
 5047 0e9e 0F       		.uleb128 0xf
 5048 0e9f 01       		.uleb128 0x1
 5049 0ea0 51       		.byte	0x51
 5050 0ea1 02       		.uleb128 0x2
 5051 0ea2 75       		.byte	0x75
 5052 0ea3 00       		.sleb128 0
 5053 0ea4 0F       		.uleb128 0xf
 5054 0ea5 01       		.uleb128 0x1
 5055 0ea6 50       		.byte	0x50
 5056 0ea7 02       		.uleb128 0x2
 5057 0ea8 76       		.byte	0x76
 5058 0ea9 00       		.sleb128 0
 5059 0eaa 00       		.byte	0
 5060 0eab 00       		.byte	0
 5061 0eac 0D       		.uleb128 0xd
 5062 0ead C5040000 		.4byte	.LASF88
 5063 0eb1 01       		.byte	0x1
 5064 0eb2 38       		.byte	0x38
 5065 0eb3 B3050000 		.4byte	0x5b3
 5066 0eb7 05       		.uleb128 0x5
 5067 0eb8 03       		.byte	0x3
 5068 0eb9 00000000 		.4byte	p_bmp280
 5069 0ebd 00       		.byte	0
 5070              		.section	.debug_abbrev,"",%progbits
 5071              	.Ldebug_abbrev0:
 5072 0000 01       		.uleb128 0x1
 5073 0001 11       		.uleb128 0x11
 5074 0002 01       		.byte	0x1
 5075 0003 25       		.uleb128 0x25
 5076 0004 0E       		.uleb128 0xe
 5077 0005 13       		.uleb128 0x13
 5078 0006 0B       		.uleb128 0xb
 5079 0007 03       		.uleb128 0x3
 5080 0008 0E       		.uleb128 0xe
 5081 0009 1B       		.uleb128 0x1b
 5082 000a 0E       		.uleb128 0xe
 5083 000b 55       		.uleb128 0x55
 5084 000c 17       		.uleb128 0x17
 5085 000d 11       		.uleb128 0x11
 5086 000e 01       		.uleb128 0x1
 5087 000f 10       		.uleb128 0x10
 5088 0010 17       		.uleb128 0x17
 5089 0011 00       		.byte	0
 5090 0012 00       		.byte	0
 5091 0013 02       		.uleb128 0x2
 5092 0014 16       		.uleb128 0x16
 5093 0015 00       		.byte	0
 5094 0016 03       		.uleb128 0x3
ARM GAS  C:\Users\Svilen\AppData\Local\Temp\ccFr0ira.s 			page 119


 5095 0017 08       		.uleb128 0x8
 5096 0018 3A       		.uleb128 0x3a
 5097 0019 0B       		.uleb128 0xb
 5098 001a 3B       		.uleb128 0x3b
 5099 001b 05       		.uleb128 0x5
 5100 001c 49       		.uleb128 0x49
 5101 001d 13       		.uleb128 0x13
 5102 001e 00       		.byte	0
 5103 001f 00       		.byte	0
 5104 0020 03       		.uleb128 0x3
 5105 0021 24       		.uleb128 0x24
 5106 0022 00       		.byte	0
 5107 0023 0B       		.uleb128 0xb
 5108 0024 0B       		.uleb128 0xb
 5109 0025 3E       		.uleb128 0x3e
 5110 0026 0B       		.uleb128 0xb
 5111 0027 03       		.uleb128 0x3
 5112 0028 0E       		.uleb128 0xe
 5113 0029 00       		.byte	0
 5114 002a 00       		.byte	0
 5115 002b 04       		.uleb128 0x4
 5116 002c 13       		.uleb128 0x13
 5117 002d 01       		.byte	0x1
 5118 002e 03       		.uleb128 0x3
 5119 002f 0E       		.uleb128 0xe
 5120 0030 0B       		.uleb128 0xb
 5121 0031 0B       		.uleb128 0xb
 5122 0032 3A       		.uleb128 0x3a
 5123 0033 0B       		.uleb128 0xb
 5124 0034 3B       		.uleb128 0x3b
 5125 0035 05       		.uleb128 0x5
 5126 0036 01       		.uleb128 0x1
 5127 0037 13       		.uleb128 0x13
 5128 0038 00       		.byte	0
 5129 0039 00       		.byte	0
 5130 003a 05       		.uleb128 0x5
 5131 003b 0D       		.uleb128 0xd
 5132 003c 00       		.byte	0
 5133 003d 03       		.uleb128 0x3
 5134 003e 0E       		.uleb128 0xe
 5135 003f 3A       		.uleb128 0x3a
 5136 0040 0B       		.uleb128 0xb
 5137 0041 3B       		.uleb128 0x3b
 5138 0042 05       		.uleb128 0x5
 5139 0043 49       		.uleb128 0x49
 5140 0044 13       		.uleb128 0x13
 5141 0045 38       		.uleb128 0x38
 5142 0046 0B       		.uleb128 0xb
 5143 0047 00       		.byte	0
 5144 0048 00       		.byte	0
 5145 0049 06       		.uleb128 0x6
 5146 004a 15       		.uleb128 0x15
 5147 004b 01       		.byte	0x1
 5148 004c 27       		.uleb128 0x27
 5149 004d 19       		.uleb128 0x19
 5150 004e 49       		.uleb128 0x49
 5151 004f 13       		.uleb128 0x13
ARM GAS  C:\Users\Svilen\AppData\Local\Temp\ccFr0ira.s 			page 120


 5152 0050 01       		.uleb128 0x1
 5153 0051 13       		.uleb128 0x13
 5154 0052 00       		.byte	0
 5155 0053 00       		.byte	0
 5156 0054 07       		.uleb128 0x7
 5157 0055 05       		.uleb128 0x5
 5158 0056 00       		.byte	0
 5159 0057 49       		.uleb128 0x49
 5160 0058 13       		.uleb128 0x13
 5161 0059 00       		.byte	0
 5162 005a 00       		.byte	0
 5163 005b 08       		.uleb128 0x8
 5164 005c 0F       		.uleb128 0xf
 5165 005d 00       		.byte	0
 5166 005e 0B       		.uleb128 0xb
 5167 005f 0B       		.uleb128 0xb
 5168 0060 49       		.uleb128 0x49
 5169 0061 13       		.uleb128 0x13
 5170 0062 00       		.byte	0
 5171 0063 00       		.byte	0
 5172 0064 09       		.uleb128 0x9
 5173 0065 15       		.uleb128 0x15
 5174 0066 01       		.byte	0x1
 5175 0067 27       		.uleb128 0x27
 5176 0068 19       		.uleb128 0x19
 5177 0069 01       		.uleb128 0x1
 5178 006a 13       		.uleb128 0x13
 5179 006b 00       		.byte	0
 5180 006c 00       		.byte	0
 5181 006d 0A       		.uleb128 0xa
 5182 006e 2E       		.uleb128 0x2e
 5183 006f 01       		.byte	0x1
 5184 0070 3F       		.uleb128 0x3f
 5185 0071 19       		.uleb128 0x19
 5186 0072 03       		.uleb128 0x3
 5187 0073 0E       		.uleb128 0xe
 5188 0074 3A       		.uleb128 0x3a
 5189 0075 0B       		.uleb128 0xb
 5190 0076 3B       		.uleb128 0x3b
 5191 0077 0B       		.uleb128 0xb
 5192 0078 27       		.uleb128 0x27
 5193 0079 19       		.uleb128 0x19
 5194 007a 49       		.uleb128 0x49
 5195 007b 13       		.uleb128 0x13
 5196 007c 11       		.uleb128 0x11
 5197 007d 01       		.uleb128 0x1
 5198 007e 12       		.uleb128 0x12
 5199 007f 06       		.uleb128 0x6
 5200 0080 40       		.uleb128 0x40
 5201 0081 18       		.uleb128 0x18
 5202 0082 9742     		.uleb128 0x2117
 5203 0084 19       		.uleb128 0x19
 5204 0085 01       		.uleb128 0x1
 5205 0086 13       		.uleb128 0x13
 5206 0087 00       		.byte	0
 5207 0088 00       		.byte	0
 5208 0089 0B       		.uleb128 0xb
ARM GAS  C:\Users\Svilen\AppData\Local\Temp\ccFr0ira.s 			page 121


 5209 008a 05       		.uleb128 0x5
 5210 008b 00       		.byte	0
 5211 008c 03       		.uleb128 0x3
 5212 008d 0E       		.uleb128 0xe
 5213 008e 3A       		.uleb128 0x3a
 5214 008f 0B       		.uleb128 0xb
 5215 0090 3B       		.uleb128 0x3b
 5216 0091 0B       		.uleb128 0xb
 5217 0092 49       		.uleb128 0x49
 5218 0093 13       		.uleb128 0x13
 5219 0094 02       		.uleb128 0x2
 5220 0095 17       		.uleb128 0x17
 5221 0096 00       		.byte	0
 5222 0097 00       		.byte	0
 5223 0098 0C       		.uleb128 0xc
 5224 0099 34       		.uleb128 0x34
 5225 009a 00       		.byte	0
 5226 009b 03       		.uleb128 0x3
 5227 009c 0E       		.uleb128 0xe
 5228 009d 3A       		.uleb128 0x3a
 5229 009e 0B       		.uleb128 0xb
 5230 009f 3B       		.uleb128 0x3b
 5231 00a0 0B       		.uleb128 0xb
 5232 00a1 49       		.uleb128 0x49
 5233 00a2 13       		.uleb128 0x13
 5234 00a3 02       		.uleb128 0x2
 5235 00a4 17       		.uleb128 0x17
 5236 00a5 00       		.byte	0
 5237 00a6 00       		.byte	0
 5238 00a7 0D       		.uleb128 0xd
 5239 00a8 34       		.uleb128 0x34
 5240 00a9 00       		.byte	0
 5241 00aa 03       		.uleb128 0x3
 5242 00ab 0E       		.uleb128 0xe
 5243 00ac 3A       		.uleb128 0x3a
 5244 00ad 0B       		.uleb128 0xb
 5245 00ae 3B       		.uleb128 0x3b
 5246 00af 0B       		.uleb128 0xb
 5247 00b0 49       		.uleb128 0x49
 5248 00b1 13       		.uleb128 0x13
 5249 00b2 02       		.uleb128 0x2
 5250 00b3 18       		.uleb128 0x18
 5251 00b4 00       		.byte	0
 5252 00b5 00       		.byte	0
 5253 00b6 0E       		.uleb128 0xe
 5254 00b7 898201   		.uleb128 0x4109
 5255 00ba 01       		.byte	0x1
 5256 00bb 11       		.uleb128 0x11
 5257 00bc 01       		.uleb128 0x1
 5258 00bd 9342     		.uleb128 0x2113
 5259 00bf 18       		.uleb128 0x18
 5260 00c0 00       		.byte	0
 5261 00c1 00       		.byte	0
 5262 00c2 0F       		.uleb128 0xf
 5263 00c3 8A8201   		.uleb128 0x410a
 5264 00c6 00       		.byte	0
 5265 00c7 02       		.uleb128 0x2
ARM GAS  C:\Users\Svilen\AppData\Local\Temp\ccFr0ira.s 			page 122


 5266 00c8 18       		.uleb128 0x18
 5267 00c9 9142     		.uleb128 0x2111
 5268 00cb 18       		.uleb128 0x18
 5269 00cc 00       		.byte	0
 5270 00cd 00       		.byte	0
 5271 00ce 10       		.uleb128 0x10
 5272 00cf 01       		.uleb128 0x1
 5273 00d0 01       		.byte	0x1
 5274 00d1 49       		.uleb128 0x49
 5275 00d2 13       		.uleb128 0x13
 5276 00d3 01       		.uleb128 0x1
 5277 00d4 13       		.uleb128 0x13
 5278 00d5 00       		.byte	0
 5279 00d6 00       		.byte	0
 5280 00d7 11       		.uleb128 0x11
 5281 00d8 21       		.uleb128 0x21
 5282 00d9 00       		.byte	0
 5283 00da 49       		.uleb128 0x49
 5284 00db 13       		.uleb128 0x13
 5285 00dc 2F       		.uleb128 0x2f
 5286 00dd 0B       		.uleb128 0xb
 5287 00de 00       		.byte	0
 5288 00df 00       		.byte	0
 5289 00e0 12       		.uleb128 0x12
 5290 00e1 2E       		.uleb128 0x2e
 5291 00e2 01       		.byte	0x1
 5292 00e3 3F       		.uleb128 0x3f
 5293 00e4 19       		.uleb128 0x19
 5294 00e5 03       		.uleb128 0x3
 5295 00e6 0E       		.uleb128 0xe
 5296 00e7 3A       		.uleb128 0x3a
 5297 00e8 0B       		.uleb128 0xb
 5298 00e9 3B       		.uleb128 0x3b
 5299 00ea 05       		.uleb128 0x5
 5300 00eb 27       		.uleb128 0x27
 5301 00ec 19       		.uleb128 0x19
 5302 00ed 49       		.uleb128 0x49
 5303 00ee 13       		.uleb128 0x13
 5304 00ef 11       		.uleb128 0x11
 5305 00f0 01       		.uleb128 0x1
 5306 00f1 12       		.uleb128 0x12
 5307 00f2 06       		.uleb128 0x6
 5308 00f3 40       		.uleb128 0x40
 5309 00f4 18       		.uleb128 0x18
 5310 00f5 9642     		.uleb128 0x2116
 5311 00f7 19       		.uleb128 0x19
 5312 00f8 01       		.uleb128 0x1
 5313 00f9 13       		.uleb128 0x13
 5314 00fa 00       		.byte	0
 5315 00fb 00       		.byte	0
 5316 00fc 13       		.uleb128 0x13
 5317 00fd 05       		.uleb128 0x5
 5318 00fe 00       		.byte	0
 5319 00ff 03       		.uleb128 0x3
 5320 0100 0E       		.uleb128 0xe
 5321 0101 3A       		.uleb128 0x3a
 5322 0102 0B       		.uleb128 0xb
ARM GAS  C:\Users\Svilen\AppData\Local\Temp\ccFr0ira.s 			page 123


 5323 0103 3B       		.uleb128 0x3b
 5324 0104 05       		.uleb128 0x5
 5325 0105 49       		.uleb128 0x49
 5326 0106 13       		.uleb128 0x13
 5327 0107 02       		.uleb128 0x2
 5328 0108 17       		.uleb128 0x17
 5329 0109 00       		.byte	0
 5330 010a 00       		.byte	0
 5331 010b 14       		.uleb128 0x14
 5332 010c 34       		.uleb128 0x34
 5333 010d 00       		.byte	0
 5334 010e 03       		.uleb128 0x3
 5335 010f 0E       		.uleb128 0xe
 5336 0110 3A       		.uleb128 0x3a
 5337 0111 0B       		.uleb128 0xb
 5338 0112 3B       		.uleb128 0x3b
 5339 0113 05       		.uleb128 0x5
 5340 0114 49       		.uleb128 0x49
 5341 0115 13       		.uleb128 0x13
 5342 0116 02       		.uleb128 0x2
 5343 0117 17       		.uleb128 0x17
 5344 0118 00       		.byte	0
 5345 0119 00       		.byte	0
 5346 011a 15       		.uleb128 0x15
 5347 011b 2E       		.uleb128 0x2e
 5348 011c 01       		.byte	0x1
 5349 011d 3F       		.uleb128 0x3f
 5350 011e 19       		.uleb128 0x19
 5351 011f 03       		.uleb128 0x3
 5352 0120 0E       		.uleb128 0xe
 5353 0121 3A       		.uleb128 0x3a
 5354 0122 0B       		.uleb128 0xb
 5355 0123 3B       		.uleb128 0x3b
 5356 0124 05       		.uleb128 0x5
 5357 0125 27       		.uleb128 0x27
 5358 0126 19       		.uleb128 0x19
 5359 0127 49       		.uleb128 0x49
 5360 0128 13       		.uleb128 0x13
 5361 0129 11       		.uleb128 0x11
 5362 012a 01       		.uleb128 0x1
 5363 012b 12       		.uleb128 0x12
 5364 012c 06       		.uleb128 0x6
 5365 012d 40       		.uleb128 0x40
 5366 012e 18       		.uleb128 0x18
 5367 012f 9742     		.uleb128 0x2117
 5368 0131 19       		.uleb128 0x19
 5369 0132 01       		.uleb128 0x1
 5370 0133 13       		.uleb128 0x13
 5371 0134 00       		.byte	0
 5372 0135 00       		.byte	0
 5373 0136 16       		.uleb128 0x16
 5374 0137 34       		.uleb128 0x34
 5375 0138 00       		.byte	0
 5376 0139 03       		.uleb128 0x3
 5377 013a 0E       		.uleb128 0xe
 5378 013b 3A       		.uleb128 0x3a
 5379 013c 0B       		.uleb128 0xb
ARM GAS  C:\Users\Svilen\AppData\Local\Temp\ccFr0ira.s 			page 124


 5380 013d 3B       		.uleb128 0x3b
 5381 013e 05       		.uleb128 0x5
 5382 013f 49       		.uleb128 0x49
 5383 0140 13       		.uleb128 0x13
 5384 0141 02       		.uleb128 0x2
 5385 0142 18       		.uleb128 0x18
 5386 0143 00       		.byte	0
 5387 0144 00       		.byte	0
 5388 0145 17       		.uleb128 0x17
 5389 0146 898201   		.uleb128 0x4109
 5390 0149 01       		.byte	0x1
 5391 014a 11       		.uleb128 0x11
 5392 014b 01       		.uleb128 0x1
 5393 014c 31       		.uleb128 0x31
 5394 014d 13       		.uleb128 0x13
 5395 014e 01       		.uleb128 0x1
 5396 014f 13       		.uleb128 0x13
 5397 0150 00       		.byte	0
 5398 0151 00       		.byte	0
 5399 0152 18       		.uleb128 0x18
 5400 0153 898201   		.uleb128 0x4109
 5401 0156 00       		.byte	0
 5402 0157 11       		.uleb128 0x11
 5403 0158 01       		.uleb128 0x1
 5404 0159 31       		.uleb128 0x31
 5405 015a 13       		.uleb128 0x13
 5406 015b 00       		.byte	0
 5407 015c 00       		.byte	0
 5408 015d 19       		.uleb128 0x19
 5409 015e 898201   		.uleb128 0x4109
 5410 0161 01       		.byte	0x1
 5411 0162 11       		.uleb128 0x11
 5412 0163 01       		.uleb128 0x1
 5413 0164 9342     		.uleb128 0x2113
 5414 0166 18       		.uleb128 0x18
 5415 0167 01       		.uleb128 0x1
 5416 0168 13       		.uleb128 0x13
 5417 0169 00       		.byte	0
 5418 016a 00       		.byte	0
 5419 016b 1A       		.uleb128 0x1a
 5420 016c 898201   		.uleb128 0x4109
 5421 016f 01       		.byte	0x1
 5422 0170 11       		.uleb128 0x11
 5423 0171 01       		.uleb128 0x1
 5424 0172 01       		.uleb128 0x1
 5425 0173 13       		.uleb128 0x13
 5426 0174 00       		.byte	0
 5427 0175 00       		.byte	0
 5428 0176 1B       		.uleb128 0x1b
 5429 0177 34       		.uleb128 0x34
 5430 0178 00       		.byte	0
 5431 0179 03       		.uleb128 0x3
 5432 017a 0E       		.uleb128 0xe
 5433 017b 3A       		.uleb128 0x3a
 5434 017c 0B       		.uleb128 0xb
 5435 017d 3B       		.uleb128 0x3b
 5436 017e 05       		.uleb128 0x5
ARM GAS  C:\Users\Svilen\AppData\Local\Temp\ccFr0ira.s 			page 125


 5437 017f 49       		.uleb128 0x49
 5438 0180 13       		.uleb128 0x13
 5439 0181 1C       		.uleb128 0x1c
 5440 0182 0B       		.uleb128 0xb
 5441 0183 00       		.byte	0
 5442 0184 00       		.byte	0
 5443 0185 1C       		.uleb128 0x1c
 5444 0186 898201   		.uleb128 0x4109
 5445 0189 01       		.byte	0x1
 5446 018a 11       		.uleb128 0x11
 5447 018b 01       		.uleb128 0x1
 5448 018c 31       		.uleb128 0x31
 5449 018d 13       		.uleb128 0x13
 5450 018e 00       		.byte	0
 5451 018f 00       		.byte	0
 5452 0190 00       		.byte	0
 5453              		.section	.debug_loc,"",%progbits
 5454              	.Ldebug_loc0:
 5455              	.LLST0:
 5456 0000 00000000 		.4byte	.LVL0
 5457 0004 1C000000 		.4byte	.LVL2
 5458 0008 0100     		.2byte	0x1
 5459 000a 50       		.byte	0x50
 5460 000b 1C000000 		.4byte	.LVL2
 5461 000f 3A000000 		.4byte	.LVL4
 5462 0013 0100     		.2byte	0x1
 5463 0015 55       		.byte	0x55
 5464 0016 3A000000 		.4byte	.LVL4
 5465 001a 3C000000 		.4byte	.LVL5
 5466 001e 0100     		.2byte	0x1
 5467 0020 50       		.byte	0x50
 5468 0021 3C000000 		.4byte	.LVL5
 5469 0025 48000000 		.4byte	.LFE1
 5470 0029 0400     		.2byte	0x4
 5471 002b F3       		.byte	0xf3
 5472 002c 01       		.uleb128 0x1
 5473 002d 50       		.byte	0x50
 5474 002e 9F       		.byte	0x9f
 5475 002f 00000000 		.4byte	0
 5476 0033 00000000 		.4byte	0
 5477              	.LLST1:
 5478 0037 04000000 		.4byte	.LVL1
 5479 003b 26000000 		.4byte	.LVL3
 5480 003f 0300     		.2byte	0x3
 5481 0041 09       		.byte	0x9
 5482 0042 FF       		.byte	0xff
 5483 0043 9F       		.byte	0x9f
 5484 0044 26000000 		.4byte	.LVL3
 5485 0048 3A000000 		.4byte	.LVL4
 5486 004c 0100     		.2byte	0x1
 5487 004e 50       		.byte	0x50
 5488 004f 3A000000 		.4byte	.LVL4
 5489 0053 3C000000 		.4byte	.LVL5
 5490 0057 0300     		.2byte	0x3
 5491 0059 09       		.byte	0x9
 5492 005a FF       		.byte	0xff
 5493 005b 9F       		.byte	0x9f
ARM GAS  C:\Users\Svilen\AppData\Local\Temp\ccFr0ira.s 			page 126


 5494 005c 3C000000 		.4byte	.LVL5
 5495 0060 48000000 		.4byte	.LFE1
 5496 0064 0100     		.2byte	0x1
 5497 0066 50       		.byte	0x50
 5498 0067 00000000 		.4byte	0
 5499 006b 00000000 		.4byte	0
 5500              	.LLST2:
 5501 006f 00000000 		.4byte	.LVL6
 5502 0073 18000000 		.4byte	.LVL9
 5503 0077 0100     		.2byte	0x1
 5504 0079 50       		.byte	0x50
 5505 007a 18000000 		.4byte	.LVL9
 5506 007e 38000000 		.4byte	.LFE2
 5507 0082 0400     		.2byte	0x4
 5508 0084 F3       		.byte	0xf3
 5509 0085 01       		.uleb128 0x1
 5510 0086 50       		.byte	0x50
 5511 0087 9F       		.byte	0x9f
 5512 0088 00000000 		.4byte	0
 5513 008c 00000000 		.4byte	0
 5514              	.LLST3:
 5515 0090 02000000 		.4byte	.LVL7
 5516 0094 16000000 		.4byte	.LVL8
 5517 0098 0200     		.2byte	0x2
 5518 009a 30       		.byte	0x30
 5519 009b 9F       		.byte	0x9f
 5520 009c 16000000 		.4byte	.LVL8
 5521 00a0 38000000 		.4byte	.LFE2
 5522 00a4 0100     		.2byte	0x1
 5523 00a6 51       		.byte	0x51
 5524 00a7 00000000 		.4byte	0
 5525 00ab 00000000 		.4byte	0
 5526              	.LLST4:
 5527 00af 02000000 		.4byte	.LVL7
 5528 00b3 26000000 		.4byte	.LVL10
 5529 00b7 0200     		.2byte	0x2
 5530 00b9 30       		.byte	0x30
 5531 00ba 9F       		.byte	0x9f
 5532 00bb 26000000 		.4byte	.LVL10
 5533 00bf 28000000 		.4byte	.LVL11
 5534 00c3 0100     		.2byte	0x1
 5535 00c5 53       		.byte	0x53
 5536 00c6 28000000 		.4byte	.LVL11
 5537 00ca 32000000 		.4byte	.LVL13
 5538 00ce 1900     		.2byte	0x19
 5539 00d0 F3       		.byte	0xf3
 5540 00d1 01       		.uleb128 0x1
 5541 00d2 50       		.byte	0x50
 5542 00d3 34       		.byte	0x34
 5543 00d4 26       		.byte	0x26
 5544 00d5 75       		.byte	0x75
 5545 00d6 00       		.sleb128 0
 5546 00d7 1C       		.byte	0x1c
 5547 00d8 F3       		.byte	0xf3
 5548 00d9 01       		.uleb128 0x1
 5549 00da 50       		.byte	0x50
 5550 00db 34       		.byte	0x34
ARM GAS  C:\Users\Svilen\AppData\Local\Temp\ccFr0ira.s 			page 127


 5551 00dc 26       		.byte	0x26
 5552 00dd 75       		.byte	0x75
 5553 00de 00       		.sleb128 0
 5554 00df 1C       		.byte	0x1c
 5555 00e0 1E       		.byte	0x1e
 5556 00e1 3C       		.byte	0x3c
 5557 00e2 26       		.byte	0x26
 5558 00e3 72       		.byte	0x72
 5559 00e4 00       		.sleb128 0
 5560 00e5 1E       		.byte	0x1e
 5561 00e6 3E       		.byte	0x3e
 5562 00e7 26       		.byte	0x26
 5563 00e8 9F       		.byte	0x9f
 5564 00e9 32000000 		.4byte	.LVL13
 5565 00ed 38000000 		.4byte	.LFE2
 5566 00f1 2D00     		.2byte	0x2d
 5567 00f3 F3       		.byte	0xf3
 5568 00f4 01       		.uleb128 0x1
 5569 00f5 50       		.byte	0x50
 5570 00f6 34       		.byte	0x34
 5571 00f7 26       		.byte	0x26
 5572 00f8 03       		.byte	0x3
 5573 00f9 00000000 		.4byte	p_bmp280
 5574 00fd 06       		.byte	0x6
 5575 00fe 94       		.byte	0x94
 5576 00ff 02       		.byte	0x2
 5577 0100 0A       		.byte	0xa
 5578 0101 FFFF     		.2byte	0xffff
 5579 0103 1A       		.byte	0x1a
 5580 0104 1C       		.byte	0x1c
 5581 0105 F3       		.byte	0xf3
 5582 0106 01       		.uleb128 0x1
 5583 0107 50       		.byte	0x50
 5584 0108 34       		.byte	0x34
 5585 0109 26       		.byte	0x26
 5586 010a 03       		.byte	0x3
 5587 010b 00000000 		.4byte	p_bmp280
 5588 010f 06       		.byte	0x6
 5589 0110 94       		.byte	0x94
 5590 0111 02       		.byte	0x2
 5591 0112 0A       		.byte	0xa
 5592 0113 FFFF     		.2byte	0xffff
 5593 0115 1A       		.byte	0x1a
 5594 0116 1C       		.byte	0x1c
 5595 0117 1E       		.byte	0x1e
 5596 0118 3C       		.byte	0x3c
 5597 0119 26       		.byte	0x26
 5598 011a 72       		.byte	0x72
 5599 011b 00       		.sleb128 0
 5600 011c 1E       		.byte	0x1e
 5601 011d 3E       		.byte	0x3e
 5602 011e 26       		.byte	0x26
 5603 011f 9F       		.byte	0x9f
 5604 0120 00000000 		.4byte	0
 5605 0124 00000000 		.4byte	0
 5606              	.LLST5:
 5607 0128 02000000 		.4byte	.LVL7
ARM GAS  C:\Users\Svilen\AppData\Local\Temp\ccFr0ira.s 			page 128


 5608 012c 32000000 		.4byte	.LVL12
 5609 0130 0200     		.2byte	0x2
 5610 0132 30       		.byte	0x30
 5611 0133 9F       		.byte	0x9f
 5612 0134 32000000 		.4byte	.LVL12
 5613 0138 38000000 		.4byte	.LFE2
 5614 013c 0100     		.2byte	0x1
 5615 013e 50       		.byte	0x50
 5616 013f 00000000 		.4byte	0
 5617 0143 00000000 		.4byte	0
 5618              	.LLST6:
 5619 0147 00000000 		.4byte	.LVL14
 5620 014b 1C000000 		.4byte	.LVL16
 5621 014f 0100     		.2byte	0x1
 5622 0151 50       		.byte	0x50
 5623 0152 1C000000 		.4byte	.LVL16
 5624 0156 3A000000 		.4byte	.LVL18
 5625 015a 0100     		.2byte	0x1
 5626 015c 55       		.byte	0x55
 5627 015d 3A000000 		.4byte	.LVL18
 5628 0161 3C000000 		.4byte	.LVL19
 5629 0165 0100     		.2byte	0x1
 5630 0167 50       		.byte	0x50
 5631 0168 3C000000 		.4byte	.LVL19
 5632 016c 48000000 		.4byte	.LFE3
 5633 0170 0400     		.2byte	0x4
 5634 0172 F3       		.byte	0xf3
 5635 0173 01       		.uleb128 0x1
 5636 0174 50       		.byte	0x50
 5637 0175 9F       		.byte	0x9f
 5638 0176 00000000 		.4byte	0
 5639 017a 00000000 		.4byte	0
 5640              	.LLST7:
 5641 017e 04000000 		.4byte	.LVL15
 5642 0182 26000000 		.4byte	.LVL17
 5643 0186 0300     		.2byte	0x3
 5644 0188 09       		.byte	0x9
 5645 0189 FF       		.byte	0xff
 5646 018a 9F       		.byte	0x9f
 5647 018b 26000000 		.4byte	.LVL17
 5648 018f 3A000000 		.4byte	.LVL18
 5649 0193 0100     		.2byte	0x1
 5650 0195 50       		.byte	0x50
 5651 0196 3A000000 		.4byte	.LVL18
 5652 019a 3C000000 		.4byte	.LVL19
 5653 019e 0300     		.2byte	0x3
 5654 01a0 09       		.byte	0x9
 5655 01a1 FF       		.byte	0xff
 5656 01a2 9F       		.byte	0x9f
 5657 01a3 3C000000 		.4byte	.LVL19
 5658 01a7 48000000 		.4byte	.LFE3
 5659 01ab 0100     		.2byte	0x1
 5660 01ad 50       		.byte	0x50
 5661 01ae 00000000 		.4byte	0
 5662 01b2 00000000 		.4byte	0
 5663              	.LLST8:
 5664 01b6 00000000 		.4byte	.LVL20
ARM GAS  C:\Users\Svilen\AppData\Local\Temp\ccFr0ira.s 			page 129


 5665 01ba 5A000000 		.4byte	.LVL33
 5666 01be 0100     		.2byte	0x1
 5667 01c0 50       		.byte	0x50
 5668 01c1 5A000000 		.4byte	.LVL33
 5669 01c5 5C000000 		.4byte	.LVL34
 5670 01c9 0400     		.2byte	0x4
 5671 01cb 70       		.byte	0x70
 5672 01cc 00       		.sleb128 0
 5673 01cd 1F       		.byte	0x1f
 5674 01ce 9F       		.byte	0x9f
 5675 01cf 5C000000 		.4byte	.LVL34
 5676 01d3 BC000000 		.4byte	.LFE4
 5677 01d7 0400     		.2byte	0x4
 5678 01d9 F3       		.byte	0xf3
 5679 01da 01       		.uleb128 0x1
 5680 01db 50       		.byte	0x50
 5681 01dc 9F       		.byte	0x9f
 5682 01dd 00000000 		.4byte	0
 5683 01e1 00000000 		.4byte	0
 5684              	.LLST9:
 5685 01e5 02000000 		.4byte	.LVL21
 5686 01e9 10000000 		.4byte	.LVL22
 5687 01ed 0200     		.2byte	0x2
 5688 01ef 30       		.byte	0x30
 5689 01f0 9F       		.byte	0x9f
 5690 01f1 10000000 		.4byte	.LVL22
 5691 01f5 42000000 		.4byte	.LVL28
 5692 01f9 0100     		.2byte	0x1
 5693 01fb 53       		.byte	0x53
 5694 01fc 42000000 		.4byte	.LVL28
 5695 0200 48000000 		.4byte	.LVL29
 5696 0204 0900     		.2byte	0x9
 5697 0206 74       		.byte	0x74
 5698 0207 18       		.sleb128 24
 5699 0208 06       		.byte	0x6
 5700 0209 31       		.byte	0x31
 5701 020a 26       		.byte	0x26
 5702 020b 7C       		.byte	0x7c
 5703 020c 00       		.sleb128 0
 5704 020d 22       		.byte	0x22
 5705 020e 9F       		.byte	0x9f
 5706 020f 48000000 		.4byte	.LVL29
 5707 0213 50000000 		.4byte	.LVL30
 5708 0217 0100     		.2byte	0x1
 5709 0219 53       		.byte	0x53
 5710 021a 50000000 		.4byte	.LVL30
 5711 021e 56000000 		.4byte	.LVL31
 5712 0222 0500     		.2byte	0x5
 5713 0224 73       		.byte	0x73
 5714 0225 80807E   		.sleb128 -32768
 5715 0228 9F       		.byte	0x9f
 5716 0229 56000000 		.4byte	.LVL31
 5717 022d 6F000000 		.4byte	.LVL38-1
 5718 0231 0100     		.2byte	0x1
 5719 0233 51       		.byte	0x51
 5720 0234 72000000 		.4byte	.LVL39
 5721 0238 79000000 		.4byte	.LVL40-1
ARM GAS  C:\Users\Svilen\AppData\Local\Temp\ccFr0ira.s 			page 130


 5722 023c 0100     		.2byte	0x1
 5723 023e 51       		.byte	0x51
 5724 023f 8A000000 		.4byte	.LVL42
 5725 0243 96000000 		.4byte	.LVL44
 5726 0247 0100     		.2byte	0x1
 5727 0249 53       		.byte	0x53
 5728 024a 96000000 		.4byte	.LVL44
 5729 024e A0000000 		.4byte	.LVL47
 5730 0252 1700     		.2byte	0x17
 5731 0254 70       		.byte	0x70
 5732 0255 00       		.sleb128 0
 5733 0256 33       		.byte	0x33
 5734 0257 25       		.byte	0x25
 5735 0258 70       		.byte	0x70
 5736 0259 00       		.sleb128 0
 5737 025a 33       		.byte	0x33
 5738 025b 25       		.byte	0x25
 5739 025c 1E       		.byte	0x1e
 5740 025d 3D       		.byte	0x3d
 5741 025e 25       		.byte	0x25
 5742 025f 74       		.byte	0x74
 5743 0260 16       		.sleb128 22
 5744 0261 94       		.byte	0x94
 5745 0262 02       		.byte	0x2
 5746 0263 40       		.byte	0x40
 5747 0264 24       		.byte	0x24
 5748 0265 40       		.byte	0x40
 5749 0266 26       		.byte	0x26
 5750 0267 1E       		.byte	0x1e
 5751 0268 3C       		.byte	0x3c
 5752 0269 26       		.byte	0x26
 5753 026a 9F       		.byte	0x9f
 5754 026b A2000000 		.4byte	.LVL48
 5755 026f A8000000 		.4byte	.LVL51
 5756 0273 0100     		.2byte	0x1
 5757 0275 51       		.byte	0x51
 5758 0276 00000000 		.4byte	0
 5759 027a 00000000 		.4byte	0
 5760              	.LLST10:
 5761 027e 02000000 		.4byte	.LVL21
 5762 0282 1E000000 		.4byte	.LVL23
 5763 0286 0200     		.2byte	0x2
 5764 0288 30       		.byte	0x30
 5765 0289 9F       		.byte	0x9f
 5766 028a 1E000000 		.4byte	.LVL23
 5767 028e 22000000 		.4byte	.LVL24
 5768 0292 0100     		.2byte	0x1
 5769 0294 51       		.byte	0x51
 5770 0295 22000000 		.4byte	.LVL24
 5771 0299 28000000 		.4byte	.LVL25
 5772 029d 0100     		.2byte	0x1
 5773 029f 56       		.byte	0x56
 5774 02a0 28000000 		.4byte	.LVL25
 5775 02a4 2E000000 		.4byte	.LVL26
 5776 02a8 0100     		.2byte	0x1
 5777 02aa 55       		.byte	0x55
 5778 02ab 2E000000 		.4byte	.LVL26
ARM GAS  C:\Users\Svilen\AppData\Local\Temp\ccFr0ira.s 			page 131


 5779 02af 32000000 		.4byte	.LVL27
 5780 02b3 1C00     		.2byte	0x1c
 5781 02b5 72       		.byte	0x72
 5782 02b6 00       		.sleb128 0
 5783 02b7 3B       		.byte	0x3b
 5784 02b8 26       		.byte	0x26
 5785 02b9 74       		.byte	0x74
 5786 02ba 10       		.sleb128 16
 5787 02bb 94       		.byte	0x94
 5788 02bc 02       		.byte	0x2
 5789 02bd 40       		.byte	0x40
 5790 02be 24       		.byte	0x24
 5791 02bf 40       		.byte	0x40
 5792 02c0 26       		.byte	0x26
 5793 02c1 1E       		.byte	0x1e
 5794 02c2 74       		.byte	0x74
 5795 02c3 0E       		.sleb128 14
 5796 02c4 94       		.byte	0x94
 5797 02c5 02       		.byte	0x2
 5798 02c6 40       		.byte	0x40
 5799 02c7 24       		.byte	0x24
 5800 02c8 40       		.byte	0x40
 5801 02c9 26       		.byte	0x26
 5802 02ca 73       		.byte	0x73
 5803 02cb 00       		.sleb128 0
 5804 02cc 1E       		.byte	0x1e
 5805 02cd 31       		.byte	0x31
 5806 02ce 24       		.byte	0x24
 5807 02cf 22       		.byte	0x22
 5808 02d0 9F       		.byte	0x9f
 5809 02d1 32000000 		.4byte	.LVL27
 5810 02d5 58000000 		.4byte	.LVL32
 5811 02d9 0100     		.2byte	0x1
 5812 02db 55       		.byte	0x55
 5813 02dc 58000000 		.4byte	.LVL32
 5814 02e0 6F000000 		.4byte	.LVL38-1
 5815 02e4 4500     		.2byte	0x45
 5816 02e6 74       		.byte	0x74
 5817 02e7 18       		.sleb128 24
 5818 02e8 06       		.byte	0x6
 5819 02e9 31       		.byte	0x31
 5820 02ea 26       		.byte	0x26
 5821 02eb 0A       		.byte	0xa
 5822 02ec 00FA     		.2byte	0xfa00
 5823 02ee 1C       		.byte	0x1c
 5824 02ef 32       		.byte	0x32
 5825 02f0 26       		.byte	0x26
 5826 02f1 74       		.byte	0x74
 5827 02f2 18       		.sleb128 24
 5828 02f3 06       		.byte	0x6
 5829 02f4 31       		.byte	0x31
 5830 02f5 26       		.byte	0x26
 5831 02f6 0A       		.byte	0xa
 5832 02f7 00FA     		.2byte	0xfa00
 5833 02f9 1C       		.byte	0x1c
 5834 02fa 32       		.byte	0x32
 5835 02fb 26       		.byte	0x26
ARM GAS  C:\Users\Svilen\AppData\Local\Temp\ccFr0ira.s 			page 132


 5836 02fc 1E       		.byte	0x1e
 5837 02fd 3B       		.byte	0x3b
 5838 02fe 26       		.byte	0x26
 5839 02ff 74       		.byte	0x74
 5840 0300 10       		.sleb128 16
 5841 0301 94       		.byte	0x94
 5842 0302 02       		.byte	0x2
 5843 0303 40       		.byte	0x40
 5844 0304 24       		.byte	0x24
 5845 0305 40       		.byte	0x40
 5846 0306 26       		.byte	0x26
 5847 0307 1E       		.byte	0x1e
 5848 0308 74       		.byte	0x74
 5849 0309 18       		.sleb128 24
 5850 030a 06       		.byte	0x6
 5851 030b 31       		.byte	0x31
 5852 030c 26       		.byte	0x26
 5853 030d 0A       		.byte	0xa
 5854 030e 00FA     		.2byte	0xfa00
 5855 0310 1C       		.byte	0x1c
 5856 0311 74       		.byte	0x74
 5857 0312 0E       		.sleb128 14
 5858 0313 94       		.byte	0x94
 5859 0314 02       		.byte	0x2
 5860 0315 40       		.byte	0x40
 5861 0316 24       		.byte	0x24
 5862 0317 40       		.byte	0x40
 5863 0318 26       		.byte	0x26
 5864 0319 1E       		.byte	0x1e
 5865 031a 31       		.byte	0x31
 5866 031b 24       		.byte	0x24
 5867 031c 22       		.byte	0x22
 5868 031d 32       		.byte	0x32
 5869 031e 26       		.byte	0x26
 5870 031f 74       		.byte	0x74
 5871 0320 0C       		.sleb128 12
 5872 0321 94       		.byte	0x94
 5873 0322 02       		.byte	0x2
 5874 0323 40       		.byte	0x40
 5875 0324 24       		.byte	0x24
 5876 0325 40       		.byte	0x40
 5877 0326 26       		.byte	0x26
 5878 0327 40       		.byte	0x40
 5879 0328 24       		.byte	0x24
 5880 0329 22       		.byte	0x22
 5881 032a 9F       		.byte	0x9f
 5882 032b 72000000 		.4byte	.LVL39
 5883 032f 79000000 		.4byte	.LVL40-1
 5884 0333 4500     		.2byte	0x45
 5885 0335 74       		.byte	0x74
 5886 0336 18       		.sleb128 24
 5887 0337 06       		.byte	0x6
 5888 0338 31       		.byte	0x31
 5889 0339 26       		.byte	0x26
 5890 033a 0A       		.byte	0xa
 5891 033b 00FA     		.2byte	0xfa00
 5892 033d 1C       		.byte	0x1c
ARM GAS  C:\Users\Svilen\AppData\Local\Temp\ccFr0ira.s 			page 133


 5893 033e 32       		.byte	0x32
 5894 033f 26       		.byte	0x26
 5895 0340 74       		.byte	0x74
 5896 0341 18       		.sleb128 24
 5897 0342 06       		.byte	0x6
 5898 0343 31       		.byte	0x31
 5899 0344 26       		.byte	0x26
 5900 0345 0A       		.byte	0xa
 5901 0346 00FA     		.2byte	0xfa00
 5902 0348 1C       		.byte	0x1c
 5903 0349 32       		.byte	0x32
 5904 034a 26       		.byte	0x26
 5905 034b 1E       		.byte	0x1e
 5906 034c 3B       		.byte	0x3b
 5907 034d 26       		.byte	0x26
 5908 034e 74       		.byte	0x74
 5909 034f 10       		.sleb128 16
 5910 0350 94       		.byte	0x94
 5911 0351 02       		.byte	0x2
 5912 0352 40       		.byte	0x40
 5913 0353 24       		.byte	0x24
 5914 0354 40       		.byte	0x40
 5915 0355 26       		.byte	0x26
 5916 0356 1E       		.byte	0x1e
 5917 0357 74       		.byte	0x74
 5918 0358 18       		.sleb128 24
 5919 0359 06       		.byte	0x6
 5920 035a 31       		.byte	0x31
 5921 035b 26       		.byte	0x26
 5922 035c 0A       		.byte	0xa
 5923 035d 00FA     		.2byte	0xfa00
 5924 035f 1C       		.byte	0x1c
 5925 0360 74       		.byte	0x74
 5926 0361 0E       		.sleb128 14
 5927 0362 94       		.byte	0x94
 5928 0363 02       		.byte	0x2
 5929 0364 40       		.byte	0x40
 5930 0365 24       		.byte	0x24
 5931 0366 40       		.byte	0x40
 5932 0367 26       		.byte	0x26
 5933 0368 1E       		.byte	0x1e
 5934 0369 31       		.byte	0x31
 5935 036a 24       		.byte	0x24
 5936 036b 22       		.byte	0x22
 5937 036c 32       		.byte	0x32
 5938 036d 26       		.byte	0x26
 5939 036e 74       		.byte	0x74
 5940 036f 0C       		.sleb128 12
 5941 0370 94       		.byte	0x94
 5942 0371 02       		.byte	0x2
 5943 0372 40       		.byte	0x40
 5944 0373 24       		.byte	0x24
 5945 0374 40       		.byte	0x40
 5946 0375 26       		.byte	0x26
 5947 0376 40       		.byte	0x40
 5948 0377 24       		.byte	0x24
 5949 0378 22       		.byte	0x22
ARM GAS  C:\Users\Svilen\AppData\Local\Temp\ccFr0ira.s 			page 134


 5950 0379 9F       		.byte	0x9f
 5951 037a 94000000 		.4byte	.LVL43
 5952 037e 9A000000 		.4byte	.LVL45
 5953 0382 0100     		.2byte	0x1
 5954 0384 52       		.byte	0x52
 5955 0385 9A000000 		.4byte	.LVL45
 5956 0389 A0000000 		.4byte	.LVL47
 5957 038d 1000     		.2byte	0x10
 5958 038f 70       		.byte	0x70
 5959 0390 00       		.sleb128 0
 5960 0391 32       		.byte	0x32
 5961 0392 25       		.byte	0x25
 5962 0393 74       		.byte	0x74
 5963 0394 14       		.sleb128 20
 5964 0395 94       		.byte	0x94
 5965 0396 02       		.byte	0x2
 5966 0397 40       		.byte	0x40
 5967 0398 24       		.byte	0x24
 5968 0399 40       		.byte	0x40
 5969 039a 26       		.byte	0x26
 5970 039b 1E       		.byte	0x1e
 5971 039c 3D       		.byte	0x3d
 5972 039d 26       		.byte	0x26
 5973 039e 9F       		.byte	0x9f
 5974 039f A2000000 		.4byte	.LVL48
 5975 03a3 A8000000 		.4byte	.LVL51
 5976 03a7 4500     		.2byte	0x45
 5977 03a9 74       		.byte	0x74
 5978 03aa 18       		.sleb128 24
 5979 03ab 06       		.byte	0x6
 5980 03ac 31       		.byte	0x31
 5981 03ad 26       		.byte	0x26
 5982 03ae 0A       		.byte	0xa
 5983 03af 00FA     		.2byte	0xfa00
 5984 03b1 1C       		.byte	0x1c
 5985 03b2 32       		.byte	0x32
 5986 03b3 26       		.byte	0x26
 5987 03b4 74       		.byte	0x74
 5988 03b5 18       		.sleb128 24
 5989 03b6 06       		.byte	0x6
 5990 03b7 31       		.byte	0x31
 5991 03b8 26       		.byte	0x26
 5992 03b9 0A       		.byte	0xa
 5993 03ba 00FA     		.2byte	0xfa00
 5994 03bc 1C       		.byte	0x1c
 5995 03bd 32       		.byte	0x32
 5996 03be 26       		.byte	0x26
 5997 03bf 1E       		.byte	0x1e
 5998 03c0 3B       		.byte	0x3b
 5999 03c1 26       		.byte	0x26
 6000 03c2 74       		.byte	0x74
 6001 03c3 10       		.sleb128 16
 6002 03c4 94       		.byte	0x94
 6003 03c5 02       		.byte	0x2
 6004 03c6 40       		.byte	0x40
 6005 03c7 24       		.byte	0x24
 6006 03c8 40       		.byte	0x40
ARM GAS  C:\Users\Svilen\AppData\Local\Temp\ccFr0ira.s 			page 135


 6007 03c9 26       		.byte	0x26
 6008 03ca 1E       		.byte	0x1e
 6009 03cb 74       		.byte	0x74
 6010 03cc 18       		.sleb128 24
 6011 03cd 06       		.byte	0x6
 6012 03ce 31       		.byte	0x31
 6013 03cf 26       		.byte	0x26
 6014 03d0 0A       		.byte	0xa
 6015 03d1 00FA     		.2byte	0xfa00
 6016 03d3 1C       		.byte	0x1c
 6017 03d4 74       		.byte	0x74
 6018 03d5 0E       		.sleb128 14
 6019 03d6 94       		.byte	0x94
 6020 03d7 02       		.byte	0x2
 6021 03d8 40       		.byte	0x40
 6022 03d9 24       		.byte	0x24
 6023 03da 40       		.byte	0x40
 6024 03db 26       		.byte	0x26
 6025 03dc 1E       		.byte	0x1e
 6026 03dd 31       		.byte	0x31
 6027 03de 24       		.byte	0x24
 6028 03df 22       		.byte	0x22
 6029 03e0 32       		.byte	0x32
 6030 03e1 26       		.byte	0x26
 6031 03e2 74       		.byte	0x74
 6032 03e3 0C       		.sleb128 12
 6033 03e4 94       		.byte	0x94
 6034 03e5 02       		.byte	0x2
 6035 03e6 40       		.byte	0x40
 6036 03e7 24       		.byte	0x24
 6037 03e8 40       		.byte	0x40
 6038 03e9 26       		.byte	0x26
 6039 03ea 40       		.byte	0x40
 6040 03eb 24       		.byte	0x24
 6041 03ec 22       		.byte	0x22
 6042 03ed 9F       		.byte	0x9f
 6043 03ee 00000000 		.4byte	0
 6044 03f2 00000000 		.4byte	0
 6045              	.LLST11:
 6046 03f6 02000000 		.4byte	.LVL21
 6047 03fa 60000000 		.4byte	.LVL35
 6048 03fe 0200     		.2byte	0x2
 6049 0400 30       		.byte	0x30
 6050 0401 9F       		.byte	0x9f
 6051 0402 60000000 		.4byte	.LVL35
 6052 0406 66000000 		.4byte	.LVL36
 6053 040a 0700     		.2byte	0x7
 6054 040c 70       		.byte	0x70
 6055 040d 8080C09A 		.sleb128 -1018167296
 6055      7C
 6056 0412 9F       		.byte	0x9f
 6057 0413 66000000 		.4byte	.LVL36
 6058 0417 6C000000 		.4byte	.LVL37
 6059 041b 0100     		.2byte	0x1
 6060 041d 50       		.byte	0x50
 6061 041e 6C000000 		.4byte	.LVL37
 6062 0422 6F000000 		.4byte	.LVL38-1
ARM GAS  C:\Users\Svilen\AppData\Local\Temp\ccFr0ira.s 			page 136


 6063 0426 1100     		.2byte	0x11
 6064 0428 F3       		.byte	0xf3
 6065 0429 01       		.uleb128 0x1
 6066 042a 50       		.byte	0x50
 6067 042b 1F       		.byte	0x1f
 6068 042c 75       		.byte	0x75
 6069 042d 00       		.sleb128 0
 6070 042e 1C       		.byte	0x1c
 6071 042f 72       		.byte	0x72
 6072 0430 00       		.sleb128 0
 6073 0431 1E       		.byte	0x1e
 6074 0432 0C       		.byte	0xc
 6075 0433 0000B03C 		.4byte	0x3cb00000
 6076 0437 1C       		.byte	0x1c
 6077 0438 9F       		.byte	0x9f
 6078 0439 6F000000 		.4byte	.LVL38-1
 6079 043d 70000000 		.4byte	.LVL38
 6080 0441 1200     		.2byte	0x12
 6081 0443 F3       		.byte	0xf3
 6082 0444 01       		.uleb128 0x1
 6083 0445 50       		.byte	0x50
 6084 0446 1F       		.byte	0x1f
 6085 0447 75       		.byte	0x75
 6086 0448 00       		.sleb128 0
 6087 0449 1C       		.byte	0x1c
 6088 044a 0A       		.byte	0xa
 6089 044b 350C     		.2byte	0xc35
 6090 044d 1E       		.byte	0x1e
 6091 044e 0C       		.byte	0xc
 6092 044f 0000B03C 		.4byte	0x3cb00000
 6093 0453 1C       		.byte	0x1c
 6094 0454 9F       		.byte	0x9f
 6095 0455 70000000 		.4byte	.LVL38
 6096 0459 79000000 		.4byte	.LVL40-1
 6097 045d 0100     		.2byte	0x1
 6098 045f 50       		.byte	0x50
 6099 0460 79000000 		.4byte	.LVL40-1
 6100 0464 7C000000 		.4byte	.LVL41
 6101 0468 1200     		.2byte	0x12
 6102 046a F3       		.byte	0xf3
 6103 046b 01       		.uleb128 0x1
 6104 046c 50       		.byte	0x50
 6105 046d 1F       		.byte	0x1f
 6106 046e 75       		.byte	0x75
 6107 046f 00       		.sleb128 0
 6108 0470 1C       		.byte	0x1c
 6109 0471 0A       		.byte	0xa
 6110 0472 350C     		.2byte	0xc35
 6111 0474 1E       		.byte	0x1e
 6112 0475 0C       		.byte	0xc
 6113 0476 0000B03C 		.4byte	0x3cb00000
 6114 047a 1C       		.byte	0x1c
 6115 047b 9F       		.byte	0x9f
 6116 047c 7C000000 		.4byte	.LVL41
 6117 0480 9E000000 		.4byte	.LVL46
 6118 0484 0100     		.2byte	0x1
 6119 0486 50       		.byte	0x50
ARM GAS  C:\Users\Svilen\AppData\Local\Temp\ccFr0ira.s 			page 137


 6120 0487 9E000000 		.4byte	.LVL46
 6121 048b A0000000 		.4byte	.LVL47
 6122 048f 0600     		.2byte	0x6
 6123 0491 73       		.byte	0x73
 6124 0492 00       		.sleb128 0
 6125 0493 70       		.byte	0x70
 6126 0494 00       		.sleb128 0
 6127 0495 22       		.byte	0x22
 6128 0496 9F       		.byte	0x9f
 6129 0497 A0000000 		.4byte	.LVL47
 6130 049b A4000000 		.4byte	.LVL49
 6131 049f 0100     		.2byte	0x1
 6132 04a1 50       		.byte	0x50
 6133 04a2 A4000000 		.4byte	.LVL49
 6134 04a6 A6000000 		.4byte	.LVL50
 6135 04aa 1100     		.2byte	0x11
 6136 04ac F3       		.byte	0xf3
 6137 04ad 01       		.uleb128 0x1
 6138 04ae 50       		.byte	0x50
 6139 04af 1F       		.byte	0x1f
 6140 04b0 75       		.byte	0x75
 6141 04b1 00       		.sleb128 0
 6142 04b2 1C       		.byte	0x1c
 6143 04b3 72       		.byte	0x72
 6144 04b4 00       		.sleb128 0
 6145 04b5 1E       		.byte	0x1e
 6146 04b6 0C       		.byte	0xc
 6147 04b7 0000B03C 		.4byte	0x3cb00000
 6148 04bb 1C       		.byte	0x1c
 6149 04bc 9F       		.byte	0x9f
 6150 04bd A6000000 		.4byte	.LVL50
 6151 04c1 A8000000 		.4byte	.LVL51
 6152 04c5 0100     		.2byte	0x1
 6153 04c7 50       		.byte	0x50
 6154 04c8 00000000 		.4byte	0
 6155 04cc 00000000 		.4byte	0
 6156              	.LLST12:
 6157 04d0 00000000 		.4byte	.LVL52
 6158 04d4 24000000 		.4byte	.LVL54
 6159 04d8 0100     		.2byte	0x1
 6160 04da 50       		.byte	0x50
 6161 04db 24000000 		.4byte	.LVL54
 6162 04df 5C000000 		.4byte	.LVL57
 6163 04e3 0100     		.2byte	0x1
 6164 04e5 55       		.byte	0x55
 6165 04e6 5C000000 		.4byte	.LVL57
 6166 04ea 5E000000 		.4byte	.LVL58
 6167 04ee 0100     		.2byte	0x1
 6168 04f0 50       		.byte	0x50
 6169 04f1 5E000000 		.4byte	.LVL58
 6170 04f5 68000000 		.4byte	.LFE5
 6171 04f9 0400     		.2byte	0x4
 6172 04fb F3       		.byte	0xf3
 6173 04fc 01       		.uleb128 0x1
 6174 04fd 50       		.byte	0x50
 6175 04fe 9F       		.byte	0x9f
 6176 04ff 00000000 		.4byte	0
ARM GAS  C:\Users\Svilen\AppData\Local\Temp\ccFr0ira.s 			page 138


 6177 0503 00000000 		.4byte	0
 6178              	.LLST13:
 6179 0507 00000000 		.4byte	.LVL52
 6180 050b 26000000 		.4byte	.LVL55
 6181 050f 0100     		.2byte	0x1
 6182 0511 51       		.byte	0x51
 6183 0512 26000000 		.4byte	.LVL55
 6184 0516 5C000000 		.4byte	.LVL57
 6185 051a 0100     		.2byte	0x1
 6186 051c 54       		.byte	0x54
 6187 051d 5C000000 		.4byte	.LVL57
 6188 0521 5E000000 		.4byte	.LVL58
 6189 0525 0100     		.2byte	0x1
 6190 0527 51       		.byte	0x51
 6191 0528 5E000000 		.4byte	.LVL58
 6192 052c 68000000 		.4byte	.LFE5
 6193 0530 0400     		.2byte	0x4
 6194 0532 F3       		.byte	0xf3
 6195 0533 01       		.uleb128 0x1
 6196 0534 51       		.byte	0x51
 6197 0535 9F       		.byte	0x9f
 6198 0536 00000000 		.4byte	0
 6199 053a 00000000 		.4byte	0
 6200              	.LLST14:
 6201 053e 04000000 		.4byte	.LVL53
 6202 0542 2A000000 		.4byte	.LVL56
 6203 0546 0300     		.2byte	0x3
 6204 0548 09       		.byte	0x9
 6205 0549 FF       		.byte	0xff
 6206 054a 9F       		.byte	0x9f
 6207 054b 2A000000 		.4byte	.LVL56
 6208 054f 5C000000 		.4byte	.LVL57
 6209 0553 0100     		.2byte	0x1
 6210 0555 50       		.byte	0x50
 6211 0556 5C000000 		.4byte	.LVL57
 6212 055a 5E000000 		.4byte	.LVL58
 6213 055e 0300     		.2byte	0x3
 6214 0560 09       		.byte	0x9
 6215 0561 FF       		.byte	0xff
 6216 0562 9F       		.byte	0x9f
 6217 0563 5E000000 		.4byte	.LVL58
 6218 0567 68000000 		.4byte	.LFE5
 6219 056b 0100     		.2byte	0x1
 6220 056d 50       		.byte	0x50
 6221 056e 00000000 		.4byte	0
 6222 0572 00000000 		.4byte	0
 6223              	.LLST15:
 6224 0576 00000000 		.4byte	.LVL59
 6225 057a 18000000 		.4byte	.LVL61
 6226 057e 0100     		.2byte	0x1
 6227 0580 50       		.byte	0x50
 6228 0581 18000000 		.4byte	.LVL61
 6229 0585 32000000 		.4byte	.LVL68
 6230 0589 0100     		.2byte	0x1
 6231 058b 55       		.byte	0x55
 6232 058c 32000000 		.4byte	.LVL68
 6233 0590 34000000 		.4byte	.LVL69
ARM GAS  C:\Users\Svilen\AppData\Local\Temp\ccFr0ira.s 			page 139


 6234 0594 0100     		.2byte	0x1
 6235 0596 50       		.byte	0x50
 6236 0597 34000000 		.4byte	.LVL69
 6237 059b 40000000 		.4byte	.LFE6
 6238 059f 0400     		.2byte	0x4
 6239 05a1 F3       		.byte	0xf3
 6240 05a2 01       		.uleb128 0x1
 6241 05a3 50       		.byte	0x50
 6242 05a4 9F       		.byte	0x9f
 6243 05a5 00000000 		.4byte	0
 6244 05a9 00000000 		.4byte	0
 6245              	.LLST16:
 6246 05ad 00000000 		.4byte	.LVL59
 6247 05b1 1A000000 		.4byte	.LVL62
 6248 05b5 0100     		.2byte	0x1
 6249 05b7 51       		.byte	0x51
 6250 05b8 1A000000 		.4byte	.LVL62
 6251 05bc 32000000 		.4byte	.LVL68
 6252 05c0 0100     		.2byte	0x1
 6253 05c2 56       		.byte	0x56
 6254 05c3 32000000 		.4byte	.LVL68
 6255 05c7 34000000 		.4byte	.LVL69
 6256 05cb 0100     		.2byte	0x1
 6257 05cd 51       		.byte	0x51
 6258 05ce 34000000 		.4byte	.LVL69
 6259 05d2 40000000 		.4byte	.LFE6
 6260 05d6 0400     		.2byte	0x4
 6261 05d8 F3       		.byte	0xf3
 6262 05d9 01       		.uleb128 0x1
 6263 05da 51       		.byte	0x51
 6264 05db 9F       		.byte	0x9f
 6265 05dc 00000000 		.4byte	0
 6266 05e0 00000000 		.4byte	0
 6267              	.LLST17:
 6268 05e4 04000000 		.4byte	.LVL60
 6269 05e8 20000000 		.4byte	.LVL64
 6270 05ec 0300     		.2byte	0x3
 6271 05ee 09       		.byte	0x9
 6272 05ef FF       		.byte	0xff
 6273 05f0 9F       		.byte	0x9f
 6274 05f1 20000000 		.4byte	.LVL64
 6275 05f5 22000000 		.4byte	.LVL65
 6276 05f9 0100     		.2byte	0x1
 6277 05fb 50       		.byte	0x50
 6278 05fc 22000000 		.4byte	.LVL65
 6279 0600 32000000 		.4byte	.LVL68
 6280 0604 0100     		.2byte	0x1
 6281 0606 54       		.byte	0x54
 6282 0607 32000000 		.4byte	.LVL68
 6283 060b 34000000 		.4byte	.LVL69
 6284 060f 0300     		.2byte	0x3
 6285 0611 09       		.byte	0x9
 6286 0612 FF       		.byte	0xff
 6287 0613 9F       		.byte	0x9f
 6288 0614 34000000 		.4byte	.LVL69
 6289 0618 38000000 		.4byte	.LVL70
 6290 061c 0100     		.2byte	0x1
ARM GAS  C:\Users\Svilen\AppData\Local\Temp\ccFr0ira.s 			page 140


 6291 061e 54       		.byte	0x54
 6292 061f 38000000 		.4byte	.LVL70
 6293 0623 40000000 		.4byte	.LFE6
 6294 0627 0100     		.2byte	0x1
 6295 0629 50       		.byte	0x50
 6296 062a 00000000 		.4byte	0
 6297 062e 00000000 		.4byte	0
 6298              	.LLST18:
 6299 0632 04000000 		.4byte	.LVL71
 6300 0636 26000000 		.4byte	.LVL72
 6301 063a 0300     		.2byte	0x3
 6302 063c 09       		.byte	0x9
 6303 063d FF       		.byte	0xff
 6304 063e 9F       		.byte	0x9f
 6305 063f 26000000 		.4byte	.LVL72
 6306 0643 E8000000 		.4byte	.LVL73
 6307 0647 0100     		.2byte	0x1
 6308 0649 50       		.byte	0x50
 6309 064a E8000000 		.4byte	.LVL73
 6310 064e EA000000 		.4byte	.LVL74
 6311 0652 0300     		.2byte	0x3
 6312 0654 09       		.byte	0x9
 6313 0655 FF       		.byte	0xff
 6314 0656 9F       		.byte	0x9f
 6315 0657 EA000000 		.4byte	.LVL74
 6316 065b F4000000 		.4byte	.LFE7
 6317 065f 0100     		.2byte	0x1
 6318 0661 50       		.byte	0x50
 6319 0662 00000000 		.4byte	0
 6320 0666 00000000 		.4byte	0
 6321              	.LLST19:
 6322 066a 00000000 		.4byte	.LVL75
 6323 066e 12000000 		.4byte	.LVL78
 6324 0672 0100     		.2byte	0x1
 6325 0674 50       		.byte	0x50
 6326 0675 12000000 		.4byte	.LVL78
 6327 0679 6C000000 		.4byte	.LFE0
 6328 067d 0400     		.2byte	0x4
 6329 067f F3       		.byte	0xf3
 6330 0680 01       		.uleb128 0x1
 6331 0681 50       		.byte	0x50
 6332 0682 9F       		.byte	0x9f
 6333 0683 00000000 		.4byte	0
 6334 0687 00000000 		.4byte	0
 6335              	.LLST20:
 6336 068b 04000000 		.4byte	.LVL76
 6337 068f 12000000 		.4byte	.LVL78
 6338 0693 0300     		.2byte	0x3
 6339 0695 09       		.byte	0x9
 6340 0696 FF       		.byte	0xff
 6341 0697 9F       		.byte	0x9f
 6342 0698 56000000 		.4byte	.LVL85
 6343 069c 60000000 		.4byte	.LVL87
 6344 06a0 0100     		.2byte	0x1
 6345 06a2 54       		.byte	0x54
 6346 06a3 62000000 		.4byte	.LVL88
 6347 06a7 66000000 		.4byte	.LVL89
ARM GAS  C:\Users\Svilen\AppData\Local\Temp\ccFr0ira.s 			page 141


 6348 06ab 0100     		.2byte	0x1
 6349 06ad 54       		.byte	0x54
 6350 06ae 66000000 		.4byte	.LVL89
 6351 06b2 6C000000 		.4byte	.LFE0
 6352 06b6 0100     		.2byte	0x1
 6353 06b8 50       		.byte	0x50
 6354 06b9 00000000 		.4byte	0
 6355 06bd 00000000 		.4byte	0
 6356              	.LLST21:
 6357 06c1 0A000000 		.4byte	.LVL77
 6358 06c5 12000000 		.4byte	.LVL78
 6359 06c9 0200     		.2byte	0x2
 6360 06cb 35       		.byte	0x35
 6361 06cc 9F       		.byte	0x9f
 6362 06cd 12000000 		.4byte	.LVL78
 6363 06d1 30000000 		.4byte	.LVL80
 6364 06d5 0100     		.2byte	0x1
 6365 06d7 54       		.byte	0x54
 6366 06d8 32000000 		.4byte	.LVL81
 6367 06dc 52000000 		.4byte	.LVL83
 6368 06e0 0100     		.2byte	0x1
 6369 06e2 54       		.byte	0x54
 6370 06e3 54000000 		.4byte	.LVL84
 6371 06e7 56000000 		.4byte	.LVL85
 6372 06eb 0100     		.2byte	0x1
 6373 06ed 54       		.byte	0x54
 6374 06ee 00000000 		.4byte	0
 6375 06f2 00000000 		.4byte	0
 6376              	.LLST22:
 6377 06f6 00000000 		.4byte	.LVL90
 6378 06fa 18000000 		.4byte	.LVL92
 6379 06fe 0100     		.2byte	0x1
 6380 0700 50       		.byte	0x50
 6381 0701 18000000 		.4byte	.LVL92
 6382 0705 32000000 		.4byte	.LVL94
 6383 0709 0100     		.2byte	0x1
 6384 070b 55       		.byte	0x55
 6385 070c 32000000 		.4byte	.LVL94
 6386 0710 34000000 		.4byte	.LVL95
 6387 0714 0100     		.2byte	0x1
 6388 0716 50       		.byte	0x50
 6389 0717 34000000 		.4byte	.LVL95
 6390 071b 40000000 		.4byte	.LFE8
 6391 071f 0400     		.2byte	0x4
 6392 0721 F3       		.byte	0xf3
 6393 0722 01       		.uleb128 0x1
 6394 0723 50       		.byte	0x50
 6395 0724 9F       		.byte	0x9f
 6396 0725 00000000 		.4byte	0
 6397 0729 00000000 		.4byte	0
 6398              	.LLST23:
 6399 072d 04000000 		.4byte	.LVL91
 6400 0731 24000000 		.4byte	.LVL93
 6401 0735 0300     		.2byte	0x3
 6402 0737 09       		.byte	0x9
 6403 0738 FF       		.byte	0xff
 6404 0739 9F       		.byte	0x9f
ARM GAS  C:\Users\Svilen\AppData\Local\Temp\ccFr0ira.s 			page 142


 6405 073a 24000000 		.4byte	.LVL93
 6406 073e 32000000 		.4byte	.LVL94
 6407 0742 0100     		.2byte	0x1
 6408 0744 50       		.byte	0x50
 6409 0745 32000000 		.4byte	.LVL94
 6410 0749 34000000 		.4byte	.LVL95
 6411 074d 0300     		.2byte	0x3
 6412 074f 09       		.byte	0x9
 6413 0750 FF       		.byte	0xff
 6414 0751 9F       		.byte	0x9f
 6415 0752 34000000 		.4byte	.LVL95
 6416 0756 40000000 		.4byte	.LFE8
 6417 075a 0100     		.2byte	0x1
 6418 075c 50       		.byte	0x50
 6419 075d 00000000 		.4byte	0
 6420 0761 00000000 		.4byte	0
 6421              	.LLST24:
 6422 0765 00000000 		.4byte	.LVL96
 6423 0769 18000000 		.4byte	.LVL98
 6424 076d 0100     		.2byte	0x1
 6425 076f 50       		.byte	0x50
 6426 0770 18000000 		.4byte	.LVL98
 6427 0774 4E000000 		.4byte	.LVL103
 6428 0778 0400     		.2byte	0x4
 6429 077a F3       		.byte	0xf3
 6430 077b 01       		.uleb128 0x1
 6431 077c 50       		.byte	0x50
 6432 077d 9F       		.byte	0x9f
 6433 077e 4E000000 		.4byte	.LVL103
 6434 0782 50000000 		.4byte	.LVL104
 6435 0786 0100     		.2byte	0x1
 6436 0788 50       		.byte	0x50
 6437 0789 50000000 		.4byte	.LVL104
 6438 078d 5C000000 		.4byte	.LFE9
 6439 0791 0400     		.2byte	0x4
 6440 0793 F3       		.byte	0xf3
 6441 0794 01       		.uleb128 0x1
 6442 0795 50       		.byte	0x50
 6443 0796 9F       		.byte	0x9f
 6444 0797 00000000 		.4byte	0
 6445 079b 00000000 		.4byte	0
 6446              	.LLST25:
 6447 079f 06000000 		.4byte	.LVL97
 6448 07a3 24000000 		.4byte	.LVL100
 6449 07a7 0300     		.2byte	0x3
 6450 07a9 09       		.byte	0x9
 6451 07aa FF       		.byte	0xff
 6452 07ab 9F       		.byte	0x9f
 6453 07ac 24000000 		.4byte	.LVL100
 6454 07b0 48000000 		.4byte	.LVL102
 6455 07b4 0100     		.2byte	0x1
 6456 07b6 54       		.byte	0x54
 6457 07b7 48000000 		.4byte	.LVL102
 6458 07bb 4E000000 		.4byte	.LVL103
 6459 07bf 0100     		.2byte	0x1
 6460 07c1 50       		.byte	0x50
 6461 07c2 4E000000 		.4byte	.LVL103
ARM GAS  C:\Users\Svilen\AppData\Local\Temp\ccFr0ira.s 			page 143


 6462 07c6 50000000 		.4byte	.LVL104
 6463 07ca 0300     		.2byte	0x3
 6464 07cc 09       		.byte	0x9
 6465 07cd FF       		.byte	0xff
 6466 07ce 9F       		.byte	0x9f
 6467 07cf 50000000 		.4byte	.LVL104
 6468 07d3 5C000000 		.4byte	.LFE9
 6469 07d7 0100     		.2byte	0x1
 6470 07d9 50       		.byte	0x50
 6471 07da 00000000 		.4byte	0
 6472 07de 00000000 		.4byte	0
 6473              	.LLST26:
 6474 07e2 00000000 		.4byte	.LVL105
 6475 07e6 18000000 		.4byte	.LVL107
 6476 07ea 0100     		.2byte	0x1
 6477 07ec 50       		.byte	0x50
 6478 07ed 18000000 		.4byte	.LVL107
 6479 07f1 34000000 		.4byte	.LVL109
 6480 07f5 0100     		.2byte	0x1
 6481 07f7 55       		.byte	0x55
 6482 07f8 34000000 		.4byte	.LVL109
 6483 07fc 36000000 		.4byte	.LVL110
 6484 0800 0100     		.2byte	0x1
 6485 0802 50       		.byte	0x50
 6486 0803 36000000 		.4byte	.LVL110
 6487 0807 40000000 		.4byte	.LFE10
 6488 080b 0400     		.2byte	0x4
 6489 080d F3       		.byte	0xf3
 6490 080e 01       		.uleb128 0x1
 6491 080f 50       		.byte	0x50
 6492 0810 9F       		.byte	0x9f
 6493 0811 00000000 		.4byte	0
 6494 0815 00000000 		.4byte	0
 6495              	.LLST27:
 6496 0819 04000000 		.4byte	.LVL106
 6497 081d 24000000 		.4byte	.LVL108
 6498 0821 0300     		.2byte	0x3
 6499 0823 09       		.byte	0x9
 6500 0824 FF       		.byte	0xff
 6501 0825 9F       		.byte	0x9f
 6502 0826 24000000 		.4byte	.LVL108
 6503 082a 34000000 		.4byte	.LVL109
 6504 082e 0100     		.2byte	0x1
 6505 0830 50       		.byte	0x50
 6506 0831 34000000 		.4byte	.LVL109
 6507 0835 36000000 		.4byte	.LVL110
 6508 0839 0300     		.2byte	0x3
 6509 083b 09       		.byte	0x9
 6510 083c FF       		.byte	0xff
 6511 083d 9F       		.byte	0x9f
 6512 083e 36000000 		.4byte	.LVL110
 6513 0842 40000000 		.4byte	.LFE10
 6514 0846 0100     		.2byte	0x1
 6515 0848 50       		.byte	0x50
 6516 0849 00000000 		.4byte	0
 6517 084d 00000000 		.4byte	0
 6518              	.LLST28:
ARM GAS  C:\Users\Svilen\AppData\Local\Temp\ccFr0ira.s 			page 144


 6519 0851 00000000 		.4byte	.LVL111
 6520 0855 18000000 		.4byte	.LVL113
 6521 0859 0100     		.2byte	0x1
 6522 085b 50       		.byte	0x50
 6523 085c 18000000 		.4byte	.LVL113
 6524 0860 54000000 		.4byte	.LVL118
 6525 0864 0400     		.2byte	0x4
 6526 0866 F3       		.byte	0xf3
 6527 0867 01       		.uleb128 0x1
 6528 0868 50       		.byte	0x50
 6529 0869 9F       		.byte	0x9f
 6530 086a 54000000 		.4byte	.LVL118
 6531 086e 56000000 		.4byte	.LVL119
 6532 0872 0100     		.2byte	0x1
 6533 0874 50       		.byte	0x50
 6534 0875 56000000 		.4byte	.LVL119
 6535 0879 60000000 		.4byte	.LFE11
 6536 087d 0400     		.2byte	0x4
 6537 087f F3       		.byte	0xf3
 6538 0880 01       		.uleb128 0x1
 6539 0881 50       		.byte	0x50
 6540 0882 9F       		.byte	0x9f
 6541 0883 00000000 		.4byte	0
 6542 0887 00000000 		.4byte	0
 6543              	.LLST29:
 6544 088b 06000000 		.4byte	.LVL112
 6545 088f 24000000 		.4byte	.LVL115
 6546 0893 0300     		.2byte	0x3
 6547 0895 09       		.byte	0x9
 6548 0896 FF       		.byte	0xff
 6549 0897 9F       		.byte	0x9f
 6550 0898 24000000 		.4byte	.LVL115
 6551 089c 4E000000 		.4byte	.LVL117
 6552 08a0 0100     		.2byte	0x1
 6553 08a2 54       		.byte	0x54
 6554 08a3 4E000000 		.4byte	.LVL117
 6555 08a7 54000000 		.4byte	.LVL118
 6556 08ab 0100     		.2byte	0x1
 6557 08ad 50       		.byte	0x50
 6558 08ae 54000000 		.4byte	.LVL118
 6559 08b2 56000000 		.4byte	.LVL119
 6560 08b6 0300     		.2byte	0x3
 6561 08b8 09       		.byte	0x9
 6562 08b9 FF       		.byte	0xff
 6563 08ba 9F       		.byte	0x9f
 6564 08bb 56000000 		.4byte	.LVL119
 6565 08bf 60000000 		.4byte	.LFE11
 6566 08c3 0100     		.2byte	0x1
 6567 08c5 50       		.byte	0x50
 6568 08c6 00000000 		.4byte	0
 6569 08ca 00000000 		.4byte	0
 6570              	.LLST30:
 6571 08ce 00000000 		.4byte	.LVL120
 6572 08d2 18000000 		.4byte	.LVL122
 6573 08d6 0100     		.2byte	0x1
 6574 08d8 50       		.byte	0x50
 6575 08d9 18000000 		.4byte	.LVL122
ARM GAS  C:\Users\Svilen\AppData\Local\Temp\ccFr0ira.s 			page 145


 6576 08dd 2E000000 		.4byte	.LVL124
 6577 08e1 0100     		.2byte	0x1
 6578 08e3 55       		.byte	0x55
 6579 08e4 2E000000 		.4byte	.LVL124
 6580 08e8 30000000 		.4byte	.LVL125
 6581 08ec 0100     		.2byte	0x1
 6582 08ee 50       		.byte	0x50
 6583 08ef 30000000 		.4byte	.LVL125
 6584 08f3 3C000000 		.4byte	.LFE12
 6585 08f7 0400     		.2byte	0x4
 6586 08f9 F3       		.byte	0xf3
 6587 08fa 01       		.uleb128 0x1
 6588 08fb 50       		.byte	0x50
 6589 08fc 9F       		.byte	0x9f
 6590 08fd 00000000 		.4byte	0
 6591 0901 00000000 		.4byte	0
 6592              	.LLST31:
 6593 0905 04000000 		.4byte	.LVL121
 6594 0909 24000000 		.4byte	.LVL123
 6595 090d 0300     		.2byte	0x3
 6596 090f 09       		.byte	0x9
 6597 0910 FF       		.byte	0xff
 6598 0911 9F       		.byte	0x9f
 6599 0912 24000000 		.4byte	.LVL123
 6600 0916 2E000000 		.4byte	.LVL124
 6601 091a 0100     		.2byte	0x1
 6602 091c 50       		.byte	0x50
 6603 091d 2E000000 		.4byte	.LVL124
 6604 0921 30000000 		.4byte	.LVL125
 6605 0925 0300     		.2byte	0x3
 6606 0927 09       		.byte	0x9
 6607 0928 FF       		.byte	0xff
 6608 0929 9F       		.byte	0x9f
 6609 092a 30000000 		.4byte	.LVL125
 6610 092e 3C000000 		.4byte	.LFE12
 6611 0932 0100     		.2byte	0x1
 6612 0934 50       		.byte	0x50
 6613 0935 00000000 		.4byte	0
 6614 0939 00000000 		.4byte	0
 6615              	.LLST32:
 6616 093d 00000000 		.4byte	.LVL126
 6617 0941 26000000 		.4byte	.LVL128
 6618 0945 0100     		.2byte	0x1
 6619 0947 50       		.byte	0x50
 6620 0948 26000000 		.4byte	.LVL128
 6621 094c 34000000 		.4byte	.LVL130
 6622 0950 0400     		.2byte	0x4
 6623 0952 F3       		.byte	0xf3
 6624 0953 01       		.uleb128 0x1
 6625 0954 50       		.byte	0x50
 6626 0955 9F       		.byte	0x9f
 6627 0956 34000000 		.4byte	.LVL130
 6628 095a 36000000 		.4byte	.LVL131
 6629 095e 0100     		.2byte	0x1
 6630 0960 50       		.byte	0x50
 6631 0961 36000000 		.4byte	.LVL131
 6632 0965 38000000 		.4byte	.LVL132
ARM GAS  C:\Users\Svilen\AppData\Local\Temp\ccFr0ira.s 			page 146


 6633 0969 0400     		.2byte	0x4
 6634 096b F3       		.byte	0xf3
 6635 096c 01       		.uleb128 0x1
 6636 096d 50       		.byte	0x50
 6637 096e 9F       		.byte	0x9f
 6638 096f 38000000 		.4byte	.LVL132
 6639 0973 3A000000 		.4byte	.LVL133
 6640 0977 0100     		.2byte	0x1
 6641 0979 50       		.byte	0x50
 6642 097a 3A000000 		.4byte	.LVL133
 6643 097e 44000000 		.4byte	.LFE13
 6644 0982 0400     		.2byte	0x4
 6645 0984 F3       		.byte	0xf3
 6646 0985 01       		.uleb128 0x1
 6647 0986 50       		.byte	0x50
 6648 0987 9F       		.byte	0x9f
 6649 0988 00000000 		.4byte	0
 6650 098c 00000000 		.4byte	0
 6651              	.LLST33:
 6652 0990 04000000 		.4byte	.LVL127
 6653 0994 32000000 		.4byte	.LVL129
 6654 0998 0300     		.2byte	0x3
 6655 099a 09       		.byte	0x9
 6656 099b FF       		.byte	0xff
 6657 099c 9F       		.byte	0x9f
 6658 099d 32000000 		.4byte	.LVL129
 6659 09a1 34000000 		.4byte	.LVL130
 6660 09a5 0100     		.2byte	0x1
 6661 09a7 50       		.byte	0x50
 6662 09a8 34000000 		.4byte	.LVL130
 6663 09ac 3A000000 		.4byte	.LVL133
 6664 09b0 0300     		.2byte	0x3
 6665 09b2 09       		.byte	0x9
 6666 09b3 FF       		.byte	0xff
 6667 09b4 9F       		.byte	0x9f
 6668 09b5 3A000000 		.4byte	.LVL133
 6669 09b9 44000000 		.4byte	.LFE13
 6670 09bd 0100     		.2byte	0x1
 6671 09bf 50       		.byte	0x50
 6672 09c0 00000000 		.4byte	0
 6673 09c4 00000000 		.4byte	0
 6674              	.LLST34:
 6675 09c8 04000000 		.4byte	.LVL134
 6676 09cc 20000000 		.4byte	.LVL135
 6677 09d0 0300     		.2byte	0x3
 6678 09d2 09       		.byte	0x9
 6679 09d3 FF       		.byte	0xff
 6680 09d4 9F       		.byte	0x9f
 6681 09d5 20000000 		.4byte	.LVL135
 6682 09d9 22000000 		.4byte	.LVL136
 6683 09dd 0100     		.2byte	0x1
 6684 09df 50       		.byte	0x50
 6685 09e0 22000000 		.4byte	.LVL136
 6686 09e4 24000000 		.4byte	.LVL137
 6687 09e8 0300     		.2byte	0x3
 6688 09ea 09       		.byte	0x9
 6689 09eb FF       		.byte	0xff
ARM GAS  C:\Users\Svilen\AppData\Local\Temp\ccFr0ira.s 			page 147


 6690 09ec 9F       		.byte	0x9f
 6691 09ed 24000000 		.4byte	.LVL137
 6692 09f1 30000000 		.4byte	.LFE14
 6693 09f5 0100     		.2byte	0x1
 6694 09f7 50       		.byte	0x50
 6695 09f8 00000000 		.4byte	0
 6696 09fc 00000000 		.4byte	0
 6697              	.LLST35:
 6698 0a00 00000000 		.4byte	.LVL138
 6699 0a04 18000000 		.4byte	.LVL140
 6700 0a08 0100     		.2byte	0x1
 6701 0a0a 50       		.byte	0x50
 6702 0a0b 18000000 		.4byte	.LVL140
 6703 0a0f 2E000000 		.4byte	.LVL142
 6704 0a13 0100     		.2byte	0x1
 6705 0a15 55       		.byte	0x55
 6706 0a16 2E000000 		.4byte	.LVL142
 6707 0a1a 30000000 		.4byte	.LVL143
 6708 0a1e 0100     		.2byte	0x1
 6709 0a20 50       		.byte	0x50
 6710 0a21 30000000 		.4byte	.LVL143
 6711 0a25 3C000000 		.4byte	.LFE15
 6712 0a29 0400     		.2byte	0x4
 6713 0a2b F3       		.byte	0xf3
 6714 0a2c 01       		.uleb128 0x1
 6715 0a2d 50       		.byte	0x50
 6716 0a2e 9F       		.byte	0x9f
 6717 0a2f 00000000 		.4byte	0
 6718 0a33 00000000 		.4byte	0
 6719              	.LLST36:
 6720 0a37 04000000 		.4byte	.LVL139
 6721 0a3b 24000000 		.4byte	.LVL141
 6722 0a3f 0300     		.2byte	0x3
 6723 0a41 09       		.byte	0x9
 6724 0a42 FF       		.byte	0xff
 6725 0a43 9F       		.byte	0x9f
 6726 0a44 24000000 		.4byte	.LVL141
 6727 0a48 2E000000 		.4byte	.LVL142
 6728 0a4c 0100     		.2byte	0x1
 6729 0a4e 50       		.byte	0x50
 6730 0a4f 2E000000 		.4byte	.LVL142
 6731 0a53 30000000 		.4byte	.LVL143
 6732 0a57 0300     		.2byte	0x3
 6733 0a59 09       		.byte	0x9
 6734 0a5a FF       		.byte	0xff
 6735 0a5b 9F       		.byte	0x9f
 6736 0a5c 30000000 		.4byte	.LVL143
 6737 0a60 3C000000 		.4byte	.LFE15
 6738 0a64 0100     		.2byte	0x1
 6739 0a66 50       		.byte	0x50
 6740 0a67 00000000 		.4byte	0
 6741 0a6b 00000000 		.4byte	0
 6742              	.LLST37:
 6743 0a6f 00000000 		.4byte	.LVL144
 6744 0a73 18000000 		.4byte	.LVL146
 6745 0a77 0100     		.2byte	0x1
 6746 0a79 50       		.byte	0x50
ARM GAS  C:\Users\Svilen\AppData\Local\Temp\ccFr0ira.s 			page 148


 6747 0a7a 18000000 		.4byte	.LVL146
 6748 0a7e 50000000 		.4byte	.LVL152
 6749 0a82 0400     		.2byte	0x4
 6750 0a84 F3       		.byte	0xf3
 6751 0a85 01       		.uleb128 0x1
 6752 0a86 50       		.byte	0x50
 6753 0a87 9F       		.byte	0x9f
 6754 0a88 50000000 		.4byte	.LVL152
 6755 0a8c 52000000 		.4byte	.LVL153
 6756 0a90 0100     		.2byte	0x1
 6757 0a92 50       		.byte	0x50
 6758 0a93 52000000 		.4byte	.LVL153
 6759 0a97 5C000000 		.4byte	.LFE16
 6760 0a9b 0400     		.2byte	0x4
 6761 0a9d F3       		.byte	0xf3
 6762 0a9e 01       		.uleb128 0x1
 6763 0a9f 50       		.byte	0x50
 6764 0aa0 9F       		.byte	0x9f
 6765 0aa1 00000000 		.4byte	0
 6766 0aa5 00000000 		.4byte	0
 6767              	.LLST38:
 6768 0aa9 04000000 		.4byte	.LVL145
 6769 0aad 26000000 		.4byte	.LVL148
 6770 0ab1 0300     		.2byte	0x3
 6771 0ab3 09       		.byte	0x9
 6772 0ab4 FF       		.byte	0xff
 6773 0ab5 9F       		.byte	0x9f
 6774 0ab6 26000000 		.4byte	.LVL148
 6775 0aba 2E000000 		.4byte	.LVL149
 6776 0abe 0100     		.2byte	0x1
 6777 0ac0 50       		.byte	0x50
 6778 0ac1 4E000000 		.4byte	.LVL151
 6779 0ac5 50000000 		.4byte	.LVL152
 6780 0ac9 0100     		.2byte	0x1
 6781 0acb 53       		.byte	0x53
 6782 0acc 50000000 		.4byte	.LVL152
 6783 0ad0 52000000 		.4byte	.LVL153
 6784 0ad4 0300     		.2byte	0x3
 6785 0ad6 09       		.byte	0x9
 6786 0ad7 FF       		.byte	0xff
 6787 0ad8 9F       		.byte	0x9f
 6788 0ad9 52000000 		.4byte	.LVL153
 6789 0add 5C000000 		.4byte	.LFE16
 6790 0ae1 0100     		.2byte	0x1
 6791 0ae3 53       		.byte	0x53
 6792 0ae4 00000000 		.4byte	0
 6793 0ae8 00000000 		.4byte	0
 6794              	.LLST39:
 6795 0aec 00000000 		.4byte	.LVL154
 6796 0af0 18000000 		.4byte	.LVL156
 6797 0af4 0100     		.2byte	0x1
 6798 0af6 50       		.byte	0x50
 6799 0af7 18000000 		.4byte	.LVL156
 6800 0afb 2E000000 		.4byte	.LVL158
 6801 0aff 0100     		.2byte	0x1
 6802 0b01 55       		.byte	0x55
 6803 0b02 2E000000 		.4byte	.LVL158
ARM GAS  C:\Users\Svilen\AppData\Local\Temp\ccFr0ira.s 			page 149


 6804 0b06 30000000 		.4byte	.LVL159
 6805 0b0a 0100     		.2byte	0x1
 6806 0b0c 50       		.byte	0x50
 6807 0b0d 30000000 		.4byte	.LVL159
 6808 0b11 3C000000 		.4byte	.LFE17
 6809 0b15 0400     		.2byte	0x4
 6810 0b17 F3       		.byte	0xf3
 6811 0b18 01       		.uleb128 0x1
 6812 0b19 50       		.byte	0x50
 6813 0b1a 9F       		.byte	0x9f
 6814 0b1b 00000000 		.4byte	0
 6815 0b1f 00000000 		.4byte	0
 6816              	.LLST40:
 6817 0b23 04000000 		.4byte	.LVL155
 6818 0b27 24000000 		.4byte	.LVL157
 6819 0b2b 0300     		.2byte	0x3
 6820 0b2d 09       		.byte	0x9
 6821 0b2e FF       		.byte	0xff
 6822 0b2f 9F       		.byte	0x9f
 6823 0b30 24000000 		.4byte	.LVL157
 6824 0b34 2E000000 		.4byte	.LVL158
 6825 0b38 0100     		.2byte	0x1
 6826 0b3a 50       		.byte	0x50
 6827 0b3b 2E000000 		.4byte	.LVL158
 6828 0b3f 30000000 		.4byte	.LVL159
 6829 0b43 0300     		.2byte	0x3
 6830 0b45 09       		.byte	0x9
 6831 0b46 FF       		.byte	0xff
 6832 0b47 9F       		.byte	0x9f
 6833 0b48 30000000 		.4byte	.LVL159
 6834 0b4c 3C000000 		.4byte	.LFE17
 6835 0b50 0100     		.2byte	0x1
 6836 0b52 50       		.byte	0x50
 6837 0b53 00000000 		.4byte	0
 6838 0b57 00000000 		.4byte	0
 6839              	.LLST41:
 6840 0b5b 00000000 		.4byte	.LVL160
 6841 0b5f 18000000 		.4byte	.LVL162
 6842 0b63 0100     		.2byte	0x1
 6843 0b65 50       		.byte	0x50
 6844 0b66 18000000 		.4byte	.LVL162
 6845 0b6a 52000000 		.4byte	.LVL168
 6846 0b6e 0400     		.2byte	0x4
 6847 0b70 F3       		.byte	0xf3
 6848 0b71 01       		.uleb128 0x1
 6849 0b72 50       		.byte	0x50
 6850 0b73 9F       		.byte	0x9f
 6851 0b74 52000000 		.4byte	.LVL168
 6852 0b78 54000000 		.4byte	.LVL169
 6853 0b7c 0100     		.2byte	0x1
 6854 0b7e 50       		.byte	0x50
 6855 0b7f 54000000 		.4byte	.LVL169
 6856 0b83 60000000 		.4byte	.LFE18
 6857 0b87 0400     		.2byte	0x4
 6858 0b89 F3       		.byte	0xf3
 6859 0b8a 01       		.uleb128 0x1
 6860 0b8b 50       		.byte	0x50
ARM GAS  C:\Users\Svilen\AppData\Local\Temp\ccFr0ira.s 			page 150


 6861 0b8c 9F       		.byte	0x9f
 6862 0b8d 00000000 		.4byte	0
 6863 0b91 00000000 		.4byte	0
 6864              	.LLST42:
 6865 0b95 04000000 		.4byte	.LVL161
 6866 0b99 26000000 		.4byte	.LVL164
 6867 0b9d 0200     		.2byte	0x2
 6868 0b9f 30       		.byte	0x30
 6869 0ba0 9F       		.byte	0x9f
 6870 0ba1 26000000 		.4byte	.LVL164
 6871 0ba5 30000000 		.4byte	.LVL165
 6872 0ba9 0100     		.2byte	0x1
 6873 0bab 50       		.byte	0x50
 6874 0bac 50000000 		.4byte	.LVL167
 6875 0bb0 52000000 		.4byte	.LVL168
 6876 0bb4 0100     		.2byte	0x1
 6877 0bb6 53       		.byte	0x53
 6878 0bb7 52000000 		.4byte	.LVL168
 6879 0bbb 54000000 		.4byte	.LVL169
 6880 0bbf 0200     		.2byte	0x2
 6881 0bc1 30       		.byte	0x30
 6882 0bc2 9F       		.byte	0x9f
 6883 0bc3 54000000 		.4byte	.LVL169
 6884 0bc7 60000000 		.4byte	.LFE18
 6885 0bcb 0100     		.2byte	0x1
 6886 0bcd 53       		.byte	0x53
 6887 0bce 00000000 		.4byte	0
 6888 0bd2 00000000 		.4byte	0
 6889              	.LLST43:
 6890 0bd6 00000000 		.4byte	.LVL170
 6891 0bda 18000000 		.4byte	.LVL172
 6892 0bde 0100     		.2byte	0x1
 6893 0be0 50       		.byte	0x50
 6894 0be1 18000000 		.4byte	.LVL172
 6895 0be5 2C000000 		.4byte	.LVL174
 6896 0be9 0100     		.2byte	0x1
 6897 0beb 55       		.byte	0x55
 6898 0bec 2C000000 		.4byte	.LVL174
 6899 0bf0 2E000000 		.4byte	.LVL175
 6900 0bf4 0100     		.2byte	0x1
 6901 0bf6 50       		.byte	0x50
 6902 0bf7 2E000000 		.4byte	.LVL175
 6903 0bfb 38000000 		.4byte	.LFE19
 6904 0bff 0400     		.2byte	0x4
 6905 0c01 F3       		.byte	0xf3
 6906 0c02 01       		.uleb128 0x1
 6907 0c03 50       		.byte	0x50
 6908 0c04 9F       		.byte	0x9f
 6909 0c05 00000000 		.4byte	0
 6910 0c09 00000000 		.4byte	0
 6911              	.LLST44:
 6912 0c0d 04000000 		.4byte	.LVL171
 6913 0c11 24000000 		.4byte	.LVL173
 6914 0c15 0300     		.2byte	0x3
 6915 0c17 09       		.byte	0x9
 6916 0c18 FF       		.byte	0xff
 6917 0c19 9F       		.byte	0x9f
ARM GAS  C:\Users\Svilen\AppData\Local\Temp\ccFr0ira.s 			page 151


 6918 0c1a 24000000 		.4byte	.LVL173
 6919 0c1e 2C000000 		.4byte	.LVL174
 6920 0c22 0100     		.2byte	0x1
 6921 0c24 50       		.byte	0x50
 6922 0c25 2C000000 		.4byte	.LVL174
 6923 0c29 2E000000 		.4byte	.LVL175
 6924 0c2d 0300     		.2byte	0x3
 6925 0c2f 09       		.byte	0x9
 6926 0c30 FF       		.byte	0xff
 6927 0c31 9F       		.byte	0x9f
 6928 0c32 2E000000 		.4byte	.LVL175
 6929 0c36 38000000 		.4byte	.LFE19
 6930 0c3a 0100     		.2byte	0x1
 6931 0c3c 50       		.byte	0x50
 6932 0c3d 00000000 		.4byte	0
 6933 0c41 00000000 		.4byte	0
 6934              	.LLST45:
 6935 0c45 00000000 		.4byte	.LVL176
 6936 0c49 18000000 		.4byte	.LVL178
 6937 0c4d 0100     		.2byte	0x1
 6938 0c4f 50       		.byte	0x50
 6939 0c50 18000000 		.4byte	.LVL178
 6940 0c54 4C000000 		.4byte	.LVL184
 6941 0c58 0400     		.2byte	0x4
 6942 0c5a F3       		.byte	0xf3
 6943 0c5b 01       		.uleb128 0x1
 6944 0c5c 50       		.byte	0x50
 6945 0c5d 9F       		.byte	0x9f
 6946 0c5e 4C000000 		.4byte	.LVL184
 6947 0c62 4E000000 		.4byte	.LVL185
 6948 0c66 0100     		.2byte	0x1
 6949 0c68 50       		.byte	0x50
 6950 0c69 4E000000 		.4byte	.LVL185
 6951 0c6d 58000000 		.4byte	.LFE20
 6952 0c71 0400     		.2byte	0x4
 6953 0c73 F3       		.byte	0xf3
 6954 0c74 01       		.uleb128 0x1
 6955 0c75 50       		.byte	0x50
 6956 0c76 9F       		.byte	0x9f
 6957 0c77 00000000 		.4byte	0
 6958 0c7b 00000000 		.4byte	0
 6959              	.LLST46:
 6960 0c7f 04000000 		.4byte	.LVL177
 6961 0c83 26000000 		.4byte	.LVL180
 6962 0c87 0300     		.2byte	0x3
 6963 0c89 09       		.byte	0x9
 6964 0c8a FF       		.byte	0xff
 6965 0c8b 9F       		.byte	0x9f
 6966 0c8c 26000000 		.4byte	.LVL180
 6967 0c90 32000000 		.4byte	.LVL181
 6968 0c94 0100     		.2byte	0x1
 6969 0c96 50       		.byte	0x50
 6970 0c97 4A000000 		.4byte	.LVL183
 6971 0c9b 4C000000 		.4byte	.LVL184
 6972 0c9f 0100     		.2byte	0x1
 6973 0ca1 53       		.byte	0x53
 6974 0ca2 4C000000 		.4byte	.LVL184
ARM GAS  C:\Users\Svilen\AppData\Local\Temp\ccFr0ira.s 			page 152


 6975 0ca6 4E000000 		.4byte	.LVL185
 6976 0caa 0300     		.2byte	0x3
 6977 0cac 09       		.byte	0x9
 6978 0cad FF       		.byte	0xff
 6979 0cae 9F       		.byte	0x9f
 6980 0caf 4E000000 		.4byte	.LVL185
 6981 0cb3 58000000 		.4byte	.LFE20
 6982 0cb7 0100     		.2byte	0x1
 6983 0cb9 53       		.byte	0x53
 6984 0cba 00000000 		.4byte	0
 6985 0cbe 00000000 		.4byte	0
 6986              	.LLST47:
 6987 0cc2 00000000 		.4byte	.LVL186
 6988 0cc6 1C000000 		.4byte	.LVL188
 6989 0cca 0100     		.2byte	0x1
 6990 0ccc 50       		.byte	0x50
 6991 0ccd 1C000000 		.4byte	.LVL188
 6992 0cd1 AE000000 		.4byte	.LVL193
 6993 0cd5 0400     		.2byte	0x4
 6994 0cd7 F3       		.byte	0xf3
 6995 0cd8 01       		.uleb128 0x1
 6996 0cd9 50       		.byte	0x50
 6997 0cda 9F       		.byte	0x9f
 6998 0cdb AE000000 		.4byte	.LVL193
 6999 0cdf B0000000 		.4byte	.LVL194
 7000 0ce3 0100     		.2byte	0x1
 7001 0ce5 50       		.byte	0x50
 7002 0ce6 B0000000 		.4byte	.LVL194
 7003 0cea B2000000 		.4byte	.LVL195
 7004 0cee 0400     		.2byte	0x4
 7005 0cf0 F3       		.byte	0xf3
 7006 0cf1 01       		.uleb128 0x1
 7007 0cf2 50       		.byte	0x50
 7008 0cf3 9F       		.byte	0x9f
 7009 0cf4 B2000000 		.4byte	.LVL195
 7010 0cf8 B4000000 		.4byte	.LVL196
 7011 0cfc 0100     		.2byte	0x1
 7012 0cfe 50       		.byte	0x50
 7013 0cff B4000000 		.4byte	.LVL196
 7014 0d03 C4000000 		.4byte	.LFE21
 7015 0d07 0400     		.2byte	0x4
 7016 0d09 F3       		.byte	0xf3
 7017 0d0a 01       		.uleb128 0x1
 7018 0d0b 50       		.byte	0x50
 7019 0d0c 9F       		.byte	0x9f
 7020 0d0d 00000000 		.4byte	0
 7021 0d11 00000000 		.4byte	0
 7022              	.LLST48:
 7023 0d15 04000000 		.4byte	.LVL187
 7024 0d19 28000000 		.4byte	.LVL190
 7025 0d1d 0300     		.2byte	0x3
 7026 0d1f 09       		.byte	0x9
 7027 0d20 FF       		.byte	0xff
 7028 0d21 9F       		.byte	0x9f
 7029 0d22 28000000 		.4byte	.LVL190
 7030 0d26 AC000000 		.4byte	.LVL192
 7031 0d2a 0100     		.2byte	0x1
ARM GAS  C:\Users\Svilen\AppData\Local\Temp\ccFr0ira.s 			page 153


 7032 0d2c 54       		.byte	0x54
 7033 0d2d AC000000 		.4byte	.LVL192
 7034 0d31 AE000000 		.4byte	.LVL193
 7035 0d35 0100     		.2byte	0x1
 7036 0d37 50       		.byte	0x50
 7037 0d38 AE000000 		.4byte	.LVL193
 7038 0d3c B4000000 		.4byte	.LVL196
 7039 0d40 0300     		.2byte	0x3
 7040 0d42 09       		.byte	0x9
 7041 0d43 FF       		.byte	0xff
 7042 0d44 9F       		.byte	0x9f
 7043 0d45 B4000000 		.4byte	.LVL196
 7044 0d49 C4000000 		.4byte	.LFE21
 7045 0d4d 0100     		.2byte	0x1
 7046 0d4f 50       		.byte	0x50
 7047 0d50 00000000 		.4byte	0
 7048 0d54 00000000 		.4byte	0
 7049              	.LLST49:
 7050 0d58 00000000 		.4byte	.LVL197
 7051 0d5c 14000000 		.4byte	.LVL201
 7052 0d60 0100     		.2byte	0x1
 7053 0d62 50       		.byte	0x50
 7054 0d63 14000000 		.4byte	.LVL201
 7055 0d67 18000000 		.4byte	.LVL203
 7056 0d6b 0400     		.2byte	0x4
 7057 0d6d F3       		.byte	0xf3
 7058 0d6e 01       		.uleb128 0x1
 7059 0d6f 50       		.byte	0x50
 7060 0d70 9F       		.byte	0x9f
 7061 0d71 18000000 		.4byte	.LVL203
 7062 0d75 1A000000 		.4byte	.LVL204
 7063 0d79 0100     		.2byte	0x1
 7064 0d7b 50       		.byte	0x50
 7065 0d7c 1A000000 		.4byte	.LVL204
 7066 0d80 24000000 		.4byte	.LFE23
 7067 0d84 0400     		.2byte	0x4
 7068 0d86 F3       		.byte	0xf3
 7069 0d87 01       		.uleb128 0x1
 7070 0d88 50       		.byte	0x50
 7071 0d89 9F       		.byte	0x9f
 7072 0d8a 00000000 		.4byte	0
 7073 0d8e 00000000 		.4byte	0
 7074              	.LLST50:
 7075 0d92 00000000 		.4byte	.LVL197
 7076 0d96 10000000 		.4byte	.LVL200
 7077 0d9a 0100     		.2byte	0x1
 7078 0d9c 51       		.byte	0x51
 7079 0d9d 10000000 		.4byte	.LVL200
 7080 0da1 15000000 		.4byte	.LVL202-1
 7081 0da5 0100     		.2byte	0x1
 7082 0da7 52       		.byte	0x52
 7083 0da8 15000000 		.4byte	.LVL202-1
 7084 0dac 18000000 		.4byte	.LVL203
 7085 0db0 0400     		.2byte	0x4
 7086 0db2 F3       		.byte	0xf3
 7087 0db3 01       		.uleb128 0x1
 7088 0db4 51       		.byte	0x51
ARM GAS  C:\Users\Svilen\AppData\Local\Temp\ccFr0ira.s 			page 154


 7089 0db5 9F       		.byte	0x9f
 7090 0db6 18000000 		.4byte	.LVL203
 7091 0dba 1A000000 		.4byte	.LVL204
 7092 0dbe 0100     		.2byte	0x1
 7093 0dc0 51       		.byte	0x51
 7094 0dc1 1A000000 		.4byte	.LVL204
 7095 0dc5 24000000 		.4byte	.LFE23
 7096 0dc9 0400     		.2byte	0x4
 7097 0dcb F3       		.byte	0xf3
 7098 0dcc 01       		.uleb128 0x1
 7099 0dcd 51       		.byte	0x51
 7100 0dce 9F       		.byte	0x9f
 7101 0dcf 00000000 		.4byte	0
 7102 0dd3 00000000 		.4byte	0
 7103              	.LLST51:
 7104 0dd7 00000000 		.4byte	.LVL197
 7105 0ddb 0E000000 		.4byte	.LVL199
 7106 0ddf 0100     		.2byte	0x1
 7107 0de1 52       		.byte	0x52
 7108 0de2 0E000000 		.4byte	.LVL199
 7109 0de6 18000000 		.4byte	.LVL203
 7110 0dea 0400     		.2byte	0x4
 7111 0dec F3       		.byte	0xf3
 7112 0ded 01       		.uleb128 0x1
 7113 0dee 52       		.byte	0x52
 7114 0def 9F       		.byte	0x9f
 7115 0df0 18000000 		.4byte	.LVL203
 7116 0df4 1A000000 		.4byte	.LVL204
 7117 0df8 0100     		.2byte	0x1
 7118 0dfa 52       		.byte	0x52
 7119 0dfb 1A000000 		.4byte	.LVL204
 7120 0dff 24000000 		.4byte	.LFE23
 7121 0e03 0400     		.2byte	0x4
 7122 0e05 F3       		.byte	0xf3
 7123 0e06 01       		.uleb128 0x1
 7124 0e07 52       		.byte	0x52
 7125 0e08 9F       		.byte	0x9f
 7126 0e09 00000000 		.4byte	0
 7127 0e0d 00000000 		.4byte	0
 7128              	.LLST52:
 7129 0e11 02000000 		.4byte	.LVL198
 7130 0e15 16000000 		.4byte	.LVL202
 7131 0e19 0300     		.2byte	0x3
 7132 0e1b 09       		.byte	0x9
 7133 0e1c FF       		.byte	0xff
 7134 0e1d 9F       		.byte	0x9f
 7135 0e1e 16000000 		.4byte	.LVL202
 7136 0e22 18000000 		.4byte	.LVL203
 7137 0e26 0100     		.2byte	0x1
 7138 0e28 50       		.byte	0x50
 7139 0e29 18000000 		.4byte	.LVL203
 7140 0e2d 1A000000 		.4byte	.LVL204
 7141 0e31 0300     		.2byte	0x3
 7142 0e33 09       		.byte	0x9
 7143 0e34 FF       		.byte	0xff
 7144 0e35 9F       		.byte	0x9f
 7145 0e36 1A000000 		.4byte	.LVL204
ARM GAS  C:\Users\Svilen\AppData\Local\Temp\ccFr0ira.s 			page 155


 7146 0e3a 24000000 		.4byte	.LFE23
 7147 0e3e 0100     		.2byte	0x1
 7148 0e40 50       		.byte	0x50
 7149 0e41 00000000 		.4byte	0
 7150 0e45 00000000 		.4byte	0
 7151              	.LLST53:
 7152 0e49 00000000 		.4byte	.LVL205
 7153 0e4d 14000000 		.4byte	.LVL209
 7154 0e51 0100     		.2byte	0x1
 7155 0e53 50       		.byte	0x50
 7156 0e54 14000000 		.4byte	.LVL209
 7157 0e58 18000000 		.4byte	.LVL211
 7158 0e5c 0400     		.2byte	0x4
 7159 0e5e F3       		.byte	0xf3
 7160 0e5f 01       		.uleb128 0x1
 7161 0e60 50       		.byte	0x50
 7162 0e61 9F       		.byte	0x9f
 7163 0e62 18000000 		.4byte	.LVL211
 7164 0e66 1A000000 		.4byte	.LVL212
 7165 0e6a 0100     		.2byte	0x1
 7166 0e6c 50       		.byte	0x50
 7167 0e6d 1A000000 		.4byte	.LVL212
 7168 0e71 24000000 		.4byte	.LFE24
 7169 0e75 0400     		.2byte	0x4
 7170 0e77 F3       		.byte	0xf3
 7171 0e78 01       		.uleb128 0x1
 7172 0e79 50       		.byte	0x50
 7173 0e7a 9F       		.byte	0x9f
 7174 0e7b 00000000 		.4byte	0
 7175 0e7f 00000000 		.4byte	0
 7176              	.LLST54:
 7177 0e83 00000000 		.4byte	.LVL205
 7178 0e87 10000000 		.4byte	.LVL208
 7179 0e8b 0100     		.2byte	0x1
 7180 0e8d 51       		.byte	0x51
 7181 0e8e 10000000 		.4byte	.LVL208
 7182 0e92 15000000 		.4byte	.LVL210-1
 7183 0e96 0100     		.2byte	0x1
 7184 0e98 52       		.byte	0x52
 7185 0e99 15000000 		.4byte	.LVL210-1
 7186 0e9d 18000000 		.4byte	.LVL211
 7187 0ea1 0400     		.2byte	0x4
 7188 0ea3 F3       		.byte	0xf3
 7189 0ea4 01       		.uleb128 0x1
 7190 0ea5 51       		.byte	0x51
 7191 0ea6 9F       		.byte	0x9f
 7192 0ea7 18000000 		.4byte	.LVL211
 7193 0eab 1A000000 		.4byte	.LVL212
 7194 0eaf 0100     		.2byte	0x1
 7195 0eb1 51       		.byte	0x51
 7196 0eb2 1A000000 		.4byte	.LVL212
 7197 0eb6 24000000 		.4byte	.LFE24
 7198 0eba 0400     		.2byte	0x4
 7199 0ebc F3       		.byte	0xf3
 7200 0ebd 01       		.uleb128 0x1
 7201 0ebe 51       		.byte	0x51
 7202 0ebf 9F       		.byte	0x9f
ARM GAS  C:\Users\Svilen\AppData\Local\Temp\ccFr0ira.s 			page 156


 7203 0ec0 00000000 		.4byte	0
 7204 0ec4 00000000 		.4byte	0
 7205              	.LLST55:
 7206 0ec8 00000000 		.4byte	.LVL205
 7207 0ecc 0E000000 		.4byte	.LVL207
 7208 0ed0 0100     		.2byte	0x1
 7209 0ed2 52       		.byte	0x52
 7210 0ed3 0E000000 		.4byte	.LVL207
 7211 0ed7 18000000 		.4byte	.LVL211
 7212 0edb 0400     		.2byte	0x4
 7213 0edd F3       		.byte	0xf3
 7214 0ede 01       		.uleb128 0x1
 7215 0edf 52       		.byte	0x52
 7216 0ee0 9F       		.byte	0x9f
 7217 0ee1 18000000 		.4byte	.LVL211
 7218 0ee5 1A000000 		.4byte	.LVL212
 7219 0ee9 0100     		.2byte	0x1
 7220 0eeb 52       		.byte	0x52
 7221 0eec 1A000000 		.4byte	.LVL212
 7222 0ef0 24000000 		.4byte	.LFE24
 7223 0ef4 0400     		.2byte	0x4
 7224 0ef6 F3       		.byte	0xf3
 7225 0ef7 01       		.uleb128 0x1
 7226 0ef8 52       		.byte	0x52
 7227 0ef9 9F       		.byte	0x9f
 7228 0efa 00000000 		.4byte	0
 7229 0efe 00000000 		.4byte	0
 7230              	.LLST56:
 7231 0f02 02000000 		.4byte	.LVL206
 7232 0f06 16000000 		.4byte	.LVL210
 7233 0f0a 0300     		.2byte	0x3
 7234 0f0c 09       		.byte	0x9
 7235 0f0d FF       		.byte	0xff
 7236 0f0e 9F       		.byte	0x9f
 7237 0f0f 16000000 		.4byte	.LVL210
 7238 0f13 18000000 		.4byte	.LVL211
 7239 0f17 0100     		.2byte	0x1
 7240 0f19 50       		.byte	0x50
 7241 0f1a 18000000 		.4byte	.LVL211
 7242 0f1e 1A000000 		.4byte	.LVL212
 7243 0f22 0300     		.2byte	0x3
 7244 0f24 09       		.byte	0x9
 7245 0f25 FF       		.byte	0xff
 7246 0f26 9F       		.byte	0x9f
 7247 0f27 1A000000 		.4byte	.LVL212
 7248 0f2b 24000000 		.4byte	.LFE24
 7249 0f2f 0100     		.2byte	0x1
 7250 0f31 50       		.byte	0x50
 7251 0f32 00000000 		.4byte	0
 7252 0f36 00000000 		.4byte	0
 7253              	.LLST57:
 7254 0f3a 00000000 		.4byte	.LVL213
 7255 0f3e 07000000 		.4byte	.LVL215-1
 7256 0f42 0100     		.2byte	0x1
 7257 0f44 50       		.byte	0x50
 7258 0f45 07000000 		.4byte	.LVL215-1
 7259 0f49 E0000000 		.4byte	.LFE25
ARM GAS  C:\Users\Svilen\AppData\Local\Temp\ccFr0ira.s 			page 157


 7260 0f4d 0400     		.2byte	0x4
 7261 0f4f F3       		.byte	0xf3
 7262 0f50 01       		.uleb128 0x1
 7263 0f51 50       		.byte	0x50
 7264 0f52 9F       		.byte	0x9f
 7265 0f53 00000000 		.4byte	0
 7266 0f57 00000000 		.4byte	0
 7267              	.LLST58:
 7268 0f5b 04000000 		.4byte	.LVL214
 7269 0f5f 5A000000 		.4byte	.LVL222
 7270 0f63 0A00     		.2byte	0xa
 7271 0f65 9E       		.byte	0x9e
 7272 0f66 08       		.uleb128 0x8
 7273 0f67 00000000 		.4byte	0
 7274 0f6b 00000000 		.4byte	0
 7275 0f6f 5A000000 		.4byte	.LVL222
 7276 0f73 5C000000 		.4byte	.LVL223
 7277 0f77 0600     		.2byte	0x6
 7278 0f79 50       		.byte	0x50
 7279 0f7a 93       		.byte	0x93
 7280 0f7b 04       		.uleb128 0x4
 7281 0f7c 51       		.byte	0x51
 7282 0f7d 93       		.byte	0x93
 7283 0f7e 04       		.uleb128 0x4
 7284 0f7f 5C000000 		.4byte	.LVL223
 7285 0f83 E0000000 		.4byte	.LFE25
 7286 0f87 0200     		.2byte	0x2
 7287 0f89 91       		.byte	0x91
 7288 0f8a 68       		.sleb128 -24
 7289 0f8b 00000000 		.4byte	0
 7290 0f8f 00000000 		.4byte	0
 7291              	.LLST59:
 7292 0f93 04000000 		.4byte	.LVL214
 7293 0f97 A6000000 		.4byte	.LVL230
 7294 0f9b 0A00     		.2byte	0xa
 7295 0f9d 9E       		.byte	0x9e
 7296 0f9e 08       		.uleb128 0x8
 7297 0f9f 00000000 		.4byte	0
 7298 0fa3 00000000 		.4byte	0
 7299 0fa7 A6000000 		.4byte	.LVL230
 7300 0fab AD000000 		.4byte	.LVL231-1
 7301 0faf 0600     		.2byte	0x6
 7302 0fb1 52       		.byte	0x52
 7303 0fb2 93       		.byte	0x93
 7304 0fb3 04       		.uleb128 0x4
 7305 0fb4 53       		.byte	0x53
 7306 0fb5 93       		.byte	0x93
 7307 0fb6 04       		.uleb128 0x4
 7308 0fb7 00000000 		.4byte	0
 7309 0fbb 00000000 		.4byte	0
 7310              	.LLST60:
 7311 0fbf 04000000 		.4byte	.LVL214
 7312 0fc3 C4000000 		.4byte	.LVL233
 7313 0fc7 0A00     		.2byte	0xa
 7314 0fc9 9E       		.byte	0x9e
 7315 0fca 08       		.uleb128 0x8
 7316 0fcb 00000000 		.4byte	0
ARM GAS  C:\Users\Svilen\AppData\Local\Temp\ccFr0ira.s 			page 158


 7317 0fcf 00000000 		.4byte	0
 7318 0fd3 C4000000 		.4byte	.LVL233
 7319 0fd7 E0000000 		.4byte	.LFE25
 7320 0fdb 0600     		.2byte	0x6
 7321 0fdd 50       		.byte	0x50
 7322 0fde 93       		.byte	0x93
 7323 0fdf 04       		.uleb128 0x4
 7324 0fe0 51       		.byte	0x51
 7325 0fe1 93       		.byte	0x93
 7326 0fe2 04       		.uleb128 0x4
 7327 0fe3 00000000 		.4byte	0
 7328 0fe7 00000000 		.4byte	0
 7329              	.LLST61:
 7330 0feb 00000000 		.4byte	.LVL234
 7331 0fef 0C000000 		.4byte	.LVL236
 7332 0ff3 0100     		.2byte	0x1
 7333 0ff5 50       		.byte	0x50
 7334 0ff6 0C000000 		.4byte	.LVL236
 7335 0ffa F4010000 		.4byte	.LVL300
 7336 0ffe 0100     		.2byte	0x1
 7337 1000 57       		.byte	0x57
 7338 1001 F4010000 		.4byte	.LVL300
 7339 1005 20020000 		.4byte	.LFE26
 7340 1009 0400     		.2byte	0x4
 7341 100b F3       		.byte	0xf3
 7342 100c 01       		.uleb128 0x1
 7343 100d 50       		.byte	0x50
 7344 100e 9F       		.byte	0x9f
 7345 100f 00000000 		.4byte	0
 7346 1013 00000000 		.4byte	0
 7347              	.LLST62:
 7348 1017 06000000 		.4byte	.LVL235
 7349 101b 24000000 		.4byte	.LVL240
 7350 101f 0A00     		.2byte	0xa
 7351 1021 9E       		.byte	0x9e
 7352 1022 08       		.uleb128 0x8
 7353 1023 00000000 		.4byte	0
 7354 1027 00000000 		.4byte	0
 7355 102b 24000000 		.4byte	.LVL240
 7356 102f EA000000 		.4byte	.LVL264
 7357 1033 0600     		.2byte	0x6
 7358 1035 54       		.byte	0x54
 7359 1036 93       		.byte	0x93
 7360 1037 04       		.uleb128 0x4
 7361 1038 55       		.byte	0x55
 7362 1039 93       		.byte	0x93
 7363 103a 04       		.uleb128 0x4
 7364 103b EA000000 		.4byte	.LVL264
 7365 103f F3000000 		.4byte	.LVL265-1
 7366 1043 0600     		.2byte	0x6
 7367 1045 50       		.byte	0x50
 7368 1046 93       		.byte	0x93
 7369 1047 04       		.uleb128 0x4
 7370 1048 51       		.byte	0x51
 7371 1049 93       		.byte	0x93
 7372 104a 04       		.uleb128 0x4
 7373 104b 16010000 		.4byte	.LVL269
ARM GAS  C:\Users\Svilen\AppData\Local\Temp\ccFr0ira.s 			page 159


 7374 104f 76010000 		.4byte	.LVL280
 7375 1053 0600     		.2byte	0x6
 7376 1055 54       		.byte	0x54
 7377 1056 93       		.byte	0x93
 7378 1057 04       		.uleb128 0x4
 7379 1058 55       		.byte	0x55
 7380 1059 93       		.byte	0x93
 7381 105a 04       		.uleb128 0x4
 7382 105b 9E010000 		.4byte	.LVL286
 7383 105f A2010000 		.4byte	.LVL287
 7384 1063 0600     		.2byte	0x6
 7385 1065 50       		.byte	0x50
 7386 1066 93       		.byte	0x93
 7387 1067 04       		.uleb128 0x4
 7388 1068 51       		.byte	0x51
 7389 1069 93       		.byte	0x93
 7390 106a 04       		.uleb128 0x4
 7391 106b A2010000 		.4byte	.LVL287
 7392 106f C8010000 		.4byte	.LVL293
 7393 1073 0200     		.2byte	0x2
 7394 1075 7D       		.byte	0x7d
 7395 1076 00       		.sleb128 0
 7396 1077 EE010000 		.4byte	.LVL298
 7397 107b F2010000 		.4byte	.LVL299
 7398 107f 0600     		.2byte	0x6
 7399 1081 54       		.byte	0x54
 7400 1082 93       		.byte	0x93
 7401 1083 04       		.uleb128 0x4
 7402 1084 55       		.byte	0x55
 7403 1085 93       		.byte	0x93
 7404 1086 04       		.uleb128 0x4
 7405 1087 00000000 		.4byte	0
 7406 108b 00000000 		.4byte	0
 7407              	.LLST63:
 7408 108f 06000000 		.4byte	.LVL235
 7409 1093 52000000 		.4byte	.LVL245
 7410 1097 0A00     		.2byte	0xa
 7411 1099 9E       		.byte	0x9e
 7412 109a 08       		.uleb128 0x8
 7413 109b 00000000 		.4byte	0
 7414 109f 00000000 		.4byte	0
 7415 10a3 52000000 		.4byte	.LVL245
 7416 10a7 56000000 		.4byte	.LVL246
 7417 10ab 0600     		.2byte	0x6
 7418 10ad 50       		.byte	0x50
 7419 10ae 93       		.byte	0x93
 7420 10af 04       		.uleb128 0x4
 7421 10b0 51       		.byte	0x51
 7422 10b1 93       		.byte	0x93
 7423 10b2 04       		.uleb128 0x4
 7424 10b3 56000000 		.4byte	.LVL246
 7425 10b7 72000000 		.4byte	.LVL250
 7426 10bb 0200     		.2byte	0x2
 7427 10bd 7D       		.byte	0x7d
 7428 10be 00       		.sleb128 0
 7429 10bf 72000000 		.4byte	.LVL250
 7430 10c3 79000000 		.4byte	.LVL251-1
ARM GAS  C:\Users\Svilen\AppData\Local\Temp\ccFr0ira.s 			page 160


 7431 10c7 0600     		.2byte	0x6
 7432 10c9 50       		.byte	0x50
 7433 10ca 93       		.byte	0x93
 7434 10cb 04       		.uleb128 0x4
 7435 10cc 51       		.byte	0x51
 7436 10cd 93       		.byte	0x93
 7437 10ce 04       		.uleb128 0x4
 7438 10cf 9E000000 		.4byte	.LVL255
 7439 10d3 A2000000 		.4byte	.LVL256
 7440 10d7 0600     		.2byte	0x6
 7441 10d9 50       		.byte	0x50
 7442 10da 93       		.byte	0x93
 7443 10db 04       		.uleb128 0x4
 7444 10dc 51       		.byte	0x51
 7445 10dd 93       		.byte	0x93
 7446 10de 04       		.uleb128 0x4
 7447 10df A2000000 		.4byte	.LVL256
 7448 10e3 BC010000 		.4byte	.LVL291
 7449 10e7 0200     		.2byte	0x2
 7450 10e9 91       		.byte	0x91
 7451 10ea 60       		.sleb128 -32
 7452 10eb BC010000 		.4byte	.LVL291
 7453 10ef C3010000 		.4byte	.LVL292-1
 7454 10f3 0600     		.2byte	0x6
 7455 10f5 52       		.byte	0x52
 7456 10f6 93       		.byte	0x93
 7457 10f7 04       		.uleb128 0x4
 7458 10f8 53       		.byte	0x53
 7459 10f9 93       		.byte	0x93
 7460 10fa 04       		.uleb128 0x4
 7461 10fb EE010000 		.4byte	.LVL298
 7462 10ff F2010000 		.4byte	.LVL299
 7463 1103 0200     		.2byte	0x2
 7464 1105 91       		.byte	0x91
 7465 1106 60       		.sleb128 -32
 7466 1107 00000000 		.4byte	0
 7467 110b 00000000 		.4byte	0
 7468              	.LLST64:
 7469 110f 06000000 		.4byte	.LVL235
 7470 1113 2C010000 		.4byte	.LVL272
 7471 1117 0A00     		.2byte	0xa
 7472 1119 9E       		.byte	0x9e
 7473 111a 08       		.uleb128 0x8
 7474 111b 00000000 		.4byte	0
 7475 111f 00000000 		.4byte	0
 7476 1123 2C010000 		.4byte	.LVL272
 7477 1127 2E010000 		.4byte	.LVL273
 7478 112b 0600     		.2byte	0x6
 7479 112d 50       		.byte	0x50
 7480 112e 93       		.byte	0x93
 7481 112f 04       		.uleb128 0x4
 7482 1130 51       		.byte	0x51
 7483 1131 93       		.byte	0x93
 7484 1132 04       		.uleb128 0x4
 7485 1133 2E010000 		.4byte	.LVL273
 7486 1137 78010000 		.4byte	.LVL281
 7487 113b 0200     		.2byte	0x2
ARM GAS  C:\Users\Svilen\AppData\Local\Temp\ccFr0ira.s 			page 161


 7488 113d 7D       		.byte	0x7d
 7489 113e 00       		.sleb128 0
 7490 113f 78010000 		.4byte	.LVL281
 7491 1143 EC010000 		.4byte	.LVL297
 7492 1147 0600     		.2byte	0x6
 7493 1149 54       		.byte	0x54
 7494 114a 93       		.byte	0x93
 7495 114b 04       		.uleb128 0x4
 7496 114c 55       		.byte	0x55
 7497 114d 93       		.byte	0x93
 7498 114e 04       		.uleb128 0x4
 7499 114f EC010000 		.4byte	.LVL297
 7500 1153 EE010000 		.4byte	.LVL298
 7501 1157 0600     		.2byte	0x6
 7502 1159 50       		.byte	0x50
 7503 115a 93       		.byte	0x93
 7504 115b 04       		.uleb128 0x4
 7505 115c 51       		.byte	0x51
 7506 115d 93       		.byte	0x93
 7507 115e 04       		.uleb128 0x4
 7508 115f EE010000 		.4byte	.LVL298
 7509 1163 F2010000 		.4byte	.LVL299
 7510 1167 0200     		.2byte	0x2
 7511 1169 7D       		.byte	0x7d
 7512 116a 00       		.sleb128 0
 7513 116b 00000000 		.4byte	0
 7514 116f 00000000 		.4byte	0
 7515              	.LLST65:
 7516 1173 00000000 		.4byte	.LVL301
 7517 1177 26000000 		.4byte	.LVL304
 7518 117b 0100     		.2byte	0x1
 7519 117d 50       		.byte	0x50
 7520 117e 26000000 		.4byte	.LVL304
 7521 1182 36010000 		.4byte	.LVL329
 7522 1186 0100     		.2byte	0x1
 7523 1188 59       		.byte	0x59
 7524 1189 36010000 		.4byte	.LVL329
 7525 118d 5A010000 		.4byte	.LVL334
 7526 1191 0400     		.2byte	0x4
 7527 1193 F3       		.byte	0xf3
 7528 1194 01       		.uleb128 0x1
 7529 1195 50       		.byte	0x50
 7530 1196 9F       		.byte	0x9f
 7531 1197 5A010000 		.4byte	.LVL334
 7532 119b 5C010000 		.4byte	.LVL335
 7533 119f 0100     		.2byte	0x1
 7534 11a1 59       		.byte	0x59
 7535 11a2 5C010000 		.4byte	.LVL335
 7536 11a6 74010000 		.4byte	.LFE27
 7537 11aa 0400     		.2byte	0x4
 7538 11ac F3       		.byte	0xf3
 7539 11ad 01       		.uleb128 0x1
 7540 11ae 50       		.byte	0x50
 7541 11af 9F       		.byte	0x9f
 7542 11b0 00000000 		.4byte	0
 7543 11b4 00000000 		.4byte	0
 7544              	.LLST66:
ARM GAS  C:\Users\Svilen\AppData\Local\Temp\ccFr0ira.s 			page 162


 7545 11b8 0E000000 		.4byte	.LVL302
 7546 11bc 24000000 		.4byte	.LVL303
 7547 11c0 0A00     		.2byte	0xa
 7548 11c2 9E       		.byte	0x9e
 7549 11c3 08       		.uleb128 0x8
 7550 11c4 00000000 		.8byte	0
 7550      00000000 
 7551 11cc 24000000 		.4byte	.LVL303
 7552 11d0 A0000000 		.4byte	.LVL314
 7553 11d4 0600     		.2byte	0x6
 7554 11d6 56       		.byte	0x56
 7555 11d7 93       		.byte	0x93
 7556 11d8 04       		.uleb128 0x4
 7557 11d9 57       		.byte	0x57
 7558 11da 93       		.byte	0x93
 7559 11db 04       		.uleb128 0x4
 7560 11dc AA000000 		.4byte	.LVL315
 7561 11e0 C2000000 		.4byte	.LVL317
 7562 11e4 0600     		.2byte	0x6
 7563 11e6 54       		.byte	0x54
 7564 11e7 93       		.byte	0x93
 7565 11e8 04       		.uleb128 0x4
 7566 11e9 55       		.byte	0x55
 7567 11ea 93       		.byte	0x93
 7568 11eb 04       		.uleb128 0x4
 7569 11ec C2000000 		.4byte	.LVL317
 7570 11f0 02010000 		.4byte	.LVL324
 7571 11f4 0600     		.2byte	0x6
 7572 11f6 55       		.byte	0x55
 7573 11f7 93       		.byte	0x93
 7574 11f8 04       		.uleb128 0x4
 7575 11f9 54       		.byte	0x54
 7576 11fa 93       		.byte	0x93
 7577 11fb 04       		.uleb128 0x4
 7578 11fc 22010000 		.4byte	.LVL327
 7579 1200 42010000 		.4byte	.LVL331
 7580 1204 0600     		.2byte	0x6
 7581 1206 54       		.byte	0x54
 7582 1207 93       		.byte	0x93
 7583 1208 04       		.uleb128 0x4
 7584 1209 55       		.byte	0x55
 7585 120a 93       		.byte	0x93
 7586 120b 04       		.uleb128 0x4
 7587 120c 5A010000 		.4byte	.LVL334
 7588 1210 5C010000 		.4byte	.LVL335
 7589 1214 0600     		.2byte	0x6
 7590 1216 55       		.byte	0x55
 7591 1217 93       		.byte	0x93
 7592 1218 04       		.uleb128 0x4
 7593 1219 54       		.byte	0x54
 7594 121a 93       		.byte	0x93
 7595 121b 04       		.uleb128 0x4
 7596 121c 00000000 		.4byte	0
 7597 1220 00000000 		.4byte	0
 7598              	.LLST67:
 7599 1224 0E000000 		.4byte	.LVL302
 7600 1228 44000000 		.4byte	.LVL307
ARM GAS  C:\Users\Svilen\AppData\Local\Temp\ccFr0ira.s 			page 163


 7601 122c 0A00     		.2byte	0xa
 7602 122e 9E       		.byte	0x9e
 7603 122f 08       		.uleb128 0x8
 7604 1230 00000000 		.8byte	0
 7604      00000000 
 7605 1238 44000000 		.4byte	.LVL307
 7606 123c 76000000 		.4byte	.LVL310
 7607 1240 0600     		.2byte	0x6
 7608 1242 54       		.byte	0x54
 7609 1243 93       		.byte	0x93
 7610 1244 04       		.uleb128 0x4
 7611 1245 55       		.byte	0x55
 7612 1246 93       		.byte	0x93
 7613 1247 04       		.uleb128 0x4
 7614 1248 76000000 		.4byte	.LVL310
 7615 124c 7C000000 		.4byte	.LVL311
 7616 1250 0600     		.2byte	0x6
 7617 1252 52       		.byte	0x52
 7618 1253 93       		.byte	0x93
 7619 1254 04       		.uleb128 0x4
 7620 1255 53       		.byte	0x53
 7621 1256 93       		.byte	0x93
 7622 1257 04       		.uleb128 0x4
 7623 1258 7C000000 		.4byte	.LVL311
 7624 125c 3E010000 		.4byte	.LVL330
 7625 1260 0200     		.2byte	0x2
 7626 1262 91       		.byte	0x91
 7627 1263 58       		.sleb128 -40
 7628 1264 3E010000 		.4byte	.LVL330
 7629 1268 46010000 		.4byte	.LVL332
 7630 126c 0600     		.2byte	0x6
 7631 126e 52       		.byte	0x52
 7632 126f 93       		.byte	0x93
 7633 1270 04       		.uleb128 0x4
 7634 1271 53       		.byte	0x53
 7635 1272 93       		.byte	0x93
 7636 1273 04       		.uleb128 0x4
 7637 1274 5A010000 		.4byte	.LVL334
 7638 1278 5C010000 		.4byte	.LVL335
 7639 127c 0200     		.2byte	0x2
 7640 127e 91       		.byte	0x91
 7641 127f 58       		.sleb128 -40
 7642 1280 00000000 		.4byte	0
 7643 1284 00000000 		.4byte	0
 7644              	.LLST68:
 7645 1288 0E000000 		.4byte	.LVL302
 7646 128c CC000000 		.4byte	.LVL318
 7647 1290 0A00     		.2byte	0xa
 7648 1292 9E       		.byte	0x9e
 7649 1293 08       		.uleb128 0x8
 7650 1294 00000000 		.8byte	0
 7650      00000000 
 7651 129c CC000000 		.4byte	.LVL318
 7652 12a0 E6000000 		.4byte	.LVL319
 7653 12a4 0600     		.2byte	0x6
 7654 12a6 53       		.byte	0x53
 7655 12a7 93       		.byte	0x93
ARM GAS  C:\Users\Svilen\AppData\Local\Temp\ccFr0ira.s 			page 164


 7656 12a8 04       		.uleb128 0x4
 7657 12a9 56       		.byte	0x56
 7658 12aa 93       		.byte	0x93
 7659 12ab 04       		.uleb128 0x4
 7660 12ac F6000000 		.4byte	.LVL323
 7661 12b0 56010000 		.4byte	.LVL333
 7662 12b4 0600     		.2byte	0x6
 7663 12b6 56       		.byte	0x56
 7664 12b7 93       		.byte	0x93
 7665 12b8 04       		.uleb128 0x4
 7666 12b9 57       		.byte	0x57
 7667 12ba 93       		.byte	0x93
 7668 12bb 04       		.uleb128 0x4
 7669 12bc 5A010000 		.4byte	.LVL334
 7670 12c0 5C010000 		.4byte	.LVL335
 7671 12c4 0600     		.2byte	0x6
 7672 12c6 53       		.byte	0x53
 7673 12c7 93       		.byte	0x93
 7674 12c8 04       		.uleb128 0x4
 7675 12c9 56       		.byte	0x56
 7676 12ca 93       		.byte	0x93
 7677 12cb 04       		.uleb128 0x4
 7678 12cc 00000000 		.4byte	0
 7679 12d0 00000000 		.4byte	0
 7680              	.LLST69:
 7681 12d4 00000000 		.4byte	.LVL336
 7682 12d8 3C000000 		.4byte	.LVL338
 7683 12dc 0100     		.2byte	0x1
 7684 12de 50       		.byte	0x50
 7685 12df 3C000000 		.4byte	.LVL338
 7686 12e3 44000000 		.4byte	.LFE28
 7687 12e7 0400     		.2byte	0x4
 7688 12e9 F3       		.byte	0xf3
 7689 12ea 01       		.uleb128 0x1
 7690 12eb 50       		.byte	0x50
 7691 12ec 9F       		.byte	0x9f
 7692 12ed 00000000 		.4byte	0
 7693 12f1 00000000 		.4byte	0
 7694              	.LLST70:
 7695 12f5 00000000 		.4byte	.LVL339
 7696 12f9 30000000 		.4byte	.LVL342
 7697 12fd 0100     		.2byte	0x1
 7698 12ff 50       		.byte	0x50
 7699 1300 30000000 		.4byte	.LVL342
 7700 1304 5A000000 		.4byte	.LVL349
 7701 1308 0100     		.2byte	0x1
 7702 130a 56       		.byte	0x56
 7703 130b 5A000000 		.4byte	.LVL349
 7704 130f 5C000000 		.4byte	.LVL350
 7705 1313 0100     		.2byte	0x1
 7706 1315 50       		.byte	0x50
 7707 1316 5C000000 		.4byte	.LVL350
 7708 131a 68000000 		.4byte	.LFE22
 7709 131e 0400     		.2byte	0x4
 7710 1320 F3       		.byte	0xf3
 7711 1321 01       		.uleb128 0x1
 7712 1322 50       		.byte	0x50
ARM GAS  C:\Users\Svilen\AppData\Local\Temp\ccFr0ira.s 			page 165


 7713 1323 9F       		.byte	0x9f
 7714 1324 00000000 		.4byte	0
 7715 1328 00000000 		.4byte	0
 7716              	.LLST71:
 7717 132c 00000000 		.4byte	.LVL339
 7718 1330 1C000000 		.4byte	.LVL341
 7719 1334 0100     		.2byte	0x1
 7720 1336 51       		.byte	0x51
 7721 1337 1C000000 		.4byte	.LVL341
 7722 133b 5A000000 		.4byte	.LVL349
 7723 133f 0100     		.2byte	0x1
 7724 1341 55       		.byte	0x55
 7725 1342 5A000000 		.4byte	.LVL349
 7726 1346 5C000000 		.4byte	.LVL350
 7727 134a 0100     		.2byte	0x1
 7728 134c 51       		.byte	0x51
 7729 134d 5C000000 		.4byte	.LVL350
 7730 1351 68000000 		.4byte	.LFE22
 7731 1355 0400     		.2byte	0x4
 7732 1357 F3       		.byte	0xf3
 7733 1358 01       		.uleb128 0x1
 7734 1359 51       		.byte	0x51
 7735 135a 9F       		.byte	0x9f
 7736 135b 00000000 		.4byte	0
 7737 135f 00000000 		.4byte	0
 7738              	.LLST72:
 7739 1363 04000000 		.4byte	.LVL340
 7740 1367 38000000 		.4byte	.LVL344
 7741 136b 0300     		.2byte	0x3
 7742 136d 09       		.byte	0x9
 7743 136e FF       		.byte	0xff
 7744 136f 9F       		.byte	0x9f
 7745 1370 38000000 		.4byte	.LVL344
 7746 1374 58000000 		.4byte	.LVL348
 7747 1378 0100     		.2byte	0x1
 7748 137a 54       		.byte	0x54
 7749 137b 58000000 		.4byte	.LVL348
 7750 137f 5A000000 		.4byte	.LVL349
 7751 1383 0100     		.2byte	0x1
 7752 1385 50       		.byte	0x50
 7753 1386 5A000000 		.4byte	.LVL349
 7754 138a 5C000000 		.4byte	.LVL350
 7755 138e 0300     		.2byte	0x3
 7756 1390 09       		.byte	0x9
 7757 1391 FF       		.byte	0xff
 7758 1392 9F       		.byte	0x9f
 7759 1393 5C000000 		.4byte	.LVL350
 7760 1397 68000000 		.4byte	.LFE22
 7761 139b 0100     		.2byte	0x1
 7762 139d 50       		.byte	0x50
 7763 139e 00000000 		.4byte	0
 7764 13a2 00000000 		.4byte	0
 7765              		.section	.debug_aranges,"",%progbits
 7766 0000 FC000000 		.4byte	0xfc
 7767 0004 0200     		.2byte	0x2
 7768 0006 00000000 		.4byte	.Ldebug_info0
 7769 000a 04       		.byte	0x4
ARM GAS  C:\Users\Svilen\AppData\Local\Temp\ccFr0ira.s 			page 166


 7770 000b 00       		.byte	0
 7771 000c 0000     		.2byte	0
 7772 000e 0000     		.2byte	0
 7773 0010 00000000 		.4byte	.LFB1
 7774 0014 48000000 		.4byte	.LFE1-.LFB1
 7775 0018 00000000 		.4byte	.LFB2
 7776 001c 38000000 		.4byte	.LFE2-.LFB2
 7777 0020 00000000 		.4byte	.LFB3
 7778 0024 48000000 		.4byte	.LFE3-.LFB3
 7779 0028 00000000 		.4byte	.LFB4
 7780 002c BC000000 		.4byte	.LFE4-.LFB4
 7781 0030 00000000 		.4byte	.LFB5
 7782 0034 68000000 		.4byte	.LFE5-.LFB5
 7783 0038 00000000 		.4byte	.LFB6
 7784 003c 40000000 		.4byte	.LFE6-.LFB6
 7785 0040 00000000 		.4byte	.LFB7
 7786 0044 F4000000 		.4byte	.LFE7-.LFB7
 7787 0048 00000000 		.4byte	.LFB0
 7788 004c 6C000000 		.4byte	.LFE0-.LFB0
 7789 0050 00000000 		.4byte	.LFB8
 7790 0054 40000000 		.4byte	.LFE8-.LFB8
 7791 0058 00000000 		.4byte	.LFB9
 7792 005c 5C000000 		.4byte	.LFE9-.LFB9
 7793 0060 00000000 		.4byte	.LFB10
 7794 0064 40000000 		.4byte	.LFE10-.LFB10
 7795 0068 00000000 		.4byte	.LFB11
 7796 006c 60000000 		.4byte	.LFE11-.LFB11
 7797 0070 00000000 		.4byte	.LFB12
 7798 0074 3C000000 		.4byte	.LFE12-.LFB12
 7799 0078 00000000 		.4byte	.LFB13
 7800 007c 44000000 		.4byte	.LFE13-.LFB13
 7801 0080 00000000 		.4byte	.LFB14
 7802 0084 30000000 		.4byte	.LFE14-.LFB14
 7803 0088 00000000 		.4byte	.LFB15
 7804 008c 3C000000 		.4byte	.LFE15-.LFB15
 7805 0090 00000000 		.4byte	.LFB16
 7806 0094 5C000000 		.4byte	.LFE16-.LFB16
 7807 0098 00000000 		.4byte	.LFB17
 7808 009c 3C000000 		.4byte	.LFE17-.LFB17
 7809 00a0 00000000 		.4byte	.LFB18
 7810 00a4 60000000 		.4byte	.LFE18-.LFB18
 7811 00a8 00000000 		.4byte	.LFB19
 7812 00ac 38000000 		.4byte	.LFE19-.LFB19
 7813 00b0 00000000 		.4byte	.LFB20
 7814 00b4 58000000 		.4byte	.LFE20-.LFB20
 7815 00b8 00000000 		.4byte	.LFB21
 7816 00bc C4000000 		.4byte	.LFE21-.LFB21
 7817 00c0 00000000 		.4byte	.LFB23
 7818 00c4 24000000 		.4byte	.LFE23-.LFB23
 7819 00c8 00000000 		.4byte	.LFB24
 7820 00cc 24000000 		.4byte	.LFE24-.LFB24
 7821 00d0 00000000 		.4byte	.LFB25
 7822 00d4 E0000000 		.4byte	.LFE25-.LFB25
 7823 00d8 00000000 		.4byte	.LFB26
 7824 00dc 20020000 		.4byte	.LFE26-.LFB26
 7825 00e0 00000000 		.4byte	.LFB27
 7826 00e4 74010000 		.4byte	.LFE27-.LFB27
ARM GAS  C:\Users\Svilen\AppData\Local\Temp\ccFr0ira.s 			page 167


 7827 00e8 00000000 		.4byte	.LFB28
 7828 00ec 44000000 		.4byte	.LFE28-.LFB28
 7829 00f0 00000000 		.4byte	.LFB22
 7830 00f4 68000000 		.4byte	.LFE22-.LFB22
 7831 00f8 00000000 		.4byte	0
 7832 00fc 00000000 		.4byte	0
 7833              		.section	.debug_ranges,"",%progbits
 7834              	.Ldebug_ranges0:
 7835 0000 00000000 		.4byte	.LFB1
 7836 0004 48000000 		.4byte	.LFE1
 7837 0008 00000000 		.4byte	.LFB2
 7838 000c 38000000 		.4byte	.LFE2
 7839 0010 00000000 		.4byte	.LFB3
 7840 0014 48000000 		.4byte	.LFE3
 7841 0018 00000000 		.4byte	.LFB4
 7842 001c BC000000 		.4byte	.LFE4
 7843 0020 00000000 		.4byte	.LFB5
 7844 0024 68000000 		.4byte	.LFE5
 7845 0028 00000000 		.4byte	.LFB6
 7846 002c 40000000 		.4byte	.LFE6
 7847 0030 00000000 		.4byte	.LFB7
 7848 0034 F4000000 		.4byte	.LFE7
 7849 0038 00000000 		.4byte	.LFB0
 7850 003c 6C000000 		.4byte	.LFE0
 7851 0040 00000000 		.4byte	.LFB8
 7852 0044 40000000 		.4byte	.LFE8
 7853 0048 00000000 		.4byte	.LFB9
 7854 004c 5C000000 		.4byte	.LFE9
 7855 0050 00000000 		.4byte	.LFB10
 7856 0054 40000000 		.4byte	.LFE10
 7857 0058 00000000 		.4byte	.LFB11
 7858 005c 60000000 		.4byte	.LFE11
 7859 0060 00000000 		.4byte	.LFB12
 7860 0064 3C000000 		.4byte	.LFE12
 7861 0068 00000000 		.4byte	.LFB13
 7862 006c 44000000 		.4byte	.LFE13
 7863 0070 00000000 		.4byte	.LFB14
 7864 0074 30000000 		.4byte	.LFE14
 7865 0078 00000000 		.4byte	.LFB15
 7866 007c 3C000000 		.4byte	.LFE15
 7867 0080 00000000 		.4byte	.LFB16
 7868 0084 5C000000 		.4byte	.LFE16
 7869 0088 00000000 		.4byte	.LFB17
 7870 008c 3C000000 		.4byte	.LFE17
 7871 0090 00000000 		.4byte	.LFB18
 7872 0094 60000000 		.4byte	.LFE18
 7873 0098 00000000 		.4byte	.LFB19
 7874 009c 38000000 		.4byte	.LFE19
 7875 00a0 00000000 		.4byte	.LFB20
 7876 00a4 58000000 		.4byte	.LFE20
 7877 00a8 00000000 		.4byte	.LFB21
 7878 00ac C4000000 		.4byte	.LFE21
 7879 00b0 00000000 		.4byte	.LFB23
 7880 00b4 24000000 		.4byte	.LFE23
 7881 00b8 00000000 		.4byte	.LFB24
 7882 00bc 24000000 		.4byte	.LFE24
 7883 00c0 00000000 		.4byte	.LFB25
ARM GAS  C:\Users\Svilen\AppData\Local\Temp\ccFr0ira.s 			page 168


 7884 00c4 E0000000 		.4byte	.LFE25
 7885 00c8 00000000 		.4byte	.LFB26
 7886 00cc 20020000 		.4byte	.LFE26
 7887 00d0 00000000 		.4byte	.LFB27
 7888 00d4 74010000 		.4byte	.LFE27
 7889 00d8 00000000 		.4byte	.LFB28
 7890 00dc 44000000 		.4byte	.LFE28
 7891 00e0 00000000 		.4byte	.LFB22
 7892 00e4 68000000 		.4byte	.LFE22
 7893 00e8 00000000 		.4byte	0
 7894 00ec 00000000 		.4byte	0
 7895              		.section	.debug_line,"",%progbits
 7896              	.Ldebug_line0:
 7897 0000 2F040000 		.section	.debug_str,"MS",%progbits,1
 7897      02002F00 
 7897      00000201 
 7897      FB0E0D00 
 7897      01010101 
 7898              	.LASF29:
 7899 0000 6275735F 		.ascii	"bus_read\000"
 7899      72656164 
 7899      00
 7900              	.LASF49:
 7901 0009 626D7032 		.ascii	"bmp280_init\000"
 7901      38305F69 
 7901      6E697400 
 7902              	.LASF70:
 7903 0015 626D7032 		.ascii	"bmp280_set_standby_durn\000"
 7903      38305F73 
 7903      65745F73 
 7903      74616E64 
 7903      62795F64 
 7904              	.LASF85:
 7905 002d 765F6465 		.ascii	"v_delaytime_u8r\000"
 7905      6C617974 
 7905      696D655F 
 7905      75387200 
 7906              	.LASF69:
 7907 003d 765F7374 		.ascii	"v_standby_durn_u8\000"
 7907      616E6462 
 7907      795F6475 
 7907      726E5F75 
 7907      3800
 7908              	.LASF21:
 7909 004f 626D7032 		.ascii	"bmp280_calib_param_t\000"
 7909      38305F63 
 7909      616C6962 
 7909      5F706172 
 7909      616D5F74 
 7910              	.LASF28:
 7911 0064 6275735F 		.ascii	"bus_write\000"
 7911      77726974 
 7911      6500
 7912              	.LASF60:
 7913 006e 765F6D6F 		.ascii	"v_mode_u8\000"
 7913      64655F75 
 7913      3800
ARM GAS  C:\Users\Svilen\AppData\Local\Temp\ccFr0ira.s 			page 169


 7914              	.LASF86:
 7915 0078 626D7032 		.ascii	"bmp280_get_forced_uncomp_pressure_temperature\000"
 7915      38305F67 
 7915      65745F66 
 7915      6F726365 
 7915      645F756E 
 7916              	.LASF1:
 7917 00a6 73686F72 		.ascii	"short int\000"
 7917      7420696E 
 7917      7400
 7918              	.LASF33:
 7919 00b0 73697A65 		.ascii	"sizetype\000"
 7919      74797065 
 7919      00
 7920              	.LASF42:
 7921 00b9 615F6461 		.ascii	"a_data_u8\000"
 7921      74615F75 
 7921      3800
 7922              	.LASF87:
 7923 00c3 765F7761 		.ascii	"v_waittime_u8\000"
 7923      69747469 
 7923      6D655F75 
 7923      3800
 7924              	.LASF53:
 7925 00d1 626D7032 		.ascii	"bmp280_get_oversamp_temperature\000"
 7925      38305F67 
 7925      65745F6F 
 7925      76657273 
 7925      616D705F 
 7926              	.LASF77:
 7927 00f1 626D7032 		.ascii	"bmp280_compensate_temperature_double\000"
 7927      38305F63 
 7927      6F6D7065 
 7927      6E736174 
 7927      655F7465 
 7928              	.LASF83:
 7929 0116 765F7832 		.ascii	"v_x2_s64r\000"
 7929      5F733634 
 7929      7200
 7930              	.LASF65:
 7931 0120 626D7032 		.ascii	"bmp280_set_spi3\000"
 7931      38305F73 
 7931      65745F73 
 7931      70693300 
 7932              	.LASF62:
 7933 0130 626D7032 		.ascii	"bmp280_set_soft_rst\000"
 7933      38305F73 
 7933      65745F73 
 7933      6F66745F 
 7933      72737400 
 7934              	.LASF27:
 7935 0144 6F766572 		.ascii	"oversamp_pressure\000"
 7935      73616D70 
 7935      5F707265 
 7935      73737572 
 7935      6500
 7936              	.LASF50:
ARM GAS  C:\Users\Svilen\AppData\Local\Temp\ccFr0ira.s 			page 170


 7937 0156 626D7032 		.ascii	"bmp280\000"
 7937      383000
 7938              	.LASF80:
 7939 015d 70726573 		.ascii	"pressure\000"
 7939      73757265 
 7939      00
 7940              	.LASF81:
 7941 0166 626D7032 		.ascii	"bmp280_compensate_pressure_int64\000"
 7941      38305F63 
 7941      6F6D7065 
 7941      6E736174 
 7941      655F7072 
 7942              	.LASF47:
 7943 0187 765F7465 		.ascii	"v_temperature_s32\000"
 7943      6D706572 
 7943      61747572 
 7943      655F7333 
 7943      3200
 7944              	.LASF37:
 7945 0199 765F7831 		.ascii	"v_x1_u32r\000"
 7945      5F753332 
 7945      7200
 7946              	.LASF67:
 7947 01a3 626D7032 		.ascii	"bmp280_set_filter\000"
 7947      38305F73 
 7947      65745F66 
 7947      696C7465 
 7947      7200
 7948              	.LASF44:
 7949 01b5 765F7072 		.ascii	"v_pressure_u32\000"
 7949      65737375 
 7949      72655F75 
 7949      333200
 7950              	.LASF3:
 7951 01c4 6C6F6E67 		.ascii	"long long int\000"
 7951      206C6F6E 
 7951      6720696E 
 7951      7400
 7952              	.LASF40:
 7953 01d2 626D7032 		.ascii	"bmp280_read_uncomp_pressure\000"
 7953      38305F72 
 7953      6561645F 
 7953      756E636F 
 7953      6D705F70 
 7954              	.LASF2:
 7955 01ee 6C6F6E67 		.ascii	"long int\000"
 7955      20696E74 
 7955      00
 7956              	.LASF20:
 7957 01f7 745F6669 		.ascii	"t_fine\000"
 7957      6E6500
 7958              	.LASF63:
 7959 01fe 626D7032 		.ascii	"bmp280_get_spi3\000"
 7959      38305F67 
 7959      65745F73 
 7959      70693300 
 7960              	.LASF39:
ARM GAS  C:\Users\Svilen\AppData\Local\Temp\ccFr0ira.s 			page 171


 7961 020e 74656D70 		.ascii	"temperature\000"
 7961      65726174 
 7961      75726500 
 7962              	.LASF64:
 7963 021a 765F656E 		.ascii	"v_enable_disable_u8\000"
 7963      61626C65 
 7963      5F646973 
 7963      61626C65 
 7963      5F753800 
 7964              	.LASF55:
 7965 022e 626D7032 		.ascii	"bmp280_set_oversamp_temperature\000"
 7965      38305F73 
 7965      65745F6F 
 7965      76657273 
 7965      616D705F 
 7966              	.LASF91:
 7967 024e 433A5C77 		.ascii	"C:\\work\\PSoC4\\WeatherStation\\WeatherStation\\We"
 7967      6F726B5C 
 7967      50536F43 
 7967      345C5765 
 7967      61746865 
 7968 027c 61746865 		.ascii	"atherStation.cydsn\000"
 7968      72537461 
 7968      74696F6E 
 7968      2E637964 
 7968      736E00
 7969              	.LASF89:
 7970 028f 474E5520 		.ascii	"GNU C 4.9.3 20150303 (release) [ARM/embedded-4_9-br"
 7970      4320342E 
 7970      392E3320 
 7970      32303135 
 7970      30333033 
 7971 02c2 616E6368 		.ascii	"anch revision 221220] -mcpu=cortex-m0 -mthumb -g -O"
 7971      20726576 
 7971      6973696F 
 7971      6E203232 
 7971      31323230 
 7972 02f5 67202D66 		.ascii	"g -ffunction-sections -ffat-lto-objects\000"
 7972      66756E63 
 7972      74696F6E 
 7972      2D736563 
 7972      74696F6E 
 7973              	.LASF43:
 7974 031d 626D7032 		.ascii	"bmp280_compensate_pressure_int32\000"
 7974      38305F63 
 7974      6F6D7065 
 7974      6E736174 
 7974      655F7072 
 7975              	.LASF72:
 7976 033e 765F776F 		.ascii	"v_work_mode_u8\000"
 7976      726B5F6D 
 7976      6F64655F 
 7976      753800
 7977              	.LASF26:
 7978 034d 6F766572 		.ascii	"oversamp_temperature\000"
 7978      73616D70 
 7978      5F74656D 
ARM GAS  C:\Users\Svilen\AppData\Local\Temp\ccFr0ira.s 			page 172


 7978      70657261 
 7978      74757265 
 7979              	.LASF4:
 7980 0362 756E7369 		.ascii	"unsigned char\000"
 7980      676E6564 
 7980      20636861 
 7980      7200
 7981              	.LASF34:
 7982 0370 626D7032 		.ascii	"bmp280_read_uncomp_temperature\000"
 7982      38305F72 
 7982      6561645F 
 7982      756E636F 
 7982      6D705F74 
 7983              	.LASF73:
 7984 038f 626D7032 		.ascii	"bmp280_write_register\000"
 7984      38305F77 
 7984      72697465 
 7984      5F726567 
 7984      69737465 
 7985              	.LASF31:
 7986 03a5 636F6D5F 		.ascii	"com_rslt\000"
 7986      72736C74 
 7986      00
 7987              	.LASF0:
 7988 03ae 7369676E 		.ascii	"signed char\000"
 7988      65642063 
 7988      68617200 
 7989              	.LASF7:
 7990 03ba 6C6F6E67 		.ascii	"long long unsigned int\000"
 7990      206C6F6E 
 7990      6720756E 
 7990      7369676E 
 7990      65642069 
 7991              	.LASF48:
 7992 03d1 626D7032 		.ascii	"bmp280_get_calib_param\000"
 7992      38305F67 
 7992      65745F63 
 7992      616C6962 
 7992      5F706172 
 7993              	.LASF22:
 7994 03e8 626D7032 		.ascii	"bmp280_t\000"
 7994      38305F74 
 7994      00
 7995              	.LASF30:
 7996 03f1 64656C61 		.ascii	"delay_msec\000"
 7996      795F6D73 
 7996      656300
 7997              	.LASF35:
 7998 03fc 626D7032 		.ascii	"bmp280_compensate_temperature_int32\000"
 7998      38305F63 
 7998      6F6D7065 
 7998      6E736174 
 7998      655F7465 
 7999              	.LASF25:
 8000 0420 6465765F 		.ascii	"dev_addr\000"
 8000      61646472 
 8000      00
ARM GAS  C:\Users\Svilen\AppData\Local\Temp\ccFr0ira.s 			page 173


 8001              	.LASF23:
 8002 0429 63616C69 		.ascii	"calib_param\000"
 8002      625F7061 
 8002      72616D00 
 8003              	.LASF45:
 8004 0435 626D7032 		.ascii	"bmp280_read_uncomp_pressure_temperature\000"
 8004      38305F72 
 8004      6561645F 
 8004      756E636F 
 8004      6D705F70 
 8005              	.LASF58:
 8006 045d 626D7032 		.ascii	"bmp280_get_power_mode\000"
 8006      38305F67 
 8006      65745F70 
 8006      6F776572 
 8006      5F6D6F64 
 8007              	.LASF52:
 8008 0473 765F6368 		.ascii	"v_chip_id_read_count\000"
 8008      69705F69 
 8008      645F7265 
 8008      61645F63 
 8008      6F756E74 
 8009              	.LASF5:
 8010 0488 73686F72 		.ascii	"short unsigned int\000"
 8010      7420756E 
 8010      7369676E 
 8010      65642069 
 8010      6E7400
 8011              	.LASF10:
 8012 049b 6469675F 		.ascii	"dig_T3\000"
 8012      543300
 8013              	.LASF36:
 8014 04a2 765F756E 		.ascii	"v_uncomp_temperature_s32\000"
 8014      636F6D70 
 8014      5F74656D 
 8014      70657261 
 8014      74757265 
 8015              	.LASF82:
 8016 04bb 765F7831 		.ascii	"v_x1_s64r\000"
 8016      5F733634 
 8016      7200
 8017              	.LASF88:
 8018 04c5 705F626D 		.ascii	"p_bmp280\000"
 8018      70323830 
 8018      00
 8019              	.LASF46:
 8020 04ce 626D7032 		.ascii	"bmp280_read_pressure_temperature\000"
 8020      38305F72 
 8020      6561645F 
 8020      70726573 
 8020      73757265 
 8021              	.LASF54:
 8022 04ef 765F7661 		.ascii	"v_value_u8\000"
 8022      6C75655F 
 8022      753800
 8023              	.LASF79:
 8024 04fa 626D7032 		.ascii	"bmp280_compensate_pressure_double\000"
ARM GAS  C:\Users\Svilen\AppData\Local\Temp\ccFr0ira.s 			page 174


 8024      38305F63 
 8024      6F6D7065 
 8024      6E736174 
 8024      655F7072 
 8025              	.LASF57:
 8026 051c 626D7032 		.ascii	"bmp280_set_oversamp_pressure\000"
 8026      38305F73 
 8026      65745F6F 
 8026      76657273 
 8026      616D705F 
 8027              	.LASF74:
 8028 0539 765F6164 		.ascii	"v_addr_u8\000"
 8028      64725F75 
 8028      3800
 8029              	.LASF11:
 8030 0543 6469675F 		.ascii	"dig_P1\000"
 8030      503100
 8031              	.LASF12:
 8032 054a 6469675F 		.ascii	"dig_P2\000"
 8032      503200
 8033              	.LASF13:
 8034 0551 6469675F 		.ascii	"dig_P3\000"
 8034      503300
 8035              	.LASF14:
 8036 0558 6469675F 		.ascii	"dig_P4\000"
 8036      503400
 8037              	.LASF15:
 8038 055f 6469675F 		.ascii	"dig_P5\000"
 8038      503500
 8039              	.LASF16:
 8040 0566 6469675F 		.ascii	"dig_P6\000"
 8040      503600
 8041              	.LASF17:
 8042 056d 6469675F 		.ascii	"dig_P7\000"
 8042      503700
 8043              	.LASF18:
 8044 0574 6469675F 		.ascii	"dig_P8\000"
 8044      503800
 8045              	.LASF19:
 8046 057b 6469675F 		.ascii	"dig_P9\000"
 8046      503900
 8047              	.LASF90:
 8048 0582 2E5C626D 		.ascii	".\\bmp280.c\000"
 8048      70323830 
 8048      2E6300
 8049              	.LASF6:
 8050 058d 6C6F6E67 		.ascii	"long unsigned int\000"
 8050      20756E73 
 8050      69676E65 
 8050      6420696E 
 8050      7400
 8051              	.LASF78:
 8052 059f 646F7562 		.ascii	"double\000"
 8052      6C6500
 8053              	.LASF8:
 8054 05a6 6469675F 		.ascii	"dig_T1\000"
 8054      543100
ARM GAS  C:\Users\Svilen\AppData\Local\Temp\ccFr0ira.s 			page 175


 8055              	.LASF9:
 8056 05ad 6469675F 		.ascii	"dig_T2\000"
 8056      543200
 8057              	.LASF38:
 8058 05b4 765F7832 		.ascii	"v_x2_u32r\000"
 8058      5F753332 
 8058      7200
 8059              	.LASF24:
 8060 05be 63686970 		.ascii	"chip_id\000"
 8060      5F696400 
 8061              	.LASF32:
 8062 05c6 615F6461 		.ascii	"a_data_u8r\000"
 8062      74615F75 
 8062      387200
 8063              	.LASF56:
 8064 05d1 626D7032 		.ascii	"bmp280_get_oversamp_pressure\000"
 8064      38305F67 
 8064      65745F6F 
 8064      76657273 
 8064      616D705F 
 8065              	.LASF41:
 8066 05ee 765F756E 		.ascii	"v_uncomp_pressure_s32\000"
 8066      636F6D70 
 8066      5F707265 
 8066      73737572 
 8066      655F7333 
 8067              	.LASF61:
 8068 0604 626D7032 		.ascii	"bmp280_set_power_mode\000"
 8068      38305F73 
 8068      65745F70 
 8068      6F776572 
 8068      5F6D6F64 
 8069              	.LASF51:
 8070 061a 765F6461 		.ascii	"v_data_u8\000"
 8070      74615F75 
 8070      3800
 8071              	.LASF84:
 8072 0624 626D7032 		.ascii	"bmp280_compute_wait_time\000"
 8072      38305F63 
 8072      6F6D7075 
 8072      74655F77 
 8072      6169745F 
 8073              	.LASF59:
 8074 063d 765F706F 		.ascii	"v_power_mode_u8\000"
 8074      7765725F 
 8074      6D6F6465 
 8074      5F753800 
 8075              	.LASF75:
 8076 064d 765F6C65 		.ascii	"v_len_u8\000"
 8076      6E5F7538 
 8076      00
 8077              	.LASF68:
 8078 0656 626D7032 		.ascii	"bmp280_get_standby_durn\000"
 8078      38305F67 
 8078      65745F73 
 8078      74616E64 
 8078      62795F64 
ARM GAS  C:\Users\Svilen\AppData\Local\Temp\ccFr0ira.s 			page 176


 8079              	.LASF71:
 8080 066e 626D7032 		.ascii	"bmp280_set_work_mode\000"
 8080      38305F73 
 8080      65745F77 
 8080      6F726B5F 
 8080      6D6F6465 
 8081              	.LASF76:
 8082 0683 626D7032 		.ascii	"bmp280_read_register\000"
 8082      38305F72 
 8082      6561645F 
 8082      72656769 
 8082      73746572 
 8083              	.LASF66:
 8084 0698 626D7032 		.ascii	"bmp280_get_filter\000"
 8084      38305F67 
 8084      65745F66 
 8084      696C7465 
 8084      7200
 8085              		.ident	"GCC: (GNU Tools for ARM Embedded Processors) 4.9.3 20150303 (release) [ARM/embedded-4_9-br
