ARM GAS  C:\Users\Svilen\AppData\Local\Temp\ccFr0ira.s 			page 1


   1              		.cpu cortex-m0
   2              		.fpu softvfp
   3              		.eabi_attribute 20, 1
   4              		.eabi_attribute 21, 1
   5              		.eabi_attribute 23, 3
   6              		.eabi_attribute 24, 1
   7              		.eabi_attribute 25, 1
   8              		.eabi_attribute 26, 1
   9              		.eabi_attribute 30, 1
  10              		.eabi_attribute 34, 0
  11              		.eabi_attribute 18, 4
  12              		.code	16
  13              		.file	"bmp280.c"
  14              		.text
  15              	.Ltext0:
  16              		.cfi_sections	.debug_frame
  17              		.section	.text.bmp280_read_uncomp_temperature,"ax",%progbits
  18              		.align	2
  19              		.global	bmp280_read_uncomp_temperature
  20              		.code	16
  21              		.thumb_func
  22              		.type	bmp280_read_uncomp_temperature, %function
  23              	bmp280_read_uncomp_temperature:
  24              	.LFB1:
  25              		.file 1 ".\\bmp280.c"
   1:.\bmp280.c    **** /*
   2:.\bmp280.c    ****  ****************************************************************************
   3:.\bmp280.c    ****  * Copyright (C) 2015 - 2016 Bosch Sensortec GmbH
   4:.\bmp280.c    ****  *
   5:.\bmp280.c    ****  * File : bmp280.c
   6:.\bmp280.c    ****  *
   7:.\bmp280.c    ****  * Date : 2016/07/01
   8:.\bmp280.c    ****  *
   9:.\bmp280.c    ****  * Revision : 2.0.5(Pressure and Temperature compensation code revision is 1.1)
  10:.\bmp280.c    ****  *
  11:.\bmp280.c    ****  * Usage: Sensor Driver for BMP280 sensor
  12:.\bmp280.c    ****  *
  13:.\bmp280.c    ****  ****************************************************************************
  14:.\bmp280.c    **** *
  15:.\bmp280.c    **** * \section License
  16:.\bmp280.c    **** *
  17:.\bmp280.c    **** * Redistribution and use in source and binary forms, with or without
  18:.\bmp280.c    **** * modification, are permitted provided that the following conditions are met:
  19:.\bmp280.c    **** *
  20:.\bmp280.c    **** *   Redistributions of source code must retain the above copyright
  21:.\bmp280.c    **** *   notice, this list of conditions and the following disclaimer.
  22:.\bmp280.c    **** *
  23:.\bmp280.c    **** *   Redistributions in binary form must reproduce the above copyright
  24:.\bmp280.c    **** *   notice, this list of conditions and the following disclaimer in the
  25:.\bmp280.c    **** *   documentation and/or other materials provided with the distribution.
  26:.\bmp280.c    **** *
  27:.\bmp280.c    **** *   Neither the name of the copyright holder nor the names of the
  28:.\bmp280.c    **** *   contributors may be used to endorse or promote products derived from
  29:.\bmp280.c    **** *   this software without specific prior written permission.
  30:.\bmp280.c    **** *
  31:.\bmp280.c    **** * THIS SOFTWARE IS PROVIDED BY THE COPYRIGHT HOLDERS AND
  32:.\bmp280.c    **** * CONTRIBUTORS "AS IS" AND ANY EXPRESS OR
ARM GAS  C:\Users\Svilen\AppData\Local\Temp\ccFr0ira.s 			page 2


  33:.\bmp280.c    **** * IMPLIED WARRANTIES, INCLUDING, BUT NOT LIMITED TO, THE IMPLIED
  34:.\bmp280.c    **** * WARRANTIES OF MERCHANTABILITY AND FITNESS FOR A PARTICULAR PURPOSE ARE
  35:.\bmp280.c    **** * DISCLAIMED. IN NO EVENT SHALL COPYRIGHT HOLDER
  36:.\bmp280.c    **** * OR CONTRIBUTORS BE LIABLE FOR ANY
  37:.\bmp280.c    **** * DIRECT, INDIRECT, INCIDENTAL, SPECIAL, EXEMPLARY,
  38:.\bmp280.c    **** * OR CONSEQUENTIAL DAMAGES(INCLUDING, BUT NOT LIMITED TO,
  39:.\bmp280.c    **** * PROCUREMENT OF SUBSTITUTE GOODS OR SERVICES;
  40:.\bmp280.c    **** * LOSS OF USE, DATA, OR PROFITS; OR BUSINESS INTERRUPTION)
  41:.\bmp280.c    **** * HOWEVER CAUSED AND ON ANY THEORY OF LIABILITY,
  42:.\bmp280.c    **** * WHETHER IN CONTRACT, STRICT LIABILITY, OR TORT
  43:.\bmp280.c    **** * (INCLUDING NEGLIGENCE OR OTHERWISE) ARISING IN
  44:.\bmp280.c    **** * ANY WAY OUT OF THE USE OF THIS
  45:.\bmp280.c    **** * SOFTWARE, EVEN IF ADVISED OF THE POSSIBILITY OF SUCH DAMAGE
  46:.\bmp280.c    **** *
  47:.\bmp280.c    **** * The information provided is believed to be accurate and reliable.
  48:.\bmp280.c    **** * The copyright holder assumes no responsibility
  49:.\bmp280.c    **** * for the consequences of use
  50:.\bmp280.c    **** * of such information nor for any infringement of patents or
  51:.\bmp280.c    **** * other rights of third parties which may result from its use.
  52:.\bmp280.c    **** * No license is granted by implication or otherwise under any patent or
  53:.\bmp280.c    **** * patent rights of the copyright holder.
  54:.\bmp280.c    **** **************************************************************************/
  55:.\bmp280.c    **** #include "bmp280.h"
  56:.\bmp280.c    **** static struct bmp280_t *p_bmp280; /**< pointer to BMP280 */
  57:.\bmp280.c    **** 
  58:.\bmp280.c    **** /*!
  59:.\bmp280.c    ****  *	@brief This function is used for initialize
  60:.\bmp280.c    ****  *	the bus read and bus write functions
  61:.\bmp280.c    ****  *  and assign the chip id and I2C address of the BMP280 sensor
  62:.\bmp280.c    ****  *	chip id is read in the register 0xD0 bit from 0 to 7
  63:.\bmp280.c    ****  *
  64:.\bmp280.c    ****  *	@param *bmp280 structure pointer.
  65:.\bmp280.c    ****  *
  66:.\bmp280.c    ****  *	@note While changing the parameter of the p_bmp280
  67:.\bmp280.c    ****  *	@note consider the following point:
  68:.\bmp280.c    ****  *	Changing the reference value of the parameter
  69:.\bmp280.c    ****  *	will changes the local copy or local reference
  70:.\bmp280.c    ****  *	make sure your changes will not
  71:.\bmp280.c    ****  *	affect the reference value of the parameter
  72:.\bmp280.c    ****  *	(Better case don't change the reference value of the parameter)
  73:.\bmp280.c    ****  *
  74:.\bmp280.c    ****  *
  75:.\bmp280.c    ****  *
  76:.\bmp280.c    ****  *
  77:.\bmp280.c    ****  *	@return results of bus communication function
  78:.\bmp280.c    ****  *	@retval 0 -> Success
  79:.\bmp280.c    ****  *	@retval -1 -> Error
  80:.\bmp280.c    ****  *
  81:.\bmp280.c    ****  *
  82:.\bmp280.c    ****  */
  83:.\bmp280.c    **** BMP280_RETURN_FUNCTION_TYPE bmp280_init(struct bmp280_t *bmp280)
  84:.\bmp280.c    **** {
  85:.\bmp280.c    **** 	/* variable used to return communication result*/
  86:.\bmp280.c    **** 	BMP280_RETURN_FUNCTION_TYPE com_rslt = ERROR;
  87:.\bmp280.c    **** 	u8 v_data_u8 = BMP280_INIT_VALUE;
  88:.\bmp280.c    **** 	u8 v_chip_id_read_count = BMP280_CHIP_ID_READ_COUNT;
  89:.\bmp280.c    **** 
ARM GAS  C:\Users\Svilen\AppData\Local\Temp\ccFr0ira.s 			page 3


  90:.\bmp280.c    **** 	p_bmp280 = bmp280;/* assign BMP280 ptr */
  91:.\bmp280.c    **** 
  92:.\bmp280.c    **** 	while (v_chip_id_read_count > 0) {
  93:.\bmp280.c    **** 		/* read chip id */
  94:.\bmp280.c    **** 		com_rslt = p_bmp280->BMP280_BUS_READ_FUNC(p_bmp280->dev_addr,
  95:.\bmp280.c    **** 				BMP280_CHIP_ID_REG, &v_data_u8,
  96:.\bmp280.c    **** 				BMP280_GEN_READ_WRITE_DATA_LENGTH);
  97:.\bmp280.c    **** 		/* Check for the correct chip id */
  98:.\bmp280.c    **** 		if ((v_data_u8 == BMP280_CHIP_ID1)
  99:.\bmp280.c    **** 			|| (v_data_u8 == BMP280_CHIP_ID2)
 100:.\bmp280.c    **** 			|| (v_data_u8 == BMP280_CHIP_ID3))
 101:.\bmp280.c    **** 			break;
 102:.\bmp280.c    **** 		v_chip_id_read_count--;
 103:.\bmp280.c    **** 		/* Delay added concerning the low speed of power up system to
 104:.\bmp280.c    **** 		facilitate the proper reading of the chip ID */
 105:.\bmp280.c    **** 		p_bmp280->delay_msec(BMP280_REGISTER_READ_DELAY);
 106:.\bmp280.c    **** 	}
 107:.\bmp280.c    **** 
 108:.\bmp280.c    **** 	/*assign chip ID to the global structure*/
 109:.\bmp280.c    **** 	p_bmp280->chip_id = v_data_u8;
 110:.\bmp280.c    **** 	/*com_rslt status of chip ID read*/
 111:.\bmp280.c    **** 	com_rslt = (v_chip_id_read_count == BMP280_INIT_VALUE) ?
 112:.\bmp280.c    **** 			BMP280_CHIP_ID_READ_FAIL : BMP280_CHIP_ID_READ_SUCCESS;
 113:.\bmp280.c    **** 
 114:.\bmp280.c    **** 	if (com_rslt == BMP280_CHIP_ID_READ_SUCCESS) {
 115:.\bmp280.c    **** 		/* readout bmp280 calibration parameter structure */
 116:.\bmp280.c    **** 		com_rslt += bmp280_get_calib_param();
 117:.\bmp280.c    **** 	}
 118:.\bmp280.c    **** 	return com_rslt;
 119:.\bmp280.c    **** }
 120:.\bmp280.c    **** /*!
 121:.\bmp280.c    ****  *	@brief This API is used to read uncompensated temperature
 122:.\bmp280.c    ****  *	in the registers 0xFA, 0xFB and 0xFC
 123:.\bmp280.c    ****  *	@note 0xFA -> MSB -> bit from 0 to 7
 124:.\bmp280.c    ****  *	@note 0xFB -> LSB -> bit from 0 to 7
 125:.\bmp280.c    ****  *	@note 0xFC -> LSB -> bit from 4 to 7
 126:.\bmp280.c    ****  *
 127:.\bmp280.c    ****  *	@param v_uncomp_temperature_s32 : The uncompensated temperature.
 128:.\bmp280.c    ****  *
 129:.\bmp280.c    ****  *
 130:.\bmp280.c    ****  *
 131:.\bmp280.c    ****  *	@return results of bus communication function
 132:.\bmp280.c    ****  *	@retval 0 -> Success
 133:.\bmp280.c    ****  *	@retval -1 -> Error
 134:.\bmp280.c    ****  *
 135:.\bmp280.c    ****  *
 136:.\bmp280.c    ****  */
 137:.\bmp280.c    **** BMP280_RETURN_FUNCTION_TYPE bmp280_read_uncomp_temperature(
 138:.\bmp280.c    **** 		s32 *v_uncomp_temperature_s32)
 139:.\bmp280.c    **** {
  26              		.loc 1 139 0
  27              		.cfi_startproc
  28              	.LVL0:
  29 0000 70B5     		push	{r4, r5, r6, lr}
  30              		.cfi_def_cfa_offset 16
  31              		.cfi_offset 4, -16
  32              		.cfi_offset 5, -12
ARM GAS  C:\Users\Svilen\AppData\Local\Temp\ccFr0ira.s 			page 4


  33              		.cfi_offset 6, -8
  34              		.cfi_offset 14, -4
  35 0002 82B0     		sub	sp, sp, #8
  36              		.cfi_def_cfa_offset 24
  37              	.LVL1:
 140:.\bmp280.c    **** 	/* variable used to return communication result*/
 141:.\bmp280.c    **** 	BMP280_RETURN_FUNCTION_TYPE com_rslt = ERROR;
 142:.\bmp280.c    **** 	/* Array holding the MSB and LSb value
 143:.\bmp280.c    **** 	 a_data_u8r[0] - Temperature MSB
 144:.\bmp280.c    **** 	 a_data_u8r[1] - Temperature LSB
 145:.\bmp280.c    **** 	 a_data_u8r[2] - Temperature LSB
 146:.\bmp280.c    **** 	 */
 147:.\bmp280.c    **** 	u8 a_data_u8r[BMP280_TEMPERATURE_DATA_SIZE] = {BMP280_INIT_VALUE,
  38              		.loc 1 147 0
  39 0004 01AB     		add	r3, sp, #4
  40 0006 0022     		mov	r2, #0
  41 0008 1A70     		strb	r2, [r3]
  42 000a 5A70     		strb	r2, [r3, #1]
  43 000c 9A70     		strb	r2, [r3, #2]
 148:.\bmp280.c    **** 			BMP280_INIT_VALUE, BMP280_INIT_VALUE};
 149:.\bmp280.c    **** 	/* check the p_bmp280 structure pointer as NULL*/
 150:.\bmp280.c    **** 	if (p_bmp280 == BMP280_NULL) {
  44              		.loc 1 150 0
  45 000e 0D4B     		ldr	r3, .L4
  46 0010 1B68     		ldr	r3, [r3]
  47 0012 002B     		cmp	r3, #0
  48 0014 11D0     		beq	.L3
  49 0016 051C     		mov	r5, r0
 151:.\bmp280.c    **** 		com_rslt = E_BMP280_NULL_PTR;
 152:.\bmp280.c    **** 	} else {
 153:.\bmp280.c    **** 		/* read temperature data */
 154:.\bmp280.c    **** 		com_rslt = p_bmp280->BMP280_BUS_READ_FUNC(p_bmp280->dev_addr,
  50              		.loc 1 154 0
  51 0018 5E6A     		ldr	r6, [r3, #36]
  52 001a 587F     		ldrb	r0, [r3, #29]
  53              	.LVL2:
  54 001c 01AC     		add	r4, sp, #4
  55 001e FA21     		mov	r1, #250
  56 0020 221C     		mov	r2, r4
  57 0022 0323     		mov	r3, #3
  58 0024 B047     		blx	r6
  59              	.LVL3:
 155:.\bmp280.c    **** 				BMP280_TEMPERATURE_MSB_REG, a_data_u8r,
 156:.\bmp280.c    **** 				BMP280_TEMPERATURE_DATA_LENGTH);
 157:.\bmp280.c    **** 		*v_uncomp_temperature_s32 = (s32)((((u32)(
 158:.\bmp280.c    **** 				a_data_u8r[BMP280_TEMPERATURE_MSB_DATA]))
  60              		.loc 1 158 0
  61 0026 2378     		ldrb	r3, [r4]
 159:.\bmp280.c    **** 				<< BMP280_SHIFT_BIT_POSITION_BY_12_BITS)
  62              		.loc 1 159 0
  63 0028 1A03     		lsl	r2, r3, #12
 160:.\bmp280.c    **** 				| (((u32)(
 161:.\bmp280.c    **** 				a_data_u8r[BMP280_TEMPERATURE_LSB_DATA]))
  64              		.loc 1 161 0
  65 002a 6378     		ldrb	r3, [r4, #1]
 162:.\bmp280.c    **** 				<< BMP280_SHIFT_BIT_POSITION_BY_04_BITS)
  66              		.loc 1 162 0
ARM GAS  C:\Users\Svilen\AppData\Local\Temp\ccFr0ira.s 			page 5


  67 002c 1B01     		lsl	r3, r3, #4
 160:.\bmp280.c    **** 				| (((u32)(
  68              		.loc 1 160 0
  69 002e 1343     		orr	r3, r2
 163:.\bmp280.c    **** 				| ((u32)a_data_u8r[BMP280_TEMPERATURE_XLSB_DATA]
  70              		.loc 1 163 0
  71 0030 A278     		ldrb	r2, [r4, #2]
 164:.\bmp280.c    **** 				>> BMP280_SHIFT_BIT_POSITION_BY_04_BITS));
  72              		.loc 1 164 0
  73 0032 1209     		lsr	r2, r2, #4
 163:.\bmp280.c    **** 				| ((u32)a_data_u8r[BMP280_TEMPERATURE_XLSB_DATA]
  74              		.loc 1 163 0
  75 0034 1343     		orr	r3, r2
 157:.\bmp280.c    **** 				a_data_u8r[BMP280_TEMPERATURE_MSB_DATA]))
  76              		.loc 1 157 0
  77 0036 2B60     		str	r3, [r5]
  78 0038 00E0     		b	.L2
  79              	.LVL4:
  80              	.L3:
 151:.\bmp280.c    **** 	} else {
  81              		.loc 1 151 0
  82 003a 8120     		mov	r0, #129
  83              	.LVL5:
  84              	.L2:
 165:.\bmp280.c    **** 	}
 166:.\bmp280.c    **** 	return com_rslt;
  85              		.loc 1 166 0
  86 003c 40B2     		sxtb	r0, r0
 167:.\bmp280.c    **** }
  87              		.loc 1 167 0
  88 003e 02B0     		add	sp, sp, #8
  89              		@ sp needed
  90 0040 70BD     		pop	{r4, r5, r6, pc}
  91              	.L5:
  92 0042 C046     		.align	2
  93              	.L4:
  94 0044 00000000 		.word	.LANCHOR0
  95              		.cfi_endproc
  96              	.LFE1:
  97              		.size	bmp280_read_uncomp_temperature, .-bmp280_read_uncomp_temperature
  98              		.section	.text.bmp280_compensate_temperature_int32,"ax",%progbits
  99              		.align	2
 100              		.global	bmp280_compensate_temperature_int32
 101              		.code	16
 102              		.thumb_func
 103              		.type	bmp280_compensate_temperature_int32, %function
 104              	bmp280_compensate_temperature_int32:
 105              	.LFB2:
 168:.\bmp280.c    **** /*!
 169:.\bmp280.c    ****  *	@brief Reads actual temperature
 170:.\bmp280.c    ****  *	from uncompensated temperature
 171:.\bmp280.c    ****  *	@note Returns the value in 0.01 degree Centigrade
 172:.\bmp280.c    ****  *	@note Output value of "5123" equals 51.23 DegC.
 173:.\bmp280.c    ****  *
 174:.\bmp280.c    ****  *
 175:.\bmp280.c    ****  *
 176:.\bmp280.c    ****  *  @param v_uncomp_temperature_s32 : value of uncompensated temperature
ARM GAS  C:\Users\Svilen\AppData\Local\Temp\ccFr0ira.s 			page 6


 177:.\bmp280.c    ****  *
 178:.\bmp280.c    ****  *
 179:.\bmp280.c    ****  *
 180:.\bmp280.c    ****  *  @return Actual temperature output as s32
 181:.\bmp280.c    ****  *
 182:.\bmp280.c    ****  */
 183:.\bmp280.c    **** s32 bmp280_compensate_temperature_int32(s32 v_uncomp_temperature_s32)
 184:.\bmp280.c    **** {
 106              		.loc 1 184 0
 107              		.cfi_startproc
 108              	.LVL6:
 109 0000 30B5     		push	{r4, r5, lr}
 110              		.cfi_def_cfa_offset 12
 111              		.cfi_offset 4, -12
 112              		.cfi_offset 5, -8
 113              		.cfi_offset 14, -4
 114              	.LVL7:
 185:.\bmp280.c    **** 	s32 v_x1_u32r = BMP280_INIT_VALUE;
 186:.\bmp280.c    **** 	s32 v_x2_u32r = BMP280_INIT_VALUE;
 187:.\bmp280.c    **** 	s32 temperature = BMP280_INIT_VALUE;
 188:.\bmp280.c    **** 	/* calculate true temperature*/
 189:.\bmp280.c    **** 	/*calculate x1*/
 190:.\bmp280.c    **** 	v_x1_u32r = ((((v_uncomp_temperature_s32
 191:.\bmp280.c    **** 			>> BMP280_SHIFT_BIT_POSITION_BY_03_BITS)
 115              		.loc 1 191 0
 116 0002 C210     		asr	r2, r0, #3
 192:.\bmp280.c    **** 			- ((s32)p_bmp280->calib_param.dig_T1
 117              		.loc 1 192 0
 118 0004 0B4B     		ldr	r3, .L7
 119 0006 1C68     		ldr	r4, [r3]
 120 0008 2588     		ldrh	r5, [r4]
 193:.\bmp280.c    **** 			<< BMP280_SHIFT_BIT_POSITION_BY_01_BIT)))
 121              		.loc 1 193 0
 122 000a 6B00     		lsl	r3, r5, #1
 192:.\bmp280.c    **** 			- ((s32)p_bmp280->calib_param.dig_T1
 123              		.loc 1 192 0
 124 000c D31A     		sub	r3, r2, r3
 194:.\bmp280.c    **** 			* ((s32)p_bmp280->calib_param.dig_T2))
 125              		.loc 1 194 0
 126 000e 0221     		mov	r1, #2
 127 0010 625E     		ldrsh	r2, [r4, r1]
 128 0012 5343     		mul	r3, r2
 190:.\bmp280.c    **** 			>> BMP280_SHIFT_BIT_POSITION_BY_03_BITS)
 129              		.loc 1 190 0
 130 0014 D912     		asr	r1, r3, #11
 131              	.LVL8:
 195:.\bmp280.c    **** 			>> BMP280_SHIFT_BIT_POSITION_BY_11_BITS;
 196:.\bmp280.c    **** 	/*calculate x2*/
 197:.\bmp280.c    **** 	v_x2_u32r = (((((v_uncomp_temperature_s32
 198:.\bmp280.c    **** 			>> BMP280_SHIFT_BIT_POSITION_BY_04_BITS)
 199:.\bmp280.c    **** 			- ((s32)p_bmp280->calib_param.dig_T1))
 200:.\bmp280.c    **** 			* ((v_uncomp_temperature_s32
 201:.\bmp280.c    **** 			>> BMP280_SHIFT_BIT_POSITION_BY_04_BITS)
 132              		.loc 1 201 0
 133 0016 0011     		asr	r0, r0, #4
 134              	.LVL9:
 202:.\bmp280.c    **** 			- ((s32)p_bmp280->calib_param.dig_T1)))
ARM GAS  C:\Users\Svilen\AppData\Local\Temp\ccFr0ira.s 			page 7


 135              		.loc 1 202 0
 136 0018 431B     		sub	r3, r0, r5
 200:.\bmp280.c    **** 			>> BMP280_SHIFT_BIT_POSITION_BY_04_BITS)
 137              		.loc 1 200 0
 138 001a 5B43     		mul	r3, r3
 203:.\bmp280.c    **** 			>> BMP280_SHIFT_BIT_POSITION_BY_12_BITS)
 139              		.loc 1 203 0
 140 001c 1B13     		asr	r3, r3, #12
 204:.\bmp280.c    **** 			* ((s32)p_bmp280->calib_param.dig_T3))
 141              		.loc 1 204 0
 142 001e 0420     		mov	r0, #4
 143 0020 225E     		ldrsh	r2, [r4, r0]
 144 0022 5343     		mul	r3, r2
 197:.\bmp280.c    **** 			>> BMP280_SHIFT_BIT_POSITION_BY_04_BITS)
 145              		.loc 1 197 0
 146 0024 9B13     		asr	r3, r3, #14
 147              	.LVL10:
 205:.\bmp280.c    **** 			>> BMP280_SHIFT_BIT_POSITION_BY_14_BITS;
 206:.\bmp280.c    **** 	/*calculate t_fine*/
 207:.\bmp280.c    **** 	p_bmp280->calib_param.t_fine = v_x1_u32r + v_x2_u32r;
 148              		.loc 1 207 0
 149 0026 CB18     		add	r3, r1, r3
 150              	.LVL11:
 151 0028 A361     		str	r3, [r4, #24]
 208:.\bmp280.c    **** 	/*calculate temperature*/
 209:.\bmp280.c    **** 	temperature = (p_bmp280->calib_param.t_fine * 5 + 128)
 152              		.loc 1 209 0
 153 002a 9800     		lsl	r0, r3, #2
 154 002c C018     		add	r0, r0, r3
 155 002e 8030     		add	r0, r0, #128
 156 0030 0012     		asr	r0, r0, #8
 157              	.LVL12:
 210:.\bmp280.c    **** 			>> BMP280_SHIFT_BIT_POSITION_BY_08_BITS;
 211:.\bmp280.c    **** 
 212:.\bmp280.c    **** 	return temperature;
 213:.\bmp280.c    **** }
 158              		.loc 1 213 0
 159              		@ sp needed
 160              	.LVL13:
 161 0032 30BD     		pop	{r4, r5, pc}
 162              	.L8:
 163              		.align	2
 164              	.L7:
 165 0034 00000000 		.word	.LANCHOR0
 166              		.cfi_endproc
 167              	.LFE2:
 168              		.size	bmp280_compensate_temperature_int32, .-bmp280_compensate_temperature_int32
 169              		.section	.text.bmp280_read_uncomp_pressure,"ax",%progbits
 170              		.align	2
 171              		.global	bmp280_read_uncomp_pressure
 172              		.code	16
 173              		.thumb_func
 174              		.type	bmp280_read_uncomp_pressure, %function
 175              	bmp280_read_uncomp_pressure:
 176              	.LFB3:
 214:.\bmp280.c    **** /*!
 215:.\bmp280.c    ****  *	@brief This API is used to read uncompensated pressure.
ARM GAS  C:\Users\Svilen\AppData\Local\Temp\ccFr0ira.s 			page 8


 216:.\bmp280.c    ****  *	in the registers 0xF7, 0xF8 and 0xF9
 217:.\bmp280.c    ****  *	@note 0xF7 -> MSB -> bit from 0 to 7
 218:.\bmp280.c    ****  *	@note 0xF8 -> LSB -> bit from 0 to 7
 219:.\bmp280.c    ****  *	@note 0xF9 -> LSB -> bit from 4 to 7
 220:.\bmp280.c    ****  *
 221:.\bmp280.c    ****  *
 222:.\bmp280.c    ****  *
 223:.\bmp280.c    ****  *	@param v_uncomp_pressure_s32 : The value of uncompensated pressure
 224:.\bmp280.c    ****  *
 225:.\bmp280.c    ****  *
 226:.\bmp280.c    ****  *
 227:.\bmp280.c    ****  *	@return results of bus communication function
 228:.\bmp280.c    ****  *	@retval 0 -> Success
 229:.\bmp280.c    ****  *	@retval -1 -> Error
 230:.\bmp280.c    ****  *
 231:.\bmp280.c    ****  *
 232:.\bmp280.c    ****  */
 233:.\bmp280.c    **** BMP280_RETURN_FUNCTION_TYPE bmp280_read_uncomp_pressure(
 234:.\bmp280.c    **** 		s32 *v_uncomp_pressure_s32)
 235:.\bmp280.c    **** {
 177              		.loc 1 235 0
 178              		.cfi_startproc
 179              	.LVL14:
 180 0000 70B5     		push	{r4, r5, r6, lr}
 181              		.cfi_def_cfa_offset 16
 182              		.cfi_offset 4, -16
 183              		.cfi_offset 5, -12
 184              		.cfi_offset 6, -8
 185              		.cfi_offset 14, -4
 186 0002 82B0     		sub	sp, sp, #8
 187              		.cfi_def_cfa_offset 24
 188              	.LVL15:
 236:.\bmp280.c    **** 	/* variable used to return communication result*/
 237:.\bmp280.c    **** 	BMP280_RETURN_FUNCTION_TYPE com_rslt = ERROR;
 238:.\bmp280.c    **** 	/* Array holding the MSB and LSb value
 239:.\bmp280.c    **** 	 a_data_u8[0] - Pressure MSB
 240:.\bmp280.c    **** 	 a_data_u8[1] - Pressure LSB
 241:.\bmp280.c    **** 	 a_data_u8[2] - Pressure LSB
 242:.\bmp280.c    **** 	 */
 243:.\bmp280.c    **** 	u8 a_data_u8[BMP280_PRESSURE_DATA_SIZE] = {BMP280_INIT_VALUE,
 189              		.loc 1 243 0
 190 0004 01AB     		add	r3, sp, #4
 191 0006 0022     		mov	r2, #0
 192 0008 1A70     		strb	r2, [r3]
 193 000a 5A70     		strb	r2, [r3, #1]
 194 000c 9A70     		strb	r2, [r3, #2]
 244:.\bmp280.c    **** 			BMP280_INIT_VALUE, BMP280_INIT_VALUE};
 245:.\bmp280.c    **** 	/* check the p_bmp280 structure pointer as NULL*/
 246:.\bmp280.c    **** 	if (p_bmp280 == BMP280_NULL) {
 195              		.loc 1 246 0
 196 000e 0D4B     		ldr	r3, .L12
 197 0010 1B68     		ldr	r3, [r3]
 198 0012 002B     		cmp	r3, #0
 199 0014 11D0     		beq	.L11
 200 0016 051C     		mov	r5, r0
 247:.\bmp280.c    **** 		com_rslt = E_BMP280_NULL_PTR;
 248:.\bmp280.c    **** 	} else {
ARM GAS  C:\Users\Svilen\AppData\Local\Temp\ccFr0ira.s 			page 9


 249:.\bmp280.c    **** 		com_rslt = p_bmp280->BMP280_BUS_READ_FUNC(p_bmp280->dev_addr,
 201              		.loc 1 249 0
 202 0018 5E6A     		ldr	r6, [r3, #36]
 203 001a 587F     		ldrb	r0, [r3, #29]
 204              	.LVL16:
 205 001c 01AC     		add	r4, sp, #4
 206 001e F721     		mov	r1, #247
 207 0020 221C     		mov	r2, r4
 208 0022 0323     		mov	r3, #3
 209 0024 B047     		blx	r6
 210              	.LVL17:
 250:.\bmp280.c    **** 				BMP280_PRESSURE_MSB_REG, a_data_u8,
 251:.\bmp280.c    **** 				BMP280_PRESSURE_DATA_LENGTH);
 252:.\bmp280.c    **** 		*v_uncomp_pressure_s32 = (s32)((((u32)(
 253:.\bmp280.c    **** 				a_data_u8[BMP280_PRESSURE_MSB_DATA]))
 211              		.loc 1 253 0
 212 0026 2378     		ldrb	r3, [r4]
 254:.\bmp280.c    **** 				<< BMP280_SHIFT_BIT_POSITION_BY_12_BITS)
 213              		.loc 1 254 0
 214 0028 1A03     		lsl	r2, r3, #12
 255:.\bmp280.c    **** 				| (((u32)(a_data_u8[BMP280_PRESSURE_LSB_DATA]))
 215              		.loc 1 255 0
 216 002a 6378     		ldrb	r3, [r4, #1]
 256:.\bmp280.c    **** 				<< BMP280_SHIFT_BIT_POSITION_BY_04_BITS)
 217              		.loc 1 256 0
 218 002c 1B01     		lsl	r3, r3, #4
 255:.\bmp280.c    **** 				| (((u32)(a_data_u8[BMP280_PRESSURE_LSB_DATA]))
 219              		.loc 1 255 0
 220 002e 1343     		orr	r3, r2
 257:.\bmp280.c    **** 				| ((u32)a_data_u8[BMP280_PRESSURE_XLSB_DATA]
 221              		.loc 1 257 0
 222 0030 A278     		ldrb	r2, [r4, #2]
 258:.\bmp280.c    **** 				>> BMP280_SHIFT_BIT_POSITION_BY_04_BITS));
 223              		.loc 1 258 0
 224 0032 1209     		lsr	r2, r2, #4
 257:.\bmp280.c    **** 				| ((u32)a_data_u8[BMP280_PRESSURE_XLSB_DATA]
 225              		.loc 1 257 0
 226 0034 1343     		orr	r3, r2
 252:.\bmp280.c    **** 				a_data_u8[BMP280_PRESSURE_MSB_DATA]))
 227              		.loc 1 252 0
 228 0036 2B60     		str	r3, [r5]
 229 0038 00E0     		b	.L10
 230              	.LVL18:
 231              	.L11:
 247:.\bmp280.c    **** 	} else {
 232              		.loc 1 247 0
 233 003a 8120     		mov	r0, #129
 234              	.LVL19:
 235              	.L10:
 259:.\bmp280.c    **** 	}
 260:.\bmp280.c    **** 	return com_rslt;
 236              		.loc 1 260 0
 237 003c 40B2     		sxtb	r0, r0
 261:.\bmp280.c    **** }
 238              		.loc 1 261 0
 239 003e 02B0     		add	sp, sp, #8
 240              		@ sp needed
ARM GAS  C:\Users\Svilen\AppData\Local\Temp\ccFr0ira.s 			page 10


 241 0040 70BD     		pop	{r4, r5, r6, pc}
 242              	.L13:
 243 0042 C046     		.align	2
 244              	.L12:
 245 0044 00000000 		.word	.LANCHOR0
 246              		.cfi_endproc
 247              	.LFE3:
 248              		.size	bmp280_read_uncomp_pressure, .-bmp280_read_uncomp_pressure
 249              		.global	__aeabi_uidiv
 250              		.section	.text.bmp280_compensate_pressure_int32,"ax",%progbits
 251              		.align	2
 252              		.global	bmp280_compensate_pressure_int32
 253              		.code	16
 254              		.thumb_func
 255              		.type	bmp280_compensate_pressure_int32, %function
 256              	bmp280_compensate_pressure_int32:
 257              	.LFB4:
 262:.\bmp280.c    **** /*!
 263:.\bmp280.c    ****  *	@brief Reads actual pressure from uncompensated pressure
 264:.\bmp280.c    ****  *	and returns the value in Pascal(Pa)
 265:.\bmp280.c    ****  *	@note Output value of "96386" equals 96386 Pa =
 266:.\bmp280.c    ****  *	963.86 hPa = 963.86 millibar
 267:.\bmp280.c    ****  *
 268:.\bmp280.c    ****  *
 269:.\bmp280.c    ****  *
 270:.\bmp280.c    ****  *
 271:.\bmp280.c    ****  *  @param  v_uncomp_pressure_s32: value of uncompensated pressure
 272:.\bmp280.c    ****  *
 273:.\bmp280.c    ****  *
 274:.\bmp280.c    ****  *
 275:.\bmp280.c    ****  *  @return Returns the Actual pressure out put as s32
 276:.\bmp280.c    ****  *
 277:.\bmp280.c    ****  */
 278:.\bmp280.c    **** u32 bmp280_compensate_pressure_int32(s32 v_uncomp_pressure_s32)
 279:.\bmp280.c    **** {
 258              		.loc 1 279 0
 259              		.cfi_startproc
 260              	.LVL20:
 261 0000 70B5     		push	{r4, r5, r6, lr}
 262              		.cfi_def_cfa_offset 16
 263              		.cfi_offset 4, -16
 264              		.cfi_offset 5, -12
 265              		.cfi_offset 6, -8
 266              		.cfi_offset 14, -4
 267              	.LVL21:
 280:.\bmp280.c    **** 	s32 v_x1_u32r = BMP280_INIT_VALUE;
 281:.\bmp280.c    **** 	s32 v_x2_u32r = BMP280_INIT_VALUE;
 282:.\bmp280.c    **** 	u32 v_pressure_u32 = BMP280_INIT_VALUE;
 283:.\bmp280.c    **** 	/* calculate x1*/
 284:.\bmp280.c    **** 	v_x1_u32r = (((s32)p_bmp280->calib_param.t_fine)
 268              		.loc 1 284 0
 269 0002 2A4B     		ldr	r3, .L20
 270 0004 1C68     		ldr	r4, [r3]
 285:.\bmp280.c    **** 			>> BMP280_SHIFT_BIT_POSITION_BY_01_BIT) - (s32)64000;
 271              		.loc 1 285 0
 272 0006 A369     		ldr	r3, [r4, #24]
 273 0008 5B10     		asr	r3, r3, #1
ARM GAS  C:\Users\Svilen\AppData\Local\Temp\ccFr0ira.s 			page 11


 284:.\bmp280.c    **** 			>> BMP280_SHIFT_BIT_POSITION_BY_01_BIT) - (s32)64000;
 274              		.loc 1 284 0
 275 000a 294A     		ldr	r2, .L20+4
 276 000c 9446     		mov	ip, r2
 277 000e 6344     		add	r3, r3, ip
 278              	.LVL22:
 286:.\bmp280.c    **** 	/* calculate x2*/
 287:.\bmp280.c    **** 	v_x2_u32r = (((v_x1_u32r >> BMP280_SHIFT_BIT_POSITION_BY_02_BITS)
 288:.\bmp280.c    **** 			* (v_x1_u32r >> BMP280_SHIFT_BIT_POSITION_BY_02_BITS))
 279              		.loc 1 288 0
 280 0010 9A10     		asr	r2, r3, #2
 281 0012 5243     		mul	r2, r2
 289:.\bmp280.c    **** 			>> BMP280_SHIFT_BIT_POSITION_BY_11_BITS)
 282              		.loc 1 289 0
 283 0014 D512     		asr	r5, r2, #11
 290:.\bmp280.c    **** 			* ((s32)p_bmp280->calib_param.dig_P6);
 284              		.loc 1 290 0
 285 0016 1026     		mov	r6, #16
 286 0018 A15F     		ldrsh	r1, [r4, r6]
 287:.\bmp280.c    **** 			* (v_x1_u32r >> BMP280_SHIFT_BIT_POSITION_BY_02_BITS))
 287              		.loc 1 287 0
 288 001a 6943     		mul	r1, r5
 289 001c 0E1C     		mov	r6, r1
 290              	.LVL23:
 291:.\bmp280.c    **** 	v_x2_u32r = v_x2_u32r + ((v_x1_u32r *
 292:.\bmp280.c    **** 			((s32)p_bmp280->calib_param.dig_P5))
 291              		.loc 1 292 0
 292 001e 0E21     		mov	r1, #14
 293 0020 655E     		ldrsh	r5, [r4, r1]
 294              	.LVL24:
 291:.\bmp280.c    **** 	v_x2_u32r = v_x2_u32r + ((v_x1_u32r *
 295              		.loc 1 291 0
 296 0022 5D43     		mul	r5, r3
 293:.\bmp280.c    **** 			<< BMP280_SHIFT_BIT_POSITION_BY_01_BIT);
 297              		.loc 1 293 0
 298 0024 6D00     		lsl	r5, r5, #1
 291:.\bmp280.c    **** 	v_x2_u32r = v_x2_u32r + ((v_x1_u32r *
 299              		.loc 1 291 0
 300 0026 AD19     		add	r5, r5, r6
 301              	.LVL25:
 294:.\bmp280.c    **** 	v_x2_u32r = (v_x2_u32r >> BMP280_SHIFT_BIT_POSITION_BY_02_BITS)
 302              		.loc 1 294 0
 303 0028 A910     		asr	r1, r5, #2
 295:.\bmp280.c    **** 			+ (((s32)p_bmp280->calib_param.dig_P4)
 304              		.loc 1 295 0
 305 002a 0C26     		mov	r6, #12
 306 002c A55F     		ldrsh	r5, [r4, r6]
 307              	.LVL26:
 296:.\bmp280.c    **** 			<< BMP280_SHIFT_BIT_POSITION_BY_16_BITS);
 308              		.loc 1 296 0
 309 002e 2D04     		lsl	r5, r5, #16
 294:.\bmp280.c    **** 	v_x2_u32r = (v_x2_u32r >> BMP280_SHIFT_BIT_POSITION_BY_02_BITS)
 310              		.loc 1 294 0
 311 0030 4D19     		add	r5, r1, r5
 312              	.LVL27:
 297:.\bmp280.c    **** 	/* calculate x1*/
 298:.\bmp280.c    **** 	v_x1_u32r = (((p_bmp280->calib_param.dig_P3
ARM GAS  C:\Users\Svilen\AppData\Local\Temp\ccFr0ira.s 			page 12


 299:.\bmp280.c    **** 			* (((v_x1_u32r
 300:.\bmp280.c    **** 			>> BMP280_SHIFT_BIT_POSITION_BY_02_BITS) * (v_x1_u32r
 301:.\bmp280.c    **** 			>> BMP280_SHIFT_BIT_POSITION_BY_02_BITS))
 302:.\bmp280.c    **** 			>> BMP280_SHIFT_BIT_POSITION_BY_13_BITS))
 313              		.loc 1 302 0
 314 0032 5213     		asr	r2, r2, #13
 299:.\bmp280.c    **** 			>> BMP280_SHIFT_BIT_POSITION_BY_02_BITS) * (v_x1_u32r
 315              		.loc 1 299 0
 316 0034 0A26     		mov	r6, #10
 317 0036 A15F     		ldrsh	r1, [r4, r6]
 318 0038 4A43     		mul	r2, r1
 303:.\bmp280.c    **** 			>> BMP280_SHIFT_BIT_POSITION_BY_03_BITS)
 319              		.loc 1 303 0
 320 003a D210     		asr	r2, r2, #3
 304:.\bmp280.c    **** 			+ ((((s32)p_bmp280->calib_param.dig_P2)
 321              		.loc 1 304 0
 322 003c 0826     		mov	r6, #8
 323 003e A15F     		ldrsh	r1, [r4, r6]
 305:.\bmp280.c    **** 			* v_x1_u32r)
 324              		.loc 1 305 0
 325 0040 4B43     		mul	r3, r1
 326              	.LVL28:
 306:.\bmp280.c    **** 			>> BMP280_SHIFT_BIT_POSITION_BY_01_BIT))
 327              		.loc 1 306 0
 328 0042 5B10     		asr	r3, r3, #1
 304:.\bmp280.c    **** 			+ ((((s32)p_bmp280->calib_param.dig_P2)
 329              		.loc 1 304 0
 330 0044 D318     		add	r3, r2, r3
 298:.\bmp280.c    **** 			* (((v_x1_u32r
 331              		.loc 1 298 0
 332 0046 9B14     		asr	r3, r3, #18
 333              	.LVL29:
 307:.\bmp280.c    **** 			>> BMP280_SHIFT_BIT_POSITION_BY_18_BITS;
 308:.\bmp280.c    **** 	v_x1_u32r = ((((32768 + v_x1_u32r))
 334              		.loc 1 308 0
 335 0048 8022     		mov	r2, #128
 336 004a 1202     		lsl	r2, r2, #8
 337 004c 9446     		mov	ip, r2
 338 004e 6344     		add	r3, r3, ip
 339              	.LVL30:
 309:.\bmp280.c    **** 			* ((s32)p_bmp280->calib_param.dig_P1))
 340              		.loc 1 309 0
 341 0050 E188     		ldrh	r1, [r4, #6]
 342 0052 5943     		mul	r1, r3
 308:.\bmp280.c    **** 			* ((s32)p_bmp280->calib_param.dig_P1))
 343              		.loc 1 308 0
 344 0054 C913     		asr	r1, r1, #15
 345              	.LVL31:
 310:.\bmp280.c    **** 			>> BMP280_SHIFT_BIT_POSITION_BY_15_BITS);
 311:.\bmp280.c    **** 	/* calculate pressure*/
 312:.\bmp280.c    **** 	v_pressure_u32 = (((u32)(((s32)1048576) - v_uncomp_pressure_s32)
 313:.\bmp280.c    **** 			- (v_x2_u32r >> BMP280_SHIFT_BIT_POSITION_BY_12_BITS)))
 346              		.loc 1 313 0
 347 0056 2D13     		asr	r5, r5, #12
 348              	.LVL32:
 349 0058 4042     		neg	r0, r0
 350              	.LVL33:
ARM GAS  C:\Users\Svilen\AppData\Local\Temp\ccFr0ira.s 			page 13


 351 005a 401B     		sub	r0, r0, r5
 352              	.LVL34:
 314:.\bmp280.c    **** 			* 3125;
 353              		.loc 1 314 0
 354 005c 154A     		ldr	r2, .L20+8
 355 005e 5043     		mul	r0, r2
 356              	.LVL35:
 315:.\bmp280.c    **** 	/* check overflow*/
 316:.\bmp280.c    **** 	if (v_pressure_u32 < 0x80000000)
 357              		.loc 1 316 0
 358 0060 154B     		ldr	r3, .L20+12
 359 0062 C018     		add	r0, r0, r3
 360 0064 05D4     		bmi	.L15
 361              	.LVL36:
 317:.\bmp280.c    **** 		/* Avoid exception caused by division by zero */
 318:.\bmp280.c    **** 		if (v_x1_u32r != BMP280_INIT_VALUE)
 362              		.loc 1 318 0
 363 0066 0029     		cmp	r1, #0
 364 0068 1BD0     		beq	.L18
 319:.\bmp280.c    **** 			v_pressure_u32 = (v_pressure_u32
 320:.\bmp280.c    **** 					<< BMP280_SHIFT_BIT_POSITION_BY_01_BIT)
 365              		.loc 1 320 0
 366 006a 4000     		lsl	r0, r0, #1
 367              	.LVL37:
 319:.\bmp280.c    **** 			v_pressure_u32 = (v_pressure_u32
 368              		.loc 1 319 0
 369 006c FFF7FEFF 		bl	__aeabi_uidiv
 370              	.LVL38:
 371 0070 04E0     		b	.L17
 372              	.LVL39:
 373              	.L15:
 321:.\bmp280.c    **** 					/ ((u32)v_x1_u32r);
 322:.\bmp280.c    **** 		else
 323:.\bmp280.c    **** 			return BMP280_INVALID_DATA;
 324:.\bmp280.c    **** 	else
 325:.\bmp280.c    **** 	/* Avoid exception caused by division by zero */
 326:.\bmp280.c    **** 	if (v_x1_u32r != BMP280_INIT_VALUE)
 374              		.loc 1 326 0
 375 0072 0029     		cmp	r1, #0
 376 0074 17D0     		beq	.L19
 327:.\bmp280.c    **** 		v_pressure_u32 = (v_pressure_u32 / (u32)v_x1_u32r) * 2;
 377              		.loc 1 327 0
 378 0076 FFF7FEFF 		bl	__aeabi_uidiv
 379              	.LVL40:
 380 007a 4000     		lsl	r0, r0, #1
 381              	.LVL41:
 382              	.L17:
 328:.\bmp280.c    **** 	else
 329:.\bmp280.c    **** 		return BMP280_INVALID_DATA;
 330:.\bmp280.c    **** 	/* calculate x1*/
 331:.\bmp280.c    **** 	v_x1_u32r = (((s32)p_bmp280->calib_param.dig_P9) * ((s32)(
 383              		.loc 1 331 0
 384 007c 1623     		mov	r3, #22
 385 007e E25E     		ldrsh	r2, [r4, r3]
 332:.\bmp280.c    **** 			((v_pressure_u32
 333:.\bmp280.c    **** 			>> BMP280_SHIFT_BIT_POSITION_BY_03_BITS)
 334:.\bmp280.c    **** 			* (v_pressure_u32
ARM GAS  C:\Users\Svilen\AppData\Local\Temp\ccFr0ira.s 			page 14


 335:.\bmp280.c    **** 			>> BMP280_SHIFT_BIT_POSITION_BY_03_BITS))
 386              		.loc 1 335 0
 387 0080 C308     		lsr	r3, r0, #3
 334:.\bmp280.c    **** 			>> BMP280_SHIFT_BIT_POSITION_BY_03_BITS))
 388              		.loc 1 334 0
 389 0082 5B43     		mul	r3, r3
 336:.\bmp280.c    **** 			>> BMP280_SHIFT_BIT_POSITION_BY_13_BITS)))
 390              		.loc 1 336 0
 391 0084 5B0B     		lsr	r3, r3, #13
 331:.\bmp280.c    **** 			((v_pressure_u32
 392              		.loc 1 331 0
 393 0086 5343     		mul	r3, r2
 394 0088 1B13     		asr	r3, r3, #12
 395              	.LVL42:
 337:.\bmp280.c    **** 			>> BMP280_SHIFT_BIT_POSITION_BY_12_BITS;
 338:.\bmp280.c    **** 	/* calculate x2*/
 339:.\bmp280.c    **** 	v_x2_u32r = (((s32)(v_pressure_u32 >>
 396              		.loc 1 339 0
 397 008a 8108     		lsr	r1, r0, #2
 340:.\bmp280.c    **** 			BMP280_SHIFT_BIT_POSITION_BY_02_BITS))
 341:.\bmp280.c    **** 			* ((s32)p_bmp280->calib_param.dig_P8))
 398              		.loc 1 341 0
 399 008c 1425     		mov	r5, #20
 400 008e 625F     		ldrsh	r2, [r4, r5]
 401 0090 4A43     		mul	r2, r1
 339:.\bmp280.c    **** 			BMP280_SHIFT_BIT_POSITION_BY_02_BITS))
 402              		.loc 1 339 0
 403 0092 5213     		asr	r2, r2, #13
 404              	.LVL43:
 342:.\bmp280.c    **** 			>> BMP280_SHIFT_BIT_POSITION_BY_13_BITS;
 343:.\bmp280.c    **** 	/* calculate true pressure*/
 344:.\bmp280.c    **** 	v_pressure_u32 = (u32)((s32)v_pressure_u32 + ((v_x1_u32r + v_x2_u32r
 405              		.loc 1 344 0
 406 0094 9B18     		add	r3, r3, r2
 407              	.LVL44:
 345:.\bmp280.c    **** 			+ p_bmp280->calib_param.dig_P7)
 408              		.loc 1 345 0
 409 0096 1221     		mov	r1, #18
 410 0098 625E     		ldrsh	r2, [r4, r1]
 411              	.LVL45:
 412 009a 9B18     		add	r3, r3, r2
 346:.\bmp280.c    **** 			>> BMP280_SHIFT_BIT_POSITION_BY_04_BITS));
 413              		.loc 1 346 0
 414 009c 1B11     		asr	r3, r3, #4
 415              	.LVL46:
 347:.\bmp280.c    **** 
 348:.\bmp280.c    **** 	return v_pressure_u32;
 416              		.loc 1 348 0
 417 009e 1818     		add	r0, r3, r0
 418              	.LVL47:
 419 00a0 02E0     		b	.L16
 420              	.LVL48:
 421              	.L18:
 323:.\bmp280.c    **** 	else
 422              		.loc 1 323 0
 423 00a2 0020     		mov	r0, #0
 424              	.LVL49:
ARM GAS  C:\Users\Svilen\AppData\Local\Temp\ccFr0ira.s 			page 15


 425 00a4 00E0     		b	.L16
 426              	.LVL50:
 427              	.L19:
 329:.\bmp280.c    **** 	/* calculate x1*/
 428              		.loc 1 329 0
 429 00a6 0020     		mov	r0, #0
 430              	.LVL51:
 431              	.L16:
 349:.\bmp280.c    **** }
 432              		.loc 1 349 0
 433              		@ sp needed
 434 00a8 70BD     		pop	{r4, r5, r6, pc}
 435              	.L21:
 436 00aa C046     		.align	2
 437              	.L20:
 438 00ac 00000000 		.word	.LANCHOR0
 439 00b0 0006FFFF 		.word	-64000
 440 00b4 350C0000 		.word	3125
 441 00b8 000050C3 		.word	-1018167296
 442              		.cfi_endproc
 443              	.LFE4:
 444              		.size	bmp280_compensate_pressure_int32, .-bmp280_compensate_pressure_int32
 445              		.section	.text.bmp280_read_uncomp_pressure_temperature,"ax",%progbits
 446              		.align	2
 447              		.global	bmp280_read_uncomp_pressure_temperature
 448              		.code	16
 449              		.thumb_func
 450              		.type	bmp280_read_uncomp_pressure_temperature, %function
 451              	bmp280_read_uncomp_pressure_temperature:
 452              	.LFB5:
 350:.\bmp280.c    **** /*!
 351:.\bmp280.c    ****  * @brief reads uncompensated pressure and temperature
 352:.\bmp280.c    ****  *
 353:.\bmp280.c    ****  *
 354:.\bmp280.c    ****  * @param  v_uncomp_pressure_s32: The value of uncompensated pressure.
 355:.\bmp280.c    ****  * @param  v_uncomp_temperature_s32: The value of uncompensated temperature.
 356:.\bmp280.c    ****  *
 357:.\bmp280.c    ****  *  @return results of bus communication function
 358:.\bmp280.c    ****  *	@retval 0 -> Success
 359:.\bmp280.c    ****  *	@retval -1 -> Error
 360:.\bmp280.c    ****  *
 361:.\bmp280.c    ****  */
 362:.\bmp280.c    **** BMP280_RETURN_FUNCTION_TYPE bmp280_read_uncomp_pressure_temperature(
 363:.\bmp280.c    **** 		s32 *v_uncomp_pressure_s32, s32 *v_uncomp_temperature_s32)
 364:.\bmp280.c    **** {
 453              		.loc 1 364 0
 454              		.cfi_startproc
 455              	.LVL52:
 456 0000 70B5     		push	{r4, r5, r6, lr}
 457              		.cfi_def_cfa_offset 16
 458              		.cfi_offset 4, -16
 459              		.cfi_offset 5, -12
 460              		.cfi_offset 6, -8
 461              		.cfi_offset 14, -4
 462 0002 82B0     		sub	sp, sp, #8
 463              		.cfi_def_cfa_offset 24
 464              	.LVL53:
ARM GAS  C:\Users\Svilen\AppData\Local\Temp\ccFr0ira.s 			page 16


 365:.\bmp280.c    **** 	/* variable used to return communication result*/
 366:.\bmp280.c    **** 	BMP280_RETURN_FUNCTION_TYPE com_rslt = ERROR;
 367:.\bmp280.c    **** 	/* Array holding the temperature and pressure data
 368:.\bmp280.c    **** 	 a_data_u8[0] - Pressure MSB
 369:.\bmp280.c    **** 	 a_data_u8[1] - Pressure LSB
 370:.\bmp280.c    **** 	 a_data_u8[2] - Pressure LSB
 371:.\bmp280.c    **** 	 a_data_u8[3] - Temperature MSB
 372:.\bmp280.c    **** 	 a_data_u8[4] - Temperature LSB
 373:.\bmp280.c    **** 	 a_data_u8[5] - Temperature LSB
 374:.\bmp280.c    **** 	 */
 375:.\bmp280.c    **** 	u8 a_data_u8[BMP280_ALL_DATA_FRAME_LENGTH] = {BMP280_INIT_VALUE,
 465              		.loc 1 375 0
 466 0004 0023     		mov	r3, #0
 467 0006 6A46     		mov	r2, sp
 468 0008 1370     		strb	r3, [r2]
 469 000a 5370     		strb	r3, [r2, #1]
 470 000c 9370     		strb	r3, [r2, #2]
 471 000e D370     		strb	r3, [r2, #3]
 472 0010 1371     		strb	r3, [r2, #4]
 473 0012 5371     		strb	r3, [r2, #5]
 376:.\bmp280.c    **** 			BMP280_INIT_VALUE, BMP280_INIT_VALUE, BMP280_INIT_VALUE,
 377:.\bmp280.c    **** 			BMP280_INIT_VALUE, BMP280_INIT_VALUE};
 378:.\bmp280.c    **** 	/* check the p_bmp280 structure pointer as NULL*/
 379:.\bmp280.c    **** 	if (p_bmp280 == BMP280_NULL) {
 474              		.loc 1 379 0
 475 0014 134B     		ldr	r3, .L25
 476 0016 1B68     		ldr	r3, [r3]
 477 0018 002B     		cmp	r3, #0
 478 001a 1FD0     		beq	.L24
 479 001c 0C1C     		mov	r4, r1
 480 001e 051C     		mov	r5, r0
 380:.\bmp280.c    **** 		com_rslt = E_BMP280_NULL_PTR;
 381:.\bmp280.c    **** 	} else {
 382:.\bmp280.c    **** 		com_rslt = p_bmp280->BMP280_BUS_READ_FUNC(p_bmp280->dev_addr,
 481              		.loc 1 382 0
 482 0020 5E6A     		ldr	r6, [r3, #36]
 483 0022 587F     		ldrb	r0, [r3, #29]
 484              	.LVL54:
 485 0024 F721     		mov	r1, #247
 486              	.LVL55:
 487 0026 0623     		mov	r3, #6
 488 0028 B047     		blx	r6
 489              	.LVL56:
 383:.\bmp280.c    **** 				BMP280_PRESSURE_MSB_REG, a_data_u8,
 384:.\bmp280.c    **** 				BMP280_DATA_FRAME_SIZE);
 385:.\bmp280.c    **** 		/*Pressure*/
 386:.\bmp280.c    **** 		*v_uncomp_pressure_s32 = (s32)((((u32)(
 387:.\bmp280.c    **** 				a_data_u8[BMP280_DATA_FRAME_PRESSURE_MSB_BYTE]))
 490              		.loc 1 387 0
 491 002a 6B46     		mov	r3, sp
 492 002c 1B78     		ldrb	r3, [r3]
 388:.\bmp280.c    **** 				<< BMP280_SHIFT_BIT_POSITION_BY_12_BITS)
 493              		.loc 1 388 0
 494 002e 1A03     		lsl	r2, r3, #12
 389:.\bmp280.c    **** 				| (((u32)(
 390:.\bmp280.c    **** 				a_data_u8[BMP280_DATA_FRAME_PRESSURE_LSB_BYTE]))
 495              		.loc 1 390 0
ARM GAS  C:\Users\Svilen\AppData\Local\Temp\ccFr0ira.s 			page 17


 496 0030 6B46     		mov	r3, sp
 497 0032 5B78     		ldrb	r3, [r3, #1]
 391:.\bmp280.c    **** 				<< BMP280_SHIFT_BIT_POSITION_BY_04_BITS)
 498              		.loc 1 391 0
 499 0034 1B01     		lsl	r3, r3, #4
 389:.\bmp280.c    **** 				| (((u32)(
 500              		.loc 1 389 0
 501 0036 1343     		orr	r3, r2
 392:.\bmp280.c    **** 				| ((u32)a_data_u8[
 502              		.loc 1 392 0
 503 0038 6A46     		mov	r2, sp
 504 003a 9278     		ldrb	r2, [r2, #2]
 393:.\bmp280.c    **** 				BMP280_DATA_FRAME_PRESSURE_XLSB_BYTE]
 394:.\bmp280.c    **** 				>> BMP280_SHIFT_BIT_POSITION_BY_04_BITS));
 505              		.loc 1 394 0
 506 003c 1209     		lsr	r2, r2, #4
 392:.\bmp280.c    **** 				| ((u32)a_data_u8[
 507              		.loc 1 392 0
 508 003e 1343     		orr	r3, r2
 386:.\bmp280.c    **** 				a_data_u8[BMP280_DATA_FRAME_PRESSURE_MSB_BYTE]))
 509              		.loc 1 386 0
 510 0040 2B60     		str	r3, [r5]
 395:.\bmp280.c    **** 
 396:.\bmp280.c    **** 		/* Temperature */
 397:.\bmp280.c    **** 		*v_uncomp_temperature_s32 = (s32)((((u32)(a_data_u8[
 511              		.loc 1 397 0
 512 0042 6B46     		mov	r3, sp
 513 0044 DB78     		ldrb	r3, [r3, #3]
 398:.\bmp280.c    **** 				BMP280_DATA_FRAME_TEMPERATURE_MSB_BYTE]))
 399:.\bmp280.c    **** 				<< BMP280_SHIFT_BIT_POSITION_BY_12_BITS)
 514              		.loc 1 399 0
 515 0046 1A03     		lsl	r2, r3, #12
 400:.\bmp280.c    **** 				| (((u32)(a_data_u8[
 516              		.loc 1 400 0
 517 0048 6B46     		mov	r3, sp
 518 004a 1B79     		ldrb	r3, [r3, #4]
 401:.\bmp280.c    **** 				BMP280_DATA_FRAME_TEMPERATURE_LSB_BYTE]))
 402:.\bmp280.c    **** 				<< BMP280_SHIFT_BIT_POSITION_BY_04_BITS)
 519              		.loc 1 402 0
 520 004c 1B01     		lsl	r3, r3, #4
 400:.\bmp280.c    **** 				| (((u32)(a_data_u8[
 521              		.loc 1 400 0
 522 004e 1343     		orr	r3, r2
 403:.\bmp280.c    **** 				| ((u32)a_data_u8[
 523              		.loc 1 403 0
 524 0050 6A46     		mov	r2, sp
 525 0052 5279     		ldrb	r2, [r2, #5]
 404:.\bmp280.c    **** 				BMP280_DATA_FRAME_TEMPERATURE_XLSB_BYTE]
 405:.\bmp280.c    **** 				>> BMP280_SHIFT_BIT_POSITION_BY_04_BITS));
 526              		.loc 1 405 0
 527 0054 1209     		lsr	r2, r2, #4
 403:.\bmp280.c    **** 				| ((u32)a_data_u8[
 528              		.loc 1 403 0
 529 0056 1343     		orr	r3, r2
 397:.\bmp280.c    **** 				BMP280_DATA_FRAME_TEMPERATURE_MSB_BYTE]))
 530              		.loc 1 397 0
 531 0058 2360     		str	r3, [r4]
ARM GAS  C:\Users\Svilen\AppData\Local\Temp\ccFr0ira.s 			page 18


 532 005a 00E0     		b	.L23
 533              	.LVL57:
 534              	.L24:
 380:.\bmp280.c    **** 	} else {
 535              		.loc 1 380 0
 536 005c 8120     		mov	r0, #129
 537              	.LVL58:
 538              	.L23:
 406:.\bmp280.c    **** 	}
 407:.\bmp280.c    **** 	return com_rslt;
 539              		.loc 1 407 0
 540 005e 40B2     		sxtb	r0, r0
 408:.\bmp280.c    **** }
 541              		.loc 1 408 0
 542 0060 02B0     		add	sp, sp, #8
 543              		@ sp needed
 544 0062 70BD     		pop	{r4, r5, r6, pc}
 545              	.L26:
 546              		.align	2
 547              	.L25:
 548 0064 00000000 		.word	.LANCHOR0
 549              		.cfi_endproc
 550              	.LFE5:
 551              		.size	bmp280_read_uncomp_pressure_temperature, .-bmp280_read_uncomp_pressure_temperature
 552              		.section	.text.bmp280_read_pressure_temperature,"ax",%progbits
 553              		.align	2
 554              		.global	bmp280_read_pressure_temperature
 555              		.code	16
 556              		.thumb_func
 557              		.type	bmp280_read_pressure_temperature, %function
 558              	bmp280_read_pressure_temperature:
 559              	.LFB6:
 409:.\bmp280.c    **** /*!
 410:.\bmp280.c    ****  * @brief This API reads the true pressure and temperature
 411:.\bmp280.c    ****  *
 412:.\bmp280.c    ****  *
 413:.\bmp280.c    ****  *  @param  v_pressure_u32 : The value of compensated pressure.
 414:.\bmp280.c    ****  *  @param  v_temperature_s32 : The value of compensated temperature.
 415:.\bmp280.c    ****  *
 416:.\bmp280.c    ****  *
 417:.\bmp280.c    ****  *  @return results of bus communication function
 418:.\bmp280.c    ****  *	@retval 0 -> Success
 419:.\bmp280.c    ****  *	@retval -1 -> Error
 420:.\bmp280.c    ****  *
 421:.\bmp280.c    ****  *
 422:.\bmp280.c    ****  */
 423:.\bmp280.c    **** BMP280_RETURN_FUNCTION_TYPE bmp280_read_pressure_temperature(
 424:.\bmp280.c    **** 		u32 *v_pressure_u32, s32 *v_temperature_s32)
 425:.\bmp280.c    **** {
 560              		.loc 1 425 0
 561              		.cfi_startproc
 562              	.LVL59:
 563 0000 70B5     		push	{r4, r5, r6, lr}
 564              		.cfi_def_cfa_offset 16
 565              		.cfi_offset 4, -16
 566              		.cfi_offset 5, -12
 567              		.cfi_offset 6, -8
ARM GAS  C:\Users\Svilen\AppData\Local\Temp\ccFr0ira.s 			page 19


 568              		.cfi_offset 14, -4
 569 0002 82B0     		sub	sp, sp, #8
 570              		.cfi_def_cfa_offset 24
 571              	.LVL60:
 426:.\bmp280.c    **** 	/* variable used to return communication result*/
 427:.\bmp280.c    **** 	BMP280_RETURN_FUNCTION_TYPE com_rslt = ERROR;
 428:.\bmp280.c    **** 	s32 v_uncomp_pressure_s32 = BMP280_INIT_VALUE;
 572              		.loc 1 428 0
 573 0004 0023     		mov	r3, #0
 574 0006 0193     		str	r3, [sp, #4]
 429:.\bmp280.c    **** 	s32 v_uncomp_temperature_s32 = BMP280_INIT_VALUE;
 575              		.loc 1 429 0
 576 0008 0093     		str	r3, [sp]
 430:.\bmp280.c    **** 	/* check the p_bmp280 structure pointer as NULL*/
 431:.\bmp280.c    **** 	if (p_bmp280 == BMP280_NULL) {
 577              		.loc 1 431 0
 578 000a 0C4B     		ldr	r3, .L30
 579 000c 1B68     		ldr	r3, [r3]
 580 000e 002B     		cmp	r3, #0
 581 0010 0FD0     		beq	.L29
 582 0012 0E1C     		mov	r6, r1
 583 0014 051C     		mov	r5, r0
 432:.\bmp280.c    **** 		com_rslt = E_BMP280_NULL_PTR;
 433:.\bmp280.c    **** 	} else {
 434:.\bmp280.c    **** 		/* read uncompensated pressure and temperature*/
 435:.\bmp280.c    **** 		com_rslt = bmp280_read_uncomp_pressure_temperature(
 584              		.loc 1 435 0
 585 0016 01A8     		add	r0, sp, #4
 586              	.LVL61:
 587 0018 6946     		mov	r1, sp
 588              	.LVL62:
 589 001a FFF7FEFF 		bl	bmp280_read_uncomp_pressure_temperature
 590              	.LVL63:
 591 001e 041C     		mov	r4, r0
 592              	.LVL64:
 436:.\bmp280.c    **** 				&v_uncomp_pressure_s32,
 437:.\bmp280.c    **** 				&v_uncomp_temperature_s32);
 438:.\bmp280.c    **** 		/* read true pressure and temperature*/
 439:.\bmp280.c    **** 		*v_temperature_s32 = bmp280_compensate_temperature_int32(
 593              		.loc 1 439 0
 594 0020 0098     		ldr	r0, [sp]
 595              	.LVL65:
 596 0022 FFF7FEFF 		bl	bmp280_compensate_temperature_int32
 597              	.LVL66:
 598 0026 3060     		str	r0, [r6]
 440:.\bmp280.c    **** 				v_uncomp_temperature_s32);
 441:.\bmp280.c    **** 		*v_pressure_u32 = bmp280_compensate_pressure_int32(
 599              		.loc 1 441 0
 600 0028 0198     		ldr	r0, [sp, #4]
 601 002a FFF7FEFF 		bl	bmp280_compensate_pressure_int32
 602              	.LVL67:
 603 002e 2860     		str	r0, [r5]
 604 0030 00E0     		b	.L28
 605              	.LVL68:
 606              	.L29:
 432:.\bmp280.c    **** 	} else {
 607              		.loc 1 432 0
ARM GAS  C:\Users\Svilen\AppData\Local\Temp\ccFr0ira.s 			page 20


 608 0032 8124     		mov	r4, #129
 609              	.LVL69:
 610              	.L28:
 442:.\bmp280.c    **** 				v_uncomp_pressure_s32);
 443:.\bmp280.c    **** 	}
 444:.\bmp280.c    **** 	return com_rslt;
 611              		.loc 1 444 0
 612 0034 60B2     		sxtb	r0, r4
 445:.\bmp280.c    **** }
 613              		.loc 1 445 0
 614 0036 02B0     		add	sp, sp, #8
 615              		@ sp needed
 616              	.LVL70:
 617 0038 70BD     		pop	{r4, r5, r6, pc}
 618              	.L31:
 619 003a C046     		.align	2
 620              	.L30:
 621 003c 00000000 		.word	.LANCHOR0
 622              		.cfi_endproc
 623              	.LFE6:
 624              		.size	bmp280_read_pressure_temperature, .-bmp280_read_pressure_temperature
 625              		.section	.text.bmp280_get_calib_param,"ax",%progbits
 626              		.align	2
 627              		.global	bmp280_get_calib_param
 628              		.code	16
 629              		.thumb_func
 630              		.type	bmp280_get_calib_param, %function
 631              	bmp280_get_calib_param:
 632              	.LFB7:
 446:.\bmp280.c    **** /*!
 447:.\bmp280.c    ****  *	@brief This API is used to
 448:.\bmp280.c    ****  *	calibration parameters used for calculation in the registers
 449:.\bmp280.c    ****  *
 450:.\bmp280.c    ****  *  parameter | Register address |   bit
 451:.\bmp280.c    ****  *------------|------------------|----------------
 452:.\bmp280.c    ****  *	dig_T1    |  0x88 and 0x89   | from 0 : 7 to 8: 15
 453:.\bmp280.c    ****  *	dig_T2    |  0x8A and 0x8B   | from 0 : 7 to 8: 15
 454:.\bmp280.c    ****  *	dig_T3    |  0x8C and 0x8D   | from 0 : 7 to 8: 15
 455:.\bmp280.c    ****  *	dig_P1    |  0x8E and 0x8F   | from 0 : 7 to 8: 15
 456:.\bmp280.c    ****  *	dig_P2    |  0x90 and 0x91   | from 0 : 7 to 8: 15
 457:.\bmp280.c    ****  *	dig_P3    |  0x92 and 0x93   | from 0 : 7 to 8: 15
 458:.\bmp280.c    ****  *	dig_P4    |  0x94 and 0x95   | from 0 : 7 to 8: 15
 459:.\bmp280.c    ****  *	dig_P5    |  0x96 and 0x97   | from 0 : 7 to 8: 15
 460:.\bmp280.c    ****  *	dig_P6    |  0x98 and 0x99   | from 0 : 7 to 8: 15
 461:.\bmp280.c    ****  *	dig_P7    |  0x9A and 0x9B   | from 0 : 7 to 8: 15
 462:.\bmp280.c    ****  *	dig_P8    |  0x9C and 0x9D   | from 0 : 7 to 8: 15
 463:.\bmp280.c    ****  *	dig_P9    |  0x9E and 0x9F   | from 0 : 7 to 8: 15
 464:.\bmp280.c    ****  *
 465:.\bmp280.c    ****  *	@return results of bus communication function
 466:.\bmp280.c    ****  *	@retval 0 -> Success
 467:.\bmp280.c    ****  *	@retval -1 -> Error
 468:.\bmp280.c    ****  *
 469:.\bmp280.c    ****  *
 470:.\bmp280.c    ****  */
 471:.\bmp280.c    **** BMP280_RETURN_FUNCTION_TYPE bmp280_get_calib_param(void)
 472:.\bmp280.c    **** {
 633              		.loc 1 472 0
ARM GAS  C:\Users\Svilen\AppData\Local\Temp\ccFr0ira.s 			page 21


 634              		.cfi_startproc
 635 0000 10B5     		push	{r4, lr}
 636              		.cfi_def_cfa_offset 8
 637              		.cfi_offset 4, -8
 638              		.cfi_offset 14, -4
 639 0002 86B0     		sub	sp, sp, #24
 640              		.cfi_def_cfa_offset 32
 641              	.LVL71:
 473:.\bmp280.c    **** 	/* variable used to return communication result*/
 474:.\bmp280.c    **** 	BMP280_RETURN_FUNCTION_TYPE com_rslt = ERROR;
 475:.\bmp280.c    **** 	u8 a_data_u8[BMP280_CALIB_DATA_SIZE] = {BMP280_INIT_VALUE,
 642              		.loc 1 475 0
 643 0004 0023     		mov	r3, #0
 644 0006 0093     		str	r3, [sp]
 645 0008 0193     		str	r3, [sp, #4]
 646 000a 0293     		str	r3, [sp, #8]
 647 000c 0393     		str	r3, [sp, #12]
 648 000e 0493     		str	r3, [sp, #16]
 649 0010 0593     		str	r3, [sp, #20]
 476:.\bmp280.c    **** 			BMP280_INIT_VALUE, BMP280_INIT_VALUE, BMP280_INIT_VALUE,
 477:.\bmp280.c    **** 			BMP280_INIT_VALUE, BMP280_INIT_VALUE, BMP280_INIT_VALUE,
 478:.\bmp280.c    **** 			BMP280_INIT_VALUE, BMP280_INIT_VALUE, BMP280_INIT_VALUE,
 479:.\bmp280.c    **** 			BMP280_INIT_VALUE, BMP280_INIT_VALUE, BMP280_INIT_VALUE,
 480:.\bmp280.c    **** 			BMP280_INIT_VALUE, BMP280_INIT_VALUE, BMP280_INIT_VALUE,
 481:.\bmp280.c    **** 			BMP280_INIT_VALUE, BMP280_INIT_VALUE, BMP280_INIT_VALUE,
 482:.\bmp280.c    **** 			BMP280_INIT_VALUE, BMP280_INIT_VALUE, BMP280_INIT_VALUE,
 483:.\bmp280.c    **** 			BMP280_INIT_VALUE, BMP280_INIT_VALUE};
 484:.\bmp280.c    **** 	/* check the p_bmp280 structure pointer as NULL*/
 485:.\bmp280.c    **** 	if (p_bmp280 == BMP280_NULL) {
 650              		.loc 1 485 0
 651 0012 374B     		ldr	r3, .L35
 652 0014 1B68     		ldr	r3, [r3]
 653 0016 002B     		cmp	r3, #0
 654 0018 66D0     		beq	.L34
 486:.\bmp280.c    **** 		com_rslt = E_BMP280_NULL_PTR;
 487:.\bmp280.c    **** 	} else {
 488:.\bmp280.c    **** 		com_rslt = p_bmp280->BMP280_BUS_READ_FUNC(p_bmp280->dev_addr,
 655              		.loc 1 488 0
 656 001a 5C6A     		ldr	r4, [r3, #36]
 657 001c 587F     		ldrb	r0, [r3, #29]
 658 001e 8821     		mov	r1, #136
 659 0020 6A46     		mov	r2, sp
 660 0022 1823     		mov	r3, #24
 661 0024 A047     		blx	r4
 662              	.LVL72:
 489:.\bmp280.c    **** 				BMP280_TEMPERATURE_CALIB_DIG_T1_LSB_REG,
 490:.\bmp280.c    **** 				a_data_u8,
 491:.\bmp280.c    **** 				BMP280_PRESSURE_TEMPERATURE_CALIB_DATA_LENGTH);
 492:.\bmp280.c    **** 		/* read calibration values*/
 493:.\bmp280.c    **** 		p_bmp280->calib_param.dig_T1 = (u16)((((u16)((u8)a_data_u8[
 663              		.loc 1 493 0
 664 0026 324B     		ldr	r3, .L35
 665 0028 1B68     		ldr	r3, [r3]
 666 002a 6A46     		mov	r2, sp
 667 002c 5278     		ldrb	r2, [r2, #1]
 494:.\bmp280.c    **** 					BMP280_TEMPERATURE_CALIB_DIG_T1_MSB]))
 495:.\bmp280.c    **** 					<< BMP280_SHIFT_BIT_POSITION_BY_08_BITS)
ARM GAS  C:\Users\Svilen\AppData\Local\Temp\ccFr0ira.s 			page 22


 668              		.loc 1 495 0
 669 002e 1202     		lsl	r2, r2, #8
 496:.\bmp280.c    **** 					| a_data_u8[
 670              		.loc 1 496 0
 671 0030 6946     		mov	r1, sp
 672 0032 0978     		ldrb	r1, [r1]
 493:.\bmp280.c    **** 					BMP280_TEMPERATURE_CALIB_DIG_T1_MSB]))
 673              		.loc 1 493 0
 674 0034 0A43     		orr	r2, r1
 675 0036 1A80     		strh	r2, [r3]
 497:.\bmp280.c    **** 					BMP280_TEMPERATURE_CALIB_DIG_T1_LSB]);
 498:.\bmp280.c    **** 		p_bmp280->calib_param.dig_T2 = (s16)((((s16)((s8)a_data_u8[
 499:.\bmp280.c    **** 					BMP280_TEMPERATURE_CALIB_DIG_T2_MSB]))
 500:.\bmp280.c    **** 					<< BMP280_SHIFT_BIT_POSITION_BY_08_BITS)
 676              		.loc 1 500 0
 677 0038 6A46     		mov	r2, sp
 678 003a D278     		ldrb	r2, [r2, #3]
 679 003c 52B2     		sxtb	r2, r2
 680 003e 1202     		lsl	r2, r2, #8
 501:.\bmp280.c    **** 					| a_data_u8[
 681              		.loc 1 501 0
 682 0040 6946     		mov	r1, sp
 683 0042 8978     		ldrb	r1, [r1, #2]
 498:.\bmp280.c    **** 					BMP280_TEMPERATURE_CALIB_DIG_T2_MSB]))
 684              		.loc 1 498 0
 685 0044 0A43     		orr	r2, r1
 686 0046 5A80     		strh	r2, [r3, #2]
 502:.\bmp280.c    **** 					BMP280_TEMPERATURE_CALIB_DIG_T2_LSB]);
 503:.\bmp280.c    **** 		p_bmp280->calib_param.dig_T3 = (s16)((((s16)((s8)a_data_u8[
 504:.\bmp280.c    **** 					BMP280_TEMPERATURE_CALIB_DIG_T3_MSB]))
 505:.\bmp280.c    **** 					<< BMP280_SHIFT_BIT_POSITION_BY_08_BITS)
 687              		.loc 1 505 0
 688 0048 6A46     		mov	r2, sp
 689 004a 5279     		ldrb	r2, [r2, #5]
 690 004c 52B2     		sxtb	r2, r2
 691 004e 1202     		lsl	r2, r2, #8
 506:.\bmp280.c    **** 					| a_data_u8[
 692              		.loc 1 506 0
 693 0050 6946     		mov	r1, sp
 694 0052 0979     		ldrb	r1, [r1, #4]
 503:.\bmp280.c    **** 					BMP280_TEMPERATURE_CALIB_DIG_T3_MSB]))
 695              		.loc 1 503 0
 696 0054 0A43     		orr	r2, r1
 697 0056 9A80     		strh	r2, [r3, #4]
 507:.\bmp280.c    **** 					BMP280_TEMPERATURE_CALIB_DIG_T3_LSB]);
 508:.\bmp280.c    **** 		p_bmp280->calib_param.dig_P1 = (u16)((((u16)((u8)a_data_u8[
 698              		.loc 1 508 0
 699 0058 6A46     		mov	r2, sp
 700 005a D279     		ldrb	r2, [r2, #7]
 509:.\bmp280.c    **** 					BMP280_PRESSURE_CALIB_DIG_P1_MSB]))
 510:.\bmp280.c    **** 					<< BMP280_SHIFT_BIT_POSITION_BY_08_BITS)
 701              		.loc 1 510 0
 702 005c 1202     		lsl	r2, r2, #8
 511:.\bmp280.c    **** 					| a_data_u8[
 703              		.loc 1 511 0
 704 005e 6946     		mov	r1, sp
 705 0060 8979     		ldrb	r1, [r1, #6]
ARM GAS  C:\Users\Svilen\AppData\Local\Temp\ccFr0ira.s 			page 23


 508:.\bmp280.c    **** 					BMP280_PRESSURE_CALIB_DIG_P1_MSB]))
 706              		.loc 1 508 0
 707 0062 0A43     		orr	r2, r1
 708 0064 DA80     		strh	r2, [r3, #6]
 512:.\bmp280.c    **** 					BMP280_PRESSURE_CALIB_DIG_P1_LSB]);
 513:.\bmp280.c    **** 		p_bmp280->calib_param.dig_P2 = (s16)((((s16)((s8)a_data_u8[
 514:.\bmp280.c    **** 					BMP280_PRESSURE_CALIB_DIG_P2_MSB]))
 515:.\bmp280.c    **** 					<< BMP280_SHIFT_BIT_POSITION_BY_08_BITS)
 709              		.loc 1 515 0
 710 0066 6A46     		mov	r2, sp
 711 0068 527A     		ldrb	r2, [r2, #9]
 712 006a 52B2     		sxtb	r2, r2
 713 006c 1202     		lsl	r2, r2, #8
 516:.\bmp280.c    **** 					| a_data_u8[
 714              		.loc 1 516 0
 715 006e 6946     		mov	r1, sp
 716 0070 097A     		ldrb	r1, [r1, #8]
 513:.\bmp280.c    **** 					BMP280_PRESSURE_CALIB_DIG_P2_MSB]))
 717              		.loc 1 513 0
 718 0072 0A43     		orr	r2, r1
 719 0074 1A81     		strh	r2, [r3, #8]
 517:.\bmp280.c    **** 					BMP280_PRESSURE_CALIB_DIG_P2_LSB]);
 518:.\bmp280.c    **** 		p_bmp280->calib_param.dig_P3 = (s16)((((s16)((s8)a_data_u8[
 519:.\bmp280.c    **** 					BMP280_PRESSURE_CALIB_DIG_P3_MSB]))
 520:.\bmp280.c    **** 					<< BMP280_SHIFT_BIT_POSITION_BY_08_BITS)
 720              		.loc 1 520 0
 721 0076 6A46     		mov	r2, sp
 722 0078 D27A     		ldrb	r2, [r2, #11]
 723 007a 52B2     		sxtb	r2, r2
 724 007c 1202     		lsl	r2, r2, #8
 521:.\bmp280.c    **** 					| a_data_u8[
 725              		.loc 1 521 0
 726 007e 6946     		mov	r1, sp
 727 0080 897A     		ldrb	r1, [r1, #10]
 518:.\bmp280.c    **** 					BMP280_PRESSURE_CALIB_DIG_P3_MSB]))
 728              		.loc 1 518 0
 729 0082 0A43     		orr	r2, r1
 730 0084 5A81     		strh	r2, [r3, #10]
 522:.\bmp280.c    **** 					BMP280_PRESSURE_CALIB_DIG_P3_LSB]);
 523:.\bmp280.c    **** 		p_bmp280->calib_param.dig_P4 = (s16)((((s16)((s8)a_data_u8[
 524:.\bmp280.c    **** 					BMP280_PRESSURE_CALIB_DIG_P4_MSB]))
 525:.\bmp280.c    **** 					<< BMP280_SHIFT_BIT_POSITION_BY_08_BITS)
 731              		.loc 1 525 0
 732 0086 6A46     		mov	r2, sp
 733 0088 527B     		ldrb	r2, [r2, #13]
 734 008a 52B2     		sxtb	r2, r2
 735 008c 1202     		lsl	r2, r2, #8
 526:.\bmp280.c    **** 					| a_data_u8[
 736              		.loc 1 526 0
 737 008e 6946     		mov	r1, sp
 738 0090 097B     		ldrb	r1, [r1, #12]
 523:.\bmp280.c    **** 					BMP280_PRESSURE_CALIB_DIG_P4_MSB]))
 739              		.loc 1 523 0
 740 0092 0A43     		orr	r2, r1
 741 0094 9A81     		strh	r2, [r3, #12]
 527:.\bmp280.c    **** 					BMP280_PRESSURE_CALIB_DIG_P4_LSB]);
 528:.\bmp280.c    **** 		p_bmp280->calib_param.dig_P5 = (s16)((((s16)((s8)a_data_u8[
ARM GAS  C:\Users\Svilen\AppData\Local\Temp\ccFr0ira.s 			page 24


 529:.\bmp280.c    **** 					BMP280_PRESSURE_CALIB_DIG_P5_MSB]))
 530:.\bmp280.c    **** 					<< BMP280_SHIFT_BIT_POSITION_BY_08_BITS)
 742              		.loc 1 530 0
 743 0096 6A46     		mov	r2, sp
 744 0098 D27B     		ldrb	r2, [r2, #15]
 745 009a 52B2     		sxtb	r2, r2
 746 009c 1202     		lsl	r2, r2, #8
 531:.\bmp280.c    **** 					| a_data_u8[
 747              		.loc 1 531 0
 748 009e 6946     		mov	r1, sp
 749 00a0 897B     		ldrb	r1, [r1, #14]
 528:.\bmp280.c    **** 					BMP280_PRESSURE_CALIB_DIG_P5_MSB]))
 750              		.loc 1 528 0
 751 00a2 0A43     		orr	r2, r1
 752 00a4 DA81     		strh	r2, [r3, #14]
 532:.\bmp280.c    **** 					BMP280_PRESSURE_CALIB_DIG_P5_LSB]);
 533:.\bmp280.c    **** 		p_bmp280->calib_param.dig_P6 = (s16)((((s16)((s8)a_data_u8[
 534:.\bmp280.c    **** 					BMP280_PRESSURE_CALIB_DIG_P6_MSB]))
 535:.\bmp280.c    **** 					<< BMP280_SHIFT_BIT_POSITION_BY_08_BITS)
 753              		.loc 1 535 0
 754 00a6 6A46     		mov	r2, sp
 755 00a8 527C     		ldrb	r2, [r2, #17]
 756 00aa 52B2     		sxtb	r2, r2
 757 00ac 1202     		lsl	r2, r2, #8
 536:.\bmp280.c    **** 					| a_data_u8[
 758              		.loc 1 536 0
 759 00ae 6946     		mov	r1, sp
 760 00b0 097C     		ldrb	r1, [r1, #16]
 533:.\bmp280.c    **** 					BMP280_PRESSURE_CALIB_DIG_P6_MSB]))
 761              		.loc 1 533 0
 762 00b2 0A43     		orr	r2, r1
 763 00b4 1A82     		strh	r2, [r3, #16]
 537:.\bmp280.c    **** 					BMP280_PRESSURE_CALIB_DIG_P6_LSB]);
 538:.\bmp280.c    **** 		p_bmp280->calib_param.dig_P7 = (s16)((((s16)((s8)a_data_u8[
 539:.\bmp280.c    **** 					BMP280_PRESSURE_CALIB_DIG_P7_MSB]))
 540:.\bmp280.c    **** 					<< BMP280_SHIFT_BIT_POSITION_BY_08_BITS)
 764              		.loc 1 540 0
 765 00b6 6A46     		mov	r2, sp
 766 00b8 D27C     		ldrb	r2, [r2, #19]
 767 00ba 52B2     		sxtb	r2, r2
 768 00bc 1202     		lsl	r2, r2, #8
 541:.\bmp280.c    **** 					| a_data_u8[
 769              		.loc 1 541 0
 770 00be 6946     		mov	r1, sp
 771 00c0 897C     		ldrb	r1, [r1, #18]
 538:.\bmp280.c    **** 					BMP280_PRESSURE_CALIB_DIG_P7_MSB]))
 772              		.loc 1 538 0
 773 00c2 0A43     		orr	r2, r1
 774 00c4 5A82     		strh	r2, [r3, #18]
 542:.\bmp280.c    **** 					BMP280_PRESSURE_CALIB_DIG_P7_LSB]);
 543:.\bmp280.c    **** 		p_bmp280->calib_param.dig_P8 = (s16)((((s16)((s8)a_data_u8[
 544:.\bmp280.c    **** 					BMP280_PRESSURE_CALIB_DIG_P8_MSB]))
 545:.\bmp280.c    **** 					<< BMP280_SHIFT_BIT_POSITION_BY_08_BITS)
 775              		.loc 1 545 0
 776 00c6 6A46     		mov	r2, sp
 777 00c8 527D     		ldrb	r2, [r2, #21]
 778 00ca 52B2     		sxtb	r2, r2
ARM GAS  C:\Users\Svilen\AppData\Local\Temp\ccFr0ira.s 			page 25


 779 00cc 1202     		lsl	r2, r2, #8
 546:.\bmp280.c    **** 					| a_data_u8[
 780              		.loc 1 546 0
 781 00ce 6946     		mov	r1, sp
 782 00d0 097D     		ldrb	r1, [r1, #20]
 543:.\bmp280.c    **** 					BMP280_PRESSURE_CALIB_DIG_P8_MSB]))
 783              		.loc 1 543 0
 784 00d2 0A43     		orr	r2, r1
 785 00d4 9A82     		strh	r2, [r3, #20]
 547:.\bmp280.c    **** 					BMP280_PRESSURE_CALIB_DIG_P8_LSB]);
 548:.\bmp280.c    **** 		p_bmp280->calib_param.dig_P9 = (s16)((((s16)((s8)a_data_u8[
 549:.\bmp280.c    **** 					BMP280_PRESSURE_CALIB_DIG_P9_MSB]))
 550:.\bmp280.c    **** 					<< BMP280_SHIFT_BIT_POSITION_BY_08_BITS)
 786              		.loc 1 550 0
 787 00d6 6A46     		mov	r2, sp
 788 00d8 D27D     		ldrb	r2, [r2, #23]
 789 00da 52B2     		sxtb	r2, r2
 790 00dc 1202     		lsl	r2, r2, #8
 551:.\bmp280.c    **** 					| a_data_u8[
 791              		.loc 1 551 0
 792 00de 6946     		mov	r1, sp
 793 00e0 897D     		ldrb	r1, [r1, #22]
 548:.\bmp280.c    **** 					BMP280_PRESSURE_CALIB_DIG_P9_MSB]))
 794              		.loc 1 548 0
 795 00e2 0A43     		orr	r2, r1
 796 00e4 DA82     		strh	r2, [r3, #22]
 797 00e6 00E0     		b	.L33
 798              	.LVL73:
 799              	.L34:
 486:.\bmp280.c    **** 	} else {
 800              		.loc 1 486 0
 801 00e8 8120     		mov	r0, #129
 802              	.LVL74:
 803              	.L33:
 552:.\bmp280.c    **** 					BMP280_PRESSURE_CALIB_DIG_P9_LSB]);
 553:.\bmp280.c    **** 	}
 554:.\bmp280.c    **** 	return com_rslt;
 804              		.loc 1 554 0
 805 00ea 40B2     		sxtb	r0, r0
 555:.\bmp280.c    **** }
 806              		.loc 1 555 0
 807 00ec 06B0     		add	sp, sp, #24
 808              		@ sp needed
 809 00ee 10BD     		pop	{r4, pc}
 810              	.L36:
 811              		.align	2
 812              	.L35:
 813 00f0 00000000 		.word	.LANCHOR0
 814              		.cfi_endproc
 815              	.LFE7:
 816              		.size	bmp280_get_calib_param, .-bmp280_get_calib_param
 817              		.section	.text.bmp280_init,"ax",%progbits
 818              		.align	2
 819              		.global	bmp280_init
 820              		.code	16
 821              		.thumb_func
 822              		.type	bmp280_init, %function
ARM GAS  C:\Users\Svilen\AppData\Local\Temp\ccFr0ira.s 			page 26


 823              	bmp280_init:
 824              	.LFB0:
  84:.\bmp280.c    **** 	/* variable used to return communication result*/
 825              		.loc 1 84 0
 826              		.cfi_startproc
 827              	.LVL75:
 828 0000 70B5     		push	{r4, r5, r6, lr}
 829              		.cfi_def_cfa_offset 16
 830              		.cfi_offset 4, -16
 831              		.cfi_offset 5, -12
 832              		.cfi_offset 6, -8
 833              		.cfi_offset 14, -4
 834 0002 82B0     		sub	sp, sp, #8
 835              		.cfi_def_cfa_offset 24
 836              	.LVL76:
  87:.\bmp280.c    **** 	u8 v_chip_id_read_count = BMP280_CHIP_ID_READ_COUNT;
 837              		.loc 1 87 0
 838 0004 0022     		mov	r2, #0
 839 0006 6B46     		mov	r3, sp
 840 0008 DA71     		strb	r2, [r3, #7]
 841              	.LVL77:
  90:.\bmp280.c    **** 
 842              		.loc 1 90 0
 843 000a 174B     		ldr	r3, .L44
 844 000c 1860     		str	r0, [r3]
  88:.\bmp280.c    **** 
 845              		.loc 1 88 0
 846 000e 0524     		mov	r4, #5
  92:.\bmp280.c    **** 		/* read chip id */
 847              		.loc 1 92 0
 848 0010 14E0     		b	.L38
 849              	.LVL78:
 850              	.L40:
  94:.\bmp280.c    **** 				BMP280_CHIP_ID_REG, &v_data_u8,
 851              		.loc 1 94 0
 852 0012 154B     		ldr	r3, .L44
 853 0014 1B68     		ldr	r3, [r3]
 854 0016 5E6A     		ldr	r6, [r3, #36]
 855 0018 587F     		ldrb	r0, [r3, #29]
 856 001a 6B46     		mov	r3, sp
 857 001c DD1D     		add	r5, r3, #7
 858 001e D021     		mov	r1, #208
 859 0020 2A1C     		mov	r2, r5
 860 0022 0123     		mov	r3, #1
 861 0024 B047     		blx	r6
 862              	.LVL79:
 100:.\bmp280.c    **** 			break;
 863              		.loc 1 100 0
 864 0026 2B78     		ldrb	r3, [r5]
 865 0028 563B     		sub	r3, r3, #86
  98:.\bmp280.c    **** 			|| (v_data_u8 == BMP280_CHIP_ID2)
 866              		.loc 1 98 0
 867 002a 022B     		cmp	r3, #2
 868 002c 08D9     		bls	.L39
 102:.\bmp280.c    **** 		/* Delay added concerning the low speed of power up system to
 869              		.loc 1 102 0
 870 002e 013C     		sub	r4, r4, #1
ARM GAS  C:\Users\Svilen\AppData\Local\Temp\ccFr0ira.s 			page 27


 871              	.LVL80:
 872 0030 E4B2     		uxtb	r4, r4
 873              	.LVL81:
 105:.\bmp280.c    **** 	}
 874              		.loc 1 105 0
 875 0032 0D4B     		ldr	r3, .L44
 876 0034 1B68     		ldr	r3, [r3]
 877 0036 9B6A     		ldr	r3, [r3, #40]
 878 0038 0120     		mov	r0, #1
 879 003a 9847     		blx	r3
 880              	.LVL82:
 881              	.L38:
  92:.\bmp280.c    **** 		/* read chip id */
 882              		.loc 1 92 0
 883 003c 002C     		cmp	r4, #0
 884 003e E8D1     		bne	.L40
 885              	.L39:
 109:.\bmp280.c    **** 	/*com_rslt status of chip ID read*/
 886              		.loc 1 109 0
 887 0040 094B     		ldr	r3, .L44
 888 0042 1B68     		ldr	r3, [r3]
 889 0044 6A46     		mov	r2, sp
 890 0046 0732     		add	r2, r2, #7
 891 0048 1278     		ldrb	r2, [r2]
 892 004a 1A77     		strb	r2, [r3, #28]
 111:.\bmp280.c    **** 			BMP280_CHIP_ID_READ_FAIL : BMP280_CHIP_ID_READ_SUCCESS;
 893              		.loc 1 111 0
 894 004c 002C     		cmp	r4, #0
 895 004e 01D1     		bne	.L43
 896 0050 FF34     		add	r4, r4, #255
 897              	.LVL83:
 898 0052 00E0     		b	.L41
 899              	.LVL84:
 900              	.L43:
 901 0054 0024     		mov	r4, #0
 902              	.LVL85:
 903              	.L41:
 114:.\bmp280.c    **** 		/* readout bmp280 calibration parameter structure */
 904              		.loc 1 114 0 discriminator 4
 905 0056 002C     		cmp	r4, #0
 906 0058 03D1     		bne	.L42
 116:.\bmp280.c    **** 	}
 907              		.loc 1 116 0
 908 005a FFF7FEFF 		bl	bmp280_get_calib_param
 909              	.LVL86:
 910 005e 0419     		add	r4, r0, r4
 911              	.LVL87:
 912 0060 E4B2     		uxtb	r4, r4
 913              	.LVL88:
 914              	.L42:
 118:.\bmp280.c    **** }
 915              		.loc 1 118 0
 916 0062 60B2     		sxtb	r0, r4
 119:.\bmp280.c    **** /*!
 917              		.loc 1 119 0
 918 0064 02B0     		add	sp, sp, #8
 919              		@ sp needed
ARM GAS  C:\Users\Svilen\AppData\Local\Temp\ccFr0ira.s 			page 28


 920              	.LVL89:
 921 0066 70BD     		pop	{r4, r5, r6, pc}
 922              	.L45:
 923              		.align	2
 924              	.L44:
 925 0068 00000000 		.word	.LANCHOR0
 926              		.cfi_endproc
 927              	.LFE0:
 928              		.size	bmp280_init, .-bmp280_init
 929              		.section	.text.bmp280_get_oversamp_temperature,"ax",%progbits
 930              		.align	2
 931              		.global	bmp280_get_oversamp_temperature
 932              		.code	16
 933              		.thumb_func
 934              		.type	bmp280_get_oversamp_temperature, %function
 935              	bmp280_get_oversamp_temperature:
 936              	.LFB8:
 556:.\bmp280.c    **** /*!
 557:.\bmp280.c    ****  *	@brief This API is used to get
 558:.\bmp280.c    ****  *	the temperature oversampling setting in the register 0xF4
 559:.\bmp280.c    ****  *	bits from 5 to 7
 560:.\bmp280.c    ****  *
 561:.\bmp280.c    ****  *        value             | Temperature oversampling
 562:.\bmp280.c    ****  *  ------------------------|------------------------------
 563:.\bmp280.c    ****  *       0x00               |  BMP280_OVERSAMP_SKIPPED
 564:.\bmp280.c    ****  *       0x01               |  BMP280_OVERSAMP_1X
 565:.\bmp280.c    ****  *       0x02               |  BMP280_OVERSAMP_2X
 566:.\bmp280.c    ****  *       0x03               |  BMP280_OVERSAMP_4X
 567:.\bmp280.c    ****  *       0x04               |  BMP280_OVERSAMP_8X
 568:.\bmp280.c    ****  *       0x05,0x06 and 0x07 |  BMP280_OVERSAMP_16X
 569:.\bmp280.c    ****  *
 570:.\bmp280.c    ****  *
 571:.\bmp280.c    ****  *  @param v_value_u8 :The value of temperature over sampling
 572:.\bmp280.c    ****  *
 573:.\bmp280.c    ****  *
 574:.\bmp280.c    ****  *
 575:.\bmp280.c    ****  *  @return results of bus communication function
 576:.\bmp280.c    ****  *	@retval 0 -> Success
 577:.\bmp280.c    ****  *	@retval -1 -> Error
 578:.\bmp280.c    ****  *
 579:.\bmp280.c    ****  *
 580:.\bmp280.c    ****  */
 581:.\bmp280.c    **** BMP280_RETURN_FUNCTION_TYPE bmp280_get_oversamp_temperature(u8 *v_value_u8)
 582:.\bmp280.c    **** {
 937              		.loc 1 582 0
 938              		.cfi_startproc
 939              	.LVL90:
 940 0000 70B5     		push	{r4, r5, r6, lr}
 941              		.cfi_def_cfa_offset 16
 942              		.cfi_offset 4, -16
 943              		.cfi_offset 5, -12
 944              		.cfi_offset 6, -8
 945              		.cfi_offset 14, -4
 946 0002 82B0     		sub	sp, sp, #8
 947              		.cfi_def_cfa_offset 24
 948              	.LVL91:
 583:.\bmp280.c    **** 	/* variable used to return communication result*/
ARM GAS  C:\Users\Svilen\AppData\Local\Temp\ccFr0ira.s 			page 29


 584:.\bmp280.c    **** 	BMP280_RETURN_FUNCTION_TYPE com_rslt = ERROR;
 585:.\bmp280.c    **** 	u8 v_data_u8 = BMP280_INIT_VALUE;
 949              		.loc 1 585 0
 950 0004 0022     		mov	r2, #0
 951 0006 6B46     		mov	r3, sp
 952 0008 DA71     		strb	r2, [r3, #7]
 586:.\bmp280.c    **** 	/* check the p_bmp280 structure pointer as NULL*/
 587:.\bmp280.c    **** 	if (p_bmp280 == BMP280_NULL) {
 953              		.loc 1 587 0
 954 000a 0C4B     		ldr	r3, .L49
 955 000c 1B68     		ldr	r3, [r3]
 956 000e 002B     		cmp	r3, #0
 957 0010 0FD0     		beq	.L48
 958 0012 051C     		mov	r5, r0
 588:.\bmp280.c    **** 		com_rslt = E_BMP280_NULL_PTR;
 589:.\bmp280.c    **** 	} else {
 590:.\bmp280.c    **** 		/* read temperature over sampling*/
 591:.\bmp280.c    **** 		com_rslt = p_bmp280->BMP280_BUS_READ_FUNC(p_bmp280->dev_addr,
 959              		.loc 1 591 0
 960 0014 5E6A     		ldr	r6, [r3, #36]
 961 0016 587F     		ldrb	r0, [r3, #29]
 962              	.LVL92:
 963 0018 6B46     		mov	r3, sp
 964 001a DC1D     		add	r4, r3, #7
 965 001c F421     		mov	r1, #244
 966 001e 221C     		mov	r2, r4
 967 0020 0123     		mov	r3, #1
 968 0022 B047     		blx	r6
 969              	.LVL93:
 592:.\bmp280.c    **** 				BMP280_CTRL_MEAS_REG_OVERSAMP_TEMPERATURE__REG,
 593:.\bmp280.c    **** 				&v_data_u8, BMP280_GEN_READ_WRITE_DATA_LENGTH);
 594:.\bmp280.c    **** 		*v_value_u8 = BMP280_GET_BITSLICE(v_data_u8,
 970              		.loc 1 594 0
 971 0024 2378     		ldrb	r3, [r4]
 972 0026 5B09     		lsr	r3, r3, #5
 973 0028 2B70     		strb	r3, [r5]
 595:.\bmp280.c    **** 				BMP280_CTRL_MEAS_REG_OVERSAMP_TEMPERATURE);
 596:.\bmp280.c    **** 		/* assign temperature oversampling*/
 597:.\bmp280.c    **** 		p_bmp280->oversamp_temperature = *v_value_u8;
 974              		.loc 1 597 0
 975 002a 044A     		ldr	r2, .L49
 976 002c 1268     		ldr	r2, [r2]
 977 002e 9377     		strb	r3, [r2, #30]
 978 0030 00E0     		b	.L47
 979              	.LVL94:
 980              	.L48:
 588:.\bmp280.c    **** 	} else {
 981              		.loc 1 588 0
 982 0032 8120     		mov	r0, #129
 983              	.LVL95:
 984              	.L47:
 598:.\bmp280.c    **** 	}
 599:.\bmp280.c    **** 	return com_rslt;
 985              		.loc 1 599 0
 986 0034 40B2     		sxtb	r0, r0
 600:.\bmp280.c    **** }
 987              		.loc 1 600 0
ARM GAS  C:\Users\Svilen\AppData\Local\Temp\ccFr0ira.s 			page 30


 988 0036 02B0     		add	sp, sp, #8
 989              		@ sp needed
 990 0038 70BD     		pop	{r4, r5, r6, pc}
 991              	.L50:
 992 003a C046     		.align	2
 993              	.L49:
 994 003c 00000000 		.word	.LANCHOR0
 995              		.cfi_endproc
 996              	.LFE8:
 997              		.size	bmp280_get_oversamp_temperature, .-bmp280_get_oversamp_temperature
 998              		.section	.text.bmp280_set_oversamp_temperature,"ax",%progbits
 999              		.align	2
 1000              		.global	bmp280_set_oversamp_temperature
 1001              		.code	16
 1002              		.thumb_func
 1003              		.type	bmp280_set_oversamp_temperature, %function
 1004              	bmp280_set_oversamp_temperature:
 1005              	.LFB9:
 601:.\bmp280.c    **** /*!
 602:.\bmp280.c    ****  *	@brief This API is used to set
 603:.\bmp280.c    ****  *	the temperature oversampling setting in the register 0xF4
 604:.\bmp280.c    ****  *	bits from 5 to 7
 605:.\bmp280.c    ****  *
 606:.\bmp280.c    ****  *        value             | Temperature oversampling
 607:.\bmp280.c    ****  *  ------------------------|------------------------------
 608:.\bmp280.c    ****  *       0x00               |  BMP280_OVERSAMP_SKIPPED
 609:.\bmp280.c    ****  *       0x01               |  BMP280_OVERSAMP_1X
 610:.\bmp280.c    ****  *       0x02               |  BMP280_OVERSAMP_2X
 611:.\bmp280.c    ****  *       0x03               |  BMP280_OVERSAMP_4X
 612:.\bmp280.c    ****  *       0x04               |  BMP280_OVERSAMP_8X
 613:.\bmp280.c    ****  *       0x05,0x06 and 0x07 |  BMP280_OVERSAMP_16X
 614:.\bmp280.c    ****  *
 615:.\bmp280.c    ****  *
 616:.\bmp280.c    ****  *  @param v_value_u8 :The value of temperature over sampling
 617:.\bmp280.c    ****  *
 618:.\bmp280.c    ****  *
 619:.\bmp280.c    ****  *
 620:.\bmp280.c    ****  *  @return results of bus communication function
 621:.\bmp280.c    ****  *	@retval 0 -> Success
 622:.\bmp280.c    ****  *	@retval -1 -> Error
 623:.\bmp280.c    ****  *
 624:.\bmp280.c    ****  *
 625:.\bmp280.c    ****  */
 626:.\bmp280.c    **** BMP280_RETURN_FUNCTION_TYPE bmp280_set_oversamp_temperature(u8 v_value_u8)
 627:.\bmp280.c    **** {
 1006              		.loc 1 627 0
 1007              		.cfi_startproc
 1008              	.LVL96:
 1009 0000 F0B5     		push	{r4, r5, r6, r7, lr}
 1010              		.cfi_def_cfa_offset 20
 1011              		.cfi_offset 4, -20
 1012              		.cfi_offset 5, -16
 1013              		.cfi_offset 6, -12
 1014              		.cfi_offset 7, -8
 1015              		.cfi_offset 14, -4
 1016 0002 83B0     		sub	sp, sp, #12
 1017              		.cfi_def_cfa_offset 32
ARM GAS  C:\Users\Svilen\AppData\Local\Temp\ccFr0ira.s 			page 31


 1018 0004 051C     		mov	r5, r0
 1019              	.LVL97:
 628:.\bmp280.c    **** 	/* variable used to return communication result*/
 629:.\bmp280.c    **** 	BMP280_RETURN_FUNCTION_TYPE com_rslt = ERROR;
 630:.\bmp280.c    **** 	u8 v_data_u8 = BMP280_INIT_VALUE;
 1020              		.loc 1 630 0
 1021 0006 0022     		mov	r2, #0
 1022 0008 6B46     		mov	r3, sp
 1023 000a DA71     		strb	r2, [r3, #7]
 631:.\bmp280.c    **** 	/* check the p_bmp280 structure pointer as NULL*/
 632:.\bmp280.c    **** 	if (p_bmp280 == BMP280_NULL) {
 1024              		.loc 1 632 0
 1025 000c 124B     		ldr	r3, .L54
 1026 000e 1B68     		ldr	r3, [r3]
 1027 0010 002B     		cmp	r3, #0
 1028 0012 1CD0     		beq	.L53
 633:.\bmp280.c    **** 		com_rslt = E_BMP280_NULL_PTR;
 634:.\bmp280.c    **** 	} else {
 635:.\bmp280.c    **** 		com_rslt = p_bmp280->BMP280_BUS_READ_FUNC(p_bmp280->dev_addr,
 1029              		.loc 1 635 0
 1030 0014 5C6A     		ldr	r4, [r3, #36]
 1031 0016 587F     		ldrb	r0, [r3, #29]
 1032              	.LVL98:
 1033 0018 F421     		mov	r1, #244
 1034 001a 6B46     		mov	r3, sp
 1035 001c DA1D     		add	r2, r3, #7
 1036 001e 0123     		mov	r3, #1
 1037 0020 A047     		blx	r4
 1038              	.LVL99:
 1039 0022 041E     		sub	r4, r0, #0
 1040              	.LVL100:
 636:.\bmp280.c    **** 				BMP280_CTRL_MEAS_REG_OVERSAMP_TEMPERATURE__REG,
 637:.\bmp280.c    **** 				&v_data_u8, BMP280_GEN_READ_WRITE_DATA_LENGTH);
 638:.\bmp280.c    **** 		if (com_rslt == SUCCESS) {
 1041              		.loc 1 638 0
 1042 0024 14D1     		bne	.L52
 639:.\bmp280.c    **** 			/* write over sampling*/
 640:.\bmp280.c    **** 			v_data_u8 = BMP280_SET_BITSLICE(v_data_u8,
 1043              		.loc 1 640 0
 1044 0026 6901     		lsl	r1, r5, #5
 1045 0028 6B46     		mov	r3, sp
 1046 002a DA1D     		add	r2, r3, #7
 1047 002c 1378     		ldrb	r3, [r2]
 1048 002e 1F30     		add	r0, r0, #31
 1049 0030 0340     		and	r3, r0
 1050 0032 0B43     		orr	r3, r1
 1051 0034 1370     		strb	r3, [r2]
 641:.\bmp280.c    **** 				BMP280_CTRL_MEAS_REG_OVERSAMP_TEMPERATURE,
 642:.\bmp280.c    **** 				v_value_u8);
 643:.\bmp280.c    **** 			com_rslt += p_bmp280->BMP280_BUS_WRITE_FUNC(
 1052              		.loc 1 643 0
 1053 0036 084E     		ldr	r6, .L54
 1054 0038 3368     		ldr	r3, [r6]
 1055 003a 1F6A     		ldr	r7, [r3, #32]
 1056 003c 587F     		ldrb	r0, [r3, #29]
 1057 003e F421     		mov	r1, #244
 1058 0040 0123     		mov	r3, #1
ARM GAS  C:\Users\Svilen\AppData\Local\Temp\ccFr0ira.s 			page 32


 1059 0042 B847     		blx	r7
 1060              	.LVL101:
 1061 0044 0019     		add	r0, r0, r4
 1062 0046 C0B2     		uxtb	r0, r0
 1063              	.LVL102:
 644:.\bmp280.c    **** 				p_bmp280->dev_addr,
 645:.\bmp280.c    **** 				BMP280_CTRL_MEAS_REG_OVERSAMP_TEMPERATURE__REG,
 646:.\bmp280.c    **** 				&v_data_u8,
 647:.\bmp280.c    **** 				BMP280_GEN_READ_WRITE_DATA_LENGTH);
 648:.\bmp280.c    **** 			p_bmp280->oversamp_temperature = v_value_u8;
 1064              		.loc 1 648 0
 1065 0048 3368     		ldr	r3, [r6]
 1066 004a 9D77     		strb	r5, [r3, #30]
 1067 004c 00E0     		b	.L52
 1068              	.LVL103:
 1069              	.L53:
 633:.\bmp280.c    **** 	} else {
 1070              		.loc 1 633 0
 1071 004e 8120     		mov	r0, #129
 1072              	.LVL104:
 1073              	.L52:
 649:.\bmp280.c    **** 		}
 650:.\bmp280.c    **** 	}
 651:.\bmp280.c    **** 	return com_rslt;
 1074              		.loc 1 651 0
 1075 0050 40B2     		sxtb	r0, r0
 652:.\bmp280.c    **** }
 1076              		.loc 1 652 0
 1077 0052 03B0     		add	sp, sp, #12
 1078              		@ sp needed
 1079 0054 F0BD     		pop	{r4, r5, r6, r7, pc}
 1080              	.L55:
 1081 0056 C046     		.align	2
 1082              	.L54:
 1083 0058 00000000 		.word	.LANCHOR0
 1084              		.cfi_endproc
 1085              	.LFE9:
 1086              		.size	bmp280_set_oversamp_temperature, .-bmp280_set_oversamp_temperature
 1087              		.section	.text.bmp280_get_oversamp_pressure,"ax",%progbits
 1088              		.align	2
 1089              		.global	bmp280_get_oversamp_pressure
 1090              		.code	16
 1091              		.thumb_func
 1092              		.type	bmp280_get_oversamp_pressure, %function
 1093              	bmp280_get_oversamp_pressure:
 1094              	.LFB10:
 653:.\bmp280.c    **** /*!
 654:.\bmp280.c    ****  *	@brief This API is used to get
 655:.\bmp280.c    ****  *	the pressure oversampling setting in the register 0xF4
 656:.\bmp280.c    ****  *	bits from 2 to 4
 657:.\bmp280.c    ****  *
 658:.\bmp280.c    ****  *        value             | Pressure oversampling
 659:.\bmp280.c    ****  *  ------------------------|------------------------------
 660:.\bmp280.c    ****  *       0x00               |  BMP280_OVERSAMP_SKIPPED
 661:.\bmp280.c    ****  *       0x01               |  BMP280_OVERSAMP_1X
 662:.\bmp280.c    ****  *       0x02               |  BMP280_OVERSAMP_2X
 663:.\bmp280.c    ****  *       0x03               |  BMP280_OVERSAMP_4X
ARM GAS  C:\Users\Svilen\AppData\Local\Temp\ccFr0ira.s 			page 33


 664:.\bmp280.c    ****  *       0x04               |  BMP280_OVERSAMP_8X
 665:.\bmp280.c    ****  *       0x05,0x06 and 0x07 |  BMP280_OVERSAMP_16X
 666:.\bmp280.c    ****  *
 667:.\bmp280.c    ****  *
 668:.\bmp280.c    ****  *  @param  v_value_u8 : The value of pressure over sampling
 669:.\bmp280.c    ****  *
 670:.\bmp280.c    ****  *
 671:.\bmp280.c    ****  *
 672:.\bmp280.c    ****  *  @return results of bus communication function
 673:.\bmp280.c    ****  *	@retval 0 -> Success
 674:.\bmp280.c    ****  *	@retval -1 -> Error
 675:.\bmp280.c    ****  *
 676:.\bmp280.c    ****  *
 677:.\bmp280.c    ****  */
 678:.\bmp280.c    **** BMP280_RETURN_FUNCTION_TYPE bmp280_get_oversamp_pressure(u8 *v_value_u8)
 679:.\bmp280.c    **** {
 1095              		.loc 1 679 0
 1096              		.cfi_startproc
 1097              	.LVL105:
 1098 0000 70B5     		push	{r4, r5, r6, lr}
 1099              		.cfi_def_cfa_offset 16
 1100              		.cfi_offset 4, -16
 1101              		.cfi_offset 5, -12
 1102              		.cfi_offset 6, -8
 1103              		.cfi_offset 14, -4
 1104 0002 82B0     		sub	sp, sp, #8
 1105              		.cfi_def_cfa_offset 24
 1106              	.LVL106:
 680:.\bmp280.c    **** 	/* variable used to return communication result*/
 681:.\bmp280.c    **** 	BMP280_RETURN_FUNCTION_TYPE com_rslt = ERROR;
 682:.\bmp280.c    **** 	u8 v_data_u8 = BMP280_INIT_VALUE;
 1107              		.loc 1 682 0
 1108 0004 0022     		mov	r2, #0
 1109 0006 6B46     		mov	r3, sp
 1110 0008 DA71     		strb	r2, [r3, #7]
 683:.\bmp280.c    **** 	/* check the p_bmp280 structure pointer as NULL*/
 684:.\bmp280.c    **** 	if (p_bmp280 == BMP280_NULL) {
 1111              		.loc 1 684 0
 1112 000a 0C4B     		ldr	r3, .L59
 1113 000c 1B68     		ldr	r3, [r3]
 1114 000e 002B     		cmp	r3, #0
 1115 0010 10D0     		beq	.L58
 1116 0012 051C     		mov	r5, r0
 685:.\bmp280.c    **** 		com_rslt = E_BMP280_NULL_PTR;
 686:.\bmp280.c    **** 	} else {
 687:.\bmp280.c    **** 		/* read pressure over sampling */
 688:.\bmp280.c    **** 		com_rslt = p_bmp280->BMP280_BUS_READ_FUNC(p_bmp280->dev_addr,
 1117              		.loc 1 688 0
 1118 0014 5E6A     		ldr	r6, [r3, #36]
 1119 0016 587F     		ldrb	r0, [r3, #29]
 1120              	.LVL107:
 1121 0018 6B46     		mov	r3, sp
 1122 001a DC1D     		add	r4, r3, #7
 1123 001c F421     		mov	r1, #244
 1124 001e 221C     		mov	r2, r4
 1125 0020 0123     		mov	r3, #1
 1126 0022 B047     		blx	r6
ARM GAS  C:\Users\Svilen\AppData\Local\Temp\ccFr0ira.s 			page 34


 1127              	.LVL108:
 689:.\bmp280.c    **** 				BMP280_CTRL_MEAS_REG_OVERSAMP_PRESSURE__REG,
 690:.\bmp280.c    **** 				&v_data_u8, BMP280_GEN_READ_WRITE_DATA_LENGTH);
 691:.\bmp280.c    **** 		*v_value_u8 = BMP280_GET_BITSLICE(v_data_u8,
 1128              		.loc 1 691 0
 1129 0024 2378     		ldrb	r3, [r4]
 1130 0026 DB06     		lsl	r3, r3, #27
 1131 0028 5B0F     		lsr	r3, r3, #29
 1132 002a 2B70     		strb	r3, [r5]
 692:.\bmp280.c    **** 				BMP280_CTRL_MEAS_REG_OVERSAMP_PRESSURE);
 693:.\bmp280.c    **** 
 694:.\bmp280.c    **** 		p_bmp280->oversamp_pressure = *v_value_u8;
 1133              		.loc 1 694 0
 1134 002c 034A     		ldr	r2, .L59
 1135 002e 1268     		ldr	r2, [r2]
 1136 0030 D377     		strb	r3, [r2, #31]
 1137 0032 00E0     		b	.L57
 1138              	.LVL109:
 1139              	.L58:
 685:.\bmp280.c    **** 	} else {
 1140              		.loc 1 685 0
 1141 0034 8120     		mov	r0, #129
 1142              	.LVL110:
 1143              	.L57:
 695:.\bmp280.c    **** 	}
 696:.\bmp280.c    **** 	return com_rslt;
 1144              		.loc 1 696 0
 1145 0036 40B2     		sxtb	r0, r0
 697:.\bmp280.c    **** }
 1146              		.loc 1 697 0
 1147 0038 02B0     		add	sp, sp, #8
 1148              		@ sp needed
 1149 003a 70BD     		pop	{r4, r5, r6, pc}
 1150              	.L60:
 1151              		.align	2
 1152              	.L59:
 1153 003c 00000000 		.word	.LANCHOR0
 1154              		.cfi_endproc
 1155              	.LFE10:
 1156              		.size	bmp280_get_oversamp_pressure, .-bmp280_get_oversamp_pressure
 1157              		.section	.text.bmp280_set_oversamp_pressure,"ax",%progbits
 1158              		.align	2
 1159              		.global	bmp280_set_oversamp_pressure
 1160              		.code	16
 1161              		.thumb_func
 1162              		.type	bmp280_set_oversamp_pressure, %function
 1163              	bmp280_set_oversamp_pressure:
 1164              	.LFB11:
 698:.\bmp280.c    **** /*!
 699:.\bmp280.c    ****  *	@brief This API is used to set
 700:.\bmp280.c    ****  *	the pressure oversampling setting in the register 0xF4
 701:.\bmp280.c    ****  *	bits from 2 to 4
 702:.\bmp280.c    ****  *
 703:.\bmp280.c    ****  *        value             | Pressure oversampling
 704:.\bmp280.c    ****  *  ------------------------|------------------------------
 705:.\bmp280.c    ****  *       0x00               |  BMP280_OVERSAMP_SKIPPED
 706:.\bmp280.c    ****  *       0x01               |  BMP280_OVERSAMP_1X
ARM GAS  C:\Users\Svilen\AppData\Local\Temp\ccFr0ira.s 			page 35


 707:.\bmp280.c    ****  *       0x02               |  BMP280_OVERSAMP_2X
 708:.\bmp280.c    ****  *       0x03               |  BMP280_OVERSAMP_4X
 709:.\bmp280.c    ****  *       0x04               |  BMP280_OVERSAMP_8X
 710:.\bmp280.c    ****  *       0x05,0x06 and 0x07 |  BMP280_OVERSAMP_16X
 711:.\bmp280.c    ****  *
 712:.\bmp280.c    ****  *
 713:.\bmp280.c    ****  *  @param  v_value_u8 : The value of pressure over sampling
 714:.\bmp280.c    ****  *
 715:.\bmp280.c    ****  *
 716:.\bmp280.c    ****  *
 717:.\bmp280.c    ****  *  @return results of bus communication function
 718:.\bmp280.c    ****  *	@retval 0 -> Success
 719:.\bmp280.c    ****  *	@retval -1 -> Error
 720:.\bmp280.c    ****  *
 721:.\bmp280.c    ****  *
 722:.\bmp280.c    ****  */
 723:.\bmp280.c    **** BMP280_RETURN_FUNCTION_TYPE bmp280_set_oversamp_pressure(u8 v_value_u8)
 724:.\bmp280.c    **** {
 1165              		.loc 1 724 0
 1166              		.cfi_startproc
 1167              	.LVL111:
 1168 0000 F0B5     		push	{r4, r5, r6, r7, lr}
 1169              		.cfi_def_cfa_offset 20
 1170              		.cfi_offset 4, -20
 1171              		.cfi_offset 5, -16
 1172              		.cfi_offset 6, -12
 1173              		.cfi_offset 7, -8
 1174              		.cfi_offset 14, -4
 1175 0002 83B0     		sub	sp, sp, #12
 1176              		.cfi_def_cfa_offset 32
 1177 0004 051C     		mov	r5, r0
 1178              	.LVL112:
 725:.\bmp280.c    **** 	/* variable used to return communication result*/
 726:.\bmp280.c    **** 	BMP280_RETURN_FUNCTION_TYPE com_rslt = ERROR;
 727:.\bmp280.c    **** 	u8 v_data_u8 = BMP280_INIT_VALUE;
 1179              		.loc 1 727 0
 1180 0006 0022     		mov	r2, #0
 1181 0008 6B46     		mov	r3, sp
 1182 000a DA71     		strb	r2, [r3, #7]
 728:.\bmp280.c    **** 	/* check the p_bmp280 structure pointer as NULL*/
 729:.\bmp280.c    **** 	if (p_bmp280 == BMP280_NULL) {
 1183              		.loc 1 729 0
 1184 000c 134B     		ldr	r3, .L64
 1185 000e 1B68     		ldr	r3, [r3]
 1186 0010 002B     		cmp	r3, #0
 1187 0012 1FD0     		beq	.L63
 730:.\bmp280.c    **** 		com_rslt = E_BMP280_NULL_PTR;
 731:.\bmp280.c    **** 	} else {
 732:.\bmp280.c    **** 		com_rslt = p_bmp280->BMP280_BUS_READ_FUNC(p_bmp280->dev_addr,
 1188              		.loc 1 732 0
 1189 0014 5C6A     		ldr	r4, [r3, #36]
 1190 0016 587F     		ldrb	r0, [r3, #29]
 1191              	.LVL113:
 1192 0018 F421     		mov	r1, #244
 1193 001a 6B46     		mov	r3, sp
 1194 001c DA1D     		add	r2, r3, #7
 1195 001e 0123     		mov	r3, #1
ARM GAS  C:\Users\Svilen\AppData\Local\Temp\ccFr0ira.s 			page 36


 1196 0020 A047     		blx	r4
 1197              	.LVL114:
 1198 0022 041E     		sub	r4, r0, #0
 1199              	.LVL115:
 733:.\bmp280.c    **** 				BMP280_CTRL_MEAS_REG_OVERSAMP_PRESSURE__REG,
 734:.\bmp280.c    **** 				&v_data_u8, BMP280_GEN_READ_WRITE_DATA_LENGTH);
 735:.\bmp280.c    **** 		if (com_rslt == SUCCESS) {
 1200              		.loc 1 735 0
 1201 0024 17D1     		bne	.L62
 736:.\bmp280.c    **** 			/* write pressure over sampling */
 737:.\bmp280.c    **** 			v_data_u8 = BMP280_SET_BITSLICE(v_data_u8,
 1202              		.loc 1 737 0
 1203 0026 A900     		lsl	r1, r5, #2
 1204 0028 6B46     		mov	r3, sp
 1205 002a DA1D     		add	r2, r3, #7
 1206 002c 1378     		ldrb	r3, [r2]
 1207 002e 1C30     		add	r0, r0, #28
 1208 0030 8343     		bic	r3, r0
 1209 0032 181C     		mov	r0, r3
 1210 0034 1C23     		mov	r3, #28
 1211 0036 0B40     		and	r3, r1
 1212 0038 0343     		orr	r3, r0
 1213 003a 1370     		strb	r3, [r2]
 738:.\bmp280.c    **** 					BMP280_CTRL_MEAS_REG_OVERSAMP_PRESSURE,
 739:.\bmp280.c    **** 					v_value_u8);
 740:.\bmp280.c    **** 			com_rslt += p_bmp280->BMP280_BUS_WRITE_FUNC(
 1214              		.loc 1 740 0
 1215 003c 074E     		ldr	r6, .L64
 1216 003e 3368     		ldr	r3, [r6]
 1217 0040 1F6A     		ldr	r7, [r3, #32]
 1218 0042 587F     		ldrb	r0, [r3, #29]
 1219 0044 F421     		mov	r1, #244
 1220 0046 0123     		mov	r3, #1
 1221 0048 B847     		blx	r7
 1222              	.LVL116:
 1223 004a 0019     		add	r0, r0, r4
 1224 004c C0B2     		uxtb	r0, r0
 1225              	.LVL117:
 741:.\bmp280.c    **** 				p_bmp280->dev_addr,
 742:.\bmp280.c    **** 				BMP280_CTRL_MEAS_REG_OVERSAMP_PRESSURE__REG,
 743:.\bmp280.c    **** 				&v_data_u8,
 744:.\bmp280.c    **** 				BMP280_GEN_READ_WRITE_DATA_LENGTH);
 745:.\bmp280.c    **** 
 746:.\bmp280.c    **** 			p_bmp280->oversamp_pressure = v_value_u8;
 1226              		.loc 1 746 0
 1227 004e 3368     		ldr	r3, [r6]
 1228 0050 DD77     		strb	r5, [r3, #31]
 1229 0052 00E0     		b	.L62
 1230              	.LVL118:
 1231              	.L63:
 730:.\bmp280.c    **** 	} else {
 1232              		.loc 1 730 0
 1233 0054 8120     		mov	r0, #129
 1234              	.LVL119:
 1235              	.L62:
 747:.\bmp280.c    **** 		}
 748:.\bmp280.c    **** 	}
ARM GAS  C:\Users\Svilen\AppData\Local\Temp\ccFr0ira.s 			page 37


 749:.\bmp280.c    **** 	return com_rslt;
 1236              		.loc 1 749 0
 1237 0056 40B2     		sxtb	r0, r0
 750:.\bmp280.c    **** }
 1238              		.loc 1 750 0
 1239 0058 03B0     		add	sp, sp, #12
 1240              		@ sp needed
 1241 005a F0BD     		pop	{r4, r5, r6, r7, pc}
 1242              	.L65:
 1243              		.align	2
 1244              	.L64:
 1245 005c 00000000 		.word	.LANCHOR0
 1246              		.cfi_endproc
 1247              	.LFE11:
 1248              		.size	bmp280_set_oversamp_pressure, .-bmp280_set_oversamp_pressure
 1249              		.section	.text.bmp280_get_power_mode,"ax",%progbits
 1250              		.align	2
 1251              		.global	bmp280_get_power_mode
 1252              		.code	16
 1253              		.thumb_func
 1254              		.type	bmp280_get_power_mode, %function
 1255              	bmp280_get_power_mode:
 1256              	.LFB12:
 751:.\bmp280.c    **** /*!
 752:.\bmp280.c    ****  *	@brief This API used to get the
 753:.\bmp280.c    ****  *	Operational Mode from the sensor in the register 0xF4 bit 0 and 1
 754:.\bmp280.c    ****  *
 755:.\bmp280.c    ****  *
 756:.\bmp280.c    ****  *
 757:.\bmp280.c    ****  *	@param v_power_mode_u8 : The value of power mode value
 758:.\bmp280.c    ****  *  value            |   Power mode
 759:.\bmp280.c    ****  * ------------------|------------------
 760:.\bmp280.c    ****  *	0x00             | BMP280_SLEEP_MODE
 761:.\bmp280.c    ****  *	0x01 and 0x02    | BMP280_FORCED_MODE
 762:.\bmp280.c    ****  *	0x03             | BMP280_NORMAL_MODE
 763:.\bmp280.c    ****  *
 764:.\bmp280.c    ****  *  @return results of bus communication function
 765:.\bmp280.c    ****  *	@retval 0 -> Success
 766:.\bmp280.c    ****  *	@retval -1 -> Error
 767:.\bmp280.c    ****  *
 768:.\bmp280.c    ****  *
 769:.\bmp280.c    ****  */
 770:.\bmp280.c    **** BMP280_RETURN_FUNCTION_TYPE bmp280_get_power_mode(u8 *v_power_mode_u8)
 771:.\bmp280.c    **** {
 1257              		.loc 1 771 0
 1258              		.cfi_startproc
 1259              	.LVL120:
 1260 0000 70B5     		push	{r4, r5, r6, lr}
 1261              		.cfi_def_cfa_offset 16
 1262              		.cfi_offset 4, -16
 1263              		.cfi_offset 5, -12
 1264              		.cfi_offset 6, -8
 1265              		.cfi_offset 14, -4
 1266 0002 82B0     		sub	sp, sp, #8
 1267              		.cfi_def_cfa_offset 24
 1268              	.LVL121:
 772:.\bmp280.c    **** 	/* variable used to return communication result*/
ARM GAS  C:\Users\Svilen\AppData\Local\Temp\ccFr0ira.s 			page 38


 773:.\bmp280.c    **** 	BMP280_RETURN_FUNCTION_TYPE com_rslt = ERROR;
 774:.\bmp280.c    **** 	u8 v_mode_u8 = BMP280_INIT_VALUE;
 1269              		.loc 1 774 0
 1270 0004 0022     		mov	r2, #0
 1271 0006 6B46     		mov	r3, sp
 1272 0008 DA71     		strb	r2, [r3, #7]
 775:.\bmp280.c    **** 	/* check the p_bmp280 structure pointer as NULL*/
 776:.\bmp280.c    **** 	if (p_bmp280 == BMP280_NULL) {
 1273              		.loc 1 776 0
 1274 000a 0B4B     		ldr	r3, .L69
 1275 000c 1B68     		ldr	r3, [r3]
 1276 000e 002B     		cmp	r3, #0
 1277 0010 0DD0     		beq	.L68
 1278 0012 051C     		mov	r5, r0
 777:.\bmp280.c    **** 		com_rslt = E_BMP280_NULL_PTR;
 778:.\bmp280.c    **** 	} else {
 779:.\bmp280.c    **** 		/* read the power mode*/
 780:.\bmp280.c    **** 		com_rslt = p_bmp280->BMP280_BUS_READ_FUNC(p_bmp280->dev_addr,
 1279              		.loc 1 780 0
 1280 0014 5E6A     		ldr	r6, [r3, #36]
 1281 0016 587F     		ldrb	r0, [r3, #29]
 1282              	.LVL122:
 1283 0018 6B46     		mov	r3, sp
 1284 001a DC1D     		add	r4, r3, #7
 1285 001c F421     		mov	r1, #244
 1286 001e 221C     		mov	r2, r4
 1287 0020 0123     		mov	r3, #1
 1288 0022 B047     		blx	r6
 1289              	.LVL123:
 781:.\bmp280.c    **** 				BMP280_CTRL_MEAS_REG_POWER_MODE__REG,
 782:.\bmp280.c    **** 				&v_mode_u8, BMP280_GEN_READ_WRITE_DATA_LENGTH);
 783:.\bmp280.c    **** 		*v_power_mode_u8 = BMP280_GET_BITSLICE(v_mode_u8,
 1290              		.loc 1 783 0
 1291 0024 2378     		ldrb	r3, [r4]
 1292 0026 0322     		mov	r2, #3
 1293 0028 1340     		and	r3, r2
 1294 002a 2B70     		strb	r3, [r5]
 1295 002c 00E0     		b	.L67
 1296              	.LVL124:
 1297              	.L68:
 777:.\bmp280.c    **** 		com_rslt = E_BMP280_NULL_PTR;
 1298              		.loc 1 777 0
 1299 002e 8120     		mov	r0, #129
 1300              	.LVL125:
 1301              	.L67:
 784:.\bmp280.c    **** 				BMP280_CTRL_MEAS_REG_POWER_MODE);
 785:.\bmp280.c    **** 	}
 786:.\bmp280.c    **** 	return com_rslt;
 1302              		.loc 1 786 0
 1303 0030 40B2     		sxtb	r0, r0
 787:.\bmp280.c    **** }
 1304              		.loc 1 787 0
 1305 0032 02B0     		add	sp, sp, #8
 1306              		@ sp needed
 1307 0034 70BD     		pop	{r4, r5, r6, pc}
 1308              	.L70:
 1309 0036 C046     		.align	2
ARM GAS  C:\Users\Svilen\AppData\Local\Temp\ccFr0ira.s 			page 39


 1310              	.L69:
 1311 0038 00000000 		.word	.LANCHOR0
 1312              		.cfi_endproc
 1313              	.LFE12:
 1314              		.size	bmp280_get_power_mode, .-bmp280_get_power_mode
 1315              		.section	.text.bmp280_set_power_mode,"ax",%progbits
 1316              		.align	2
 1317              		.global	bmp280_set_power_mode
 1318              		.code	16
 1319              		.thumb_func
 1320              		.type	bmp280_set_power_mode, %function
 1321              	bmp280_set_power_mode:
 1322              	.LFB13:
 788:.\bmp280.c    **** /*!
 789:.\bmp280.c    ****  *	@brief This API used to set the
 790:.\bmp280.c    ****  *	Operational Mode from the sensor in the register 0xF4 bit 0 and 1
 791:.\bmp280.c    ****  *
 792:.\bmp280.c    ****  *
 793:.\bmp280.c    ****  *
 794:.\bmp280.c    ****  *	@param v_power_mode_u8 : The value of power mode value
 795:.\bmp280.c    ****  *  value            |   Power mode
 796:.\bmp280.c    ****  * ------------------|------------------
 797:.\bmp280.c    ****  *	0x00             | BMP280_SLEEP_MODE
 798:.\bmp280.c    ****  *	0x01 and 0x02    | BMP280_FORCED_MODE
 799:.\bmp280.c    ****  *	0x03             | BMP280_NORMAL_MODE
 800:.\bmp280.c    ****  *
 801:.\bmp280.c    ****  *  @return results of bus communication function
 802:.\bmp280.c    ****  *	@retval 0 -> Success
 803:.\bmp280.c    ****  *	@retval -1 -> Error
 804:.\bmp280.c    ****  *
 805:.\bmp280.c    ****  *
 806:.\bmp280.c    ****  */
 807:.\bmp280.c    **** BMP280_RETURN_FUNCTION_TYPE bmp280_set_power_mode(u8 v_power_mode_u8)
 808:.\bmp280.c    **** {
 1323              		.loc 1 808 0
 1324              		.cfi_startproc
 1325              	.LVL126:
 1326 0000 10B5     		push	{r4, lr}
 1327              		.cfi_def_cfa_offset 8
 1328              		.cfi_offset 4, -8
 1329              		.cfi_offset 14, -4
 1330 0002 82B0     		sub	sp, sp, #8
 1331              		.cfi_def_cfa_offset 16
 1332              	.LVL127:
 809:.\bmp280.c    **** 	/* variable used to return communication result*/
 810:.\bmp280.c    **** 	BMP280_RETURN_FUNCTION_TYPE com_rslt = ERROR;
 811:.\bmp280.c    **** 	u8 v_mode_u8 = BMP280_INIT_VALUE;
 1333              		.loc 1 811 0
 1334 0004 0022     		mov	r2, #0
 1335 0006 6B46     		mov	r3, sp
 1336 0008 DA71     		strb	r2, [r3, #7]
 812:.\bmp280.c    **** 	/* check the p_bmp280 structure pointer as NULL*/
 813:.\bmp280.c    **** 	if (p_bmp280 == BMP280_NULL) {
 1337              		.loc 1 813 0
 1338 000a 0D4B     		ldr	r3, .L75
 1339 000c 1968     		ldr	r1, [r3]
 1340 000e 0029     		cmp	r1, #0
ARM GAS  C:\Users\Svilen\AppData\Local\Temp\ccFr0ira.s 			page 40


 1341 0010 10D0     		beq	.L73
 814:.\bmp280.c    **** 		com_rslt = E_BMP280_NULL_PTR;
 815:.\bmp280.c    **** 	} else {
 816:.\bmp280.c    **** 		if (v_power_mode_u8 <= BMP280_NORMAL_MODE) {
 1342              		.loc 1 816 0
 1343 0012 0328     		cmp	r0, #3
 1344 0014 10D8     		bhi	.L74
 817:.\bmp280.c    **** 			/* write the power mode*/
 818:.\bmp280.c    **** 			v_mode_u8 = (p_bmp280->oversamp_temperature
 1345              		.loc 1 818 0
 1346 0016 8C7F     		ldrb	r4, [r1, #30]
 819:.\bmp280.c    **** 					<< BMP280_SHIFT_BIT_POSITION_BY_05_BITS)
 820:.\bmp280.c    **** 					+ (p_bmp280->oversamp_pressure
 1347              		.loc 1 820 0
 1348 0018 CB7F     		ldrb	r3, [r1, #31]
 818:.\bmp280.c    **** 					<< BMP280_SHIFT_BIT_POSITION_BY_05_BITS)
 1349              		.loc 1 818 0
 1350 001a 6A46     		mov	r2, sp
 1351 001c 0732     		add	r2, r2, #7
 1352 001e 6401     		lsl	r4, r4, #5
 1353 0020 9B00     		lsl	r3, r3, #2
 1354 0022 E318     		add	r3, r4, r3
 1355 0024 C018     		add	r0, r0, r3
 1356              	.LVL128:
 1357 0026 1070     		strb	r0, [r2]
 821:.\bmp280.c    **** 					<< BMP280_SHIFT_BIT_POSITION_BY_02_BITS)
 822:.\bmp280.c    **** 					+ v_power_mode_u8;
 823:.\bmp280.c    **** 			com_rslt = p_bmp280->BMP280_BUS_WRITE_FUNC(
 1358              		.loc 1 823 0
 1359 0028 0C6A     		ldr	r4, [r1, #32]
 1360 002a 487F     		ldrb	r0, [r1, #29]
 1361 002c F421     		mov	r1, #244
 1362 002e 0123     		mov	r3, #1
 1363 0030 A047     		blx	r4
 1364              	.LVL129:
 1365 0032 02E0     		b	.L72
 1366              	.LVL130:
 1367              	.L73:
 814:.\bmp280.c    **** 	} else {
 1368              		.loc 1 814 0
 1369 0034 8120     		mov	r0, #129
 1370              	.LVL131:
 1371 0036 00E0     		b	.L72
 1372              	.LVL132:
 1373              	.L74:
 824:.\bmp280.c    **** 					p_bmp280->dev_addr,
 825:.\bmp280.c    **** 					BMP280_CTRL_MEAS_REG_POWER_MODE__REG,
 826:.\bmp280.c    **** 					&v_mode_u8,
 827:.\bmp280.c    **** 					BMP280_GEN_READ_WRITE_DATA_LENGTH);
 828:.\bmp280.c    **** 		} else {
 829:.\bmp280.c    **** 			com_rslt = E_BMP280_OUT_OF_RANGE;
 1374              		.loc 1 829 0
 1375 0038 FE20     		mov	r0, #254
 1376              	.LVL133:
 1377              	.L72:
 830:.\bmp280.c    **** 		}
 831:.\bmp280.c    **** 	}
ARM GAS  C:\Users\Svilen\AppData\Local\Temp\ccFr0ira.s 			page 41


 832:.\bmp280.c    **** 	return com_rslt;
 1378              		.loc 1 832 0
 1379 003a 40B2     		sxtb	r0, r0
 833:.\bmp280.c    **** }
 1380              		.loc 1 833 0
 1381 003c 02B0     		add	sp, sp, #8
 1382              		@ sp needed
 1383 003e 10BD     		pop	{r4, pc}
 1384              	.L76:
 1385              		.align	2
 1386              	.L75:
 1387 0040 00000000 		.word	.LANCHOR0
 1388              		.cfi_endproc
 1389              	.LFE13:
 1390              		.size	bmp280_set_power_mode, .-bmp280_set_power_mode
 1391              		.section	.text.bmp280_set_soft_rst,"ax",%progbits
 1392              		.align	2
 1393              		.global	bmp280_set_soft_rst
 1394              		.code	16
 1395              		.thumb_func
 1396              		.type	bmp280_set_soft_rst, %function
 1397              	bmp280_set_soft_rst:
 1398              	.LFB14:
 834:.\bmp280.c    **** /*!
 835:.\bmp280.c    ****  * @brief Used to reset the sensor
 836:.\bmp280.c    ****  * The value 0xB6 is written to the 0xE0 register
 837:.\bmp280.c    ****  * the device is reset using the
 838:.\bmp280.c    ****  * complete power-on-reset procedure.
 839:.\bmp280.c    ****  * Soft reset can be easily set using bmp280_set_softreset().
 840:.\bmp280.c    ****  *
 841:.\bmp280.c    ****  * @note Usage Hint : bmp280_set_softreset()
 842:.\bmp280.c    ****  *
 843:.\bmp280.c    ****  *
 844:.\bmp280.c    ****  *  @return results of bus communication function
 845:.\bmp280.c    ****  *	@retval 0 -> Success
 846:.\bmp280.c    ****  *	@retval -1 -> Error
 847:.\bmp280.c    ****  *
 848:.\bmp280.c    ****  *
 849:.\bmp280.c    ****  */
 850:.\bmp280.c    **** BMP280_RETURN_FUNCTION_TYPE bmp280_set_soft_rst(void)
 851:.\bmp280.c    **** {
 1399              		.loc 1 851 0
 1400              		.cfi_startproc
 1401 0000 10B5     		push	{r4, lr}
 1402              		.cfi_def_cfa_offset 8
 1403              		.cfi_offset 4, -8
 1404              		.cfi_offset 14, -4
 1405 0002 82B0     		sub	sp, sp, #8
 1406              		.cfi_def_cfa_offset 16
 1407              	.LVL134:
 852:.\bmp280.c    **** 	/* variable used to return communication result*/
 853:.\bmp280.c    **** 	BMP280_RETURN_FUNCTION_TYPE com_rslt = ERROR;
 854:.\bmp280.c    **** 	u8 v_data_u8 = BMP280_SOFT_RESET_CODE;
 1408              		.loc 1 854 0
 1409 0004 B622     		mov	r2, #182
 1410 0006 6B46     		mov	r3, sp
 1411 0008 DA71     		strb	r2, [r3, #7]
ARM GAS  C:\Users\Svilen\AppData\Local\Temp\ccFr0ira.s 			page 42


 855:.\bmp280.c    **** 	/* check the p_bmp280 structure pointer as NULL*/
 856:.\bmp280.c    **** 	if (p_bmp280 == BMP280_NULL) {
 1412              		.loc 1 856 0
 1413 000a 084B     		ldr	r3, .L80
 1414 000c 1B68     		ldr	r3, [r3]
 1415 000e 002B     		cmp	r3, #0
 1416 0010 07D0     		beq	.L79
 857:.\bmp280.c    **** 		com_rslt = E_BMP280_NULL_PTR;
 858:.\bmp280.c    **** 	} else {
 859:.\bmp280.c    **** 		/* write soft reset */
 860:.\bmp280.c    **** 		com_rslt = p_bmp280->BMP280_BUS_WRITE_FUNC(p_bmp280->dev_addr,
 1417              		.loc 1 860 0
 1418 0012 1C6A     		ldr	r4, [r3, #32]
 1419 0014 587F     		ldrb	r0, [r3, #29]
 1420 0016 E021     		mov	r1, #224
 1421 0018 6B46     		mov	r3, sp
 1422 001a DA1D     		add	r2, r3, #7
 1423 001c 0123     		mov	r3, #1
 1424 001e A047     		blx	r4
 1425              	.LVL135:
 1426 0020 00E0     		b	.L78
 1427              	.LVL136:
 1428              	.L79:
 857:.\bmp280.c    **** 		com_rslt = E_BMP280_NULL_PTR;
 1429              		.loc 1 857 0
 1430 0022 8120     		mov	r0, #129
 1431              	.LVL137:
 1432              	.L78:
 861:.\bmp280.c    **** 				BMP280_RST_REG, &v_data_u8,
 862:.\bmp280.c    **** 				BMP280_GEN_READ_WRITE_DATA_LENGTH);
 863:.\bmp280.c    **** 	}
 864:.\bmp280.c    **** 	return com_rslt;
 1433              		.loc 1 864 0
 1434 0024 40B2     		sxtb	r0, r0
 865:.\bmp280.c    **** }
 1435              		.loc 1 865 0
 1436 0026 02B0     		add	sp, sp, #8
 1437              		@ sp needed
 1438 0028 10BD     		pop	{r4, pc}
 1439              	.L81:
 1440 002a C046     		.align	2
 1441              	.L80:
 1442 002c 00000000 		.word	.LANCHOR0
 1443              		.cfi_endproc
 1444              	.LFE14:
 1445              		.size	bmp280_set_soft_rst, .-bmp280_set_soft_rst
 1446              		.section	.text.bmp280_get_spi3,"ax",%progbits
 1447              		.align	2
 1448              		.global	bmp280_get_spi3
 1449              		.code	16
 1450              		.thumb_func
 1451              		.type	bmp280_get_spi3, %function
 1452              	bmp280_get_spi3:
 1453              	.LFB15:
 866:.\bmp280.c    **** /*!
 867:.\bmp280.c    ****  *	@brief This API used to get the sensor
 868:.\bmp280.c    ****  *	SPI mode(communication type) in the register 0xF5 bit 0
ARM GAS  C:\Users\Svilen\AppData\Local\Temp\ccFr0ira.s 			page 43


 869:.\bmp280.c    ****  *
 870:.\bmp280.c    ****  *
 871:.\bmp280.c    ****  *
 872:.\bmp280.c    ****  *	@param v_enable_disable_u8 : The spi3 enable or disable state
 873:.\bmp280.c    ****  *    value    | Description
 874:.\bmp280.c    ****  *  -----------|---------------
 875:.\bmp280.c    ****  *     0       | Disable
 876:.\bmp280.c    ****  *     1       | Enable
 877:.\bmp280.c    ****  *
 878:.\bmp280.c    ****  *
 879:.\bmp280.c    ****  *
 880:.\bmp280.c    ****  *  @return results of bus communication function
 881:.\bmp280.c    ****  *	@retval 0 -> Success
 882:.\bmp280.c    ****  *	@retval -1 -> Error
 883:.\bmp280.c    ****  *
 884:.\bmp280.c    ****  *
 885:.\bmp280.c    ****  */
 886:.\bmp280.c    **** BMP280_RETURN_FUNCTION_TYPE bmp280_get_spi3(u8 *v_enable_disable_u8)
 887:.\bmp280.c    **** {
 1454              		.loc 1 887 0
 1455              		.cfi_startproc
 1456              	.LVL138:
 1457 0000 70B5     		push	{r4, r5, r6, lr}
 1458              		.cfi_def_cfa_offset 16
 1459              		.cfi_offset 4, -16
 1460              		.cfi_offset 5, -12
 1461              		.cfi_offset 6, -8
 1462              		.cfi_offset 14, -4
 1463 0002 82B0     		sub	sp, sp, #8
 1464              		.cfi_def_cfa_offset 24
 1465              	.LVL139:
 888:.\bmp280.c    **** 	/* variable used to return communication result*/
 889:.\bmp280.c    **** 	BMP280_RETURN_FUNCTION_TYPE com_rslt = ERROR;
 890:.\bmp280.c    **** 	u8 v_data_u8 = BMP280_INIT_VALUE;
 1466              		.loc 1 890 0
 1467 0004 0022     		mov	r2, #0
 1468 0006 6B46     		mov	r3, sp
 1469 0008 DA71     		strb	r2, [r3, #7]
 891:.\bmp280.c    **** 	/* check the p_bmp280 structure pointer as NULL*/
 892:.\bmp280.c    **** 	if (p_bmp280 == BMP280_NULL) {
 1470              		.loc 1 892 0
 1471 000a 0B4B     		ldr	r3, .L85
 1472 000c 1B68     		ldr	r3, [r3]
 1473 000e 002B     		cmp	r3, #0
 1474 0010 0DD0     		beq	.L84
 1475 0012 051C     		mov	r5, r0
 893:.\bmp280.c    **** 		com_rslt = E_BMP280_NULL_PTR;
 894:.\bmp280.c    **** 	} else {
 895:.\bmp280.c    **** 		com_rslt = p_bmp280->BMP280_BUS_READ_FUNC(p_bmp280->dev_addr,
 1476              		.loc 1 895 0
 1477 0014 5E6A     		ldr	r6, [r3, #36]
 1478 0016 587F     		ldrb	r0, [r3, #29]
 1479              	.LVL140:
 1480 0018 6B46     		mov	r3, sp
 1481 001a DC1D     		add	r4, r3, #7
 1482 001c F521     		mov	r1, #245
 1483 001e 221C     		mov	r2, r4
ARM GAS  C:\Users\Svilen\AppData\Local\Temp\ccFr0ira.s 			page 44


 1484 0020 0123     		mov	r3, #1
 1485 0022 B047     		blx	r6
 1486              	.LVL141:
 896:.\bmp280.c    **** 				BMP280_CONFIG_REG_SPI3_ENABLE__REG, &v_data_u8,
 897:.\bmp280.c    **** 				BMP280_GEN_READ_WRITE_DATA_LENGTH);
 898:.\bmp280.c    **** 		*v_enable_disable_u8 = BMP280_GET_BITSLICE(v_data_u8,
 1487              		.loc 1 898 0
 1488 0024 2378     		ldrb	r3, [r4]
 1489 0026 0122     		mov	r2, #1
 1490 0028 1340     		and	r3, r2
 1491 002a 2B70     		strb	r3, [r5]
 1492 002c 00E0     		b	.L83
 1493              	.LVL142:
 1494              	.L84:
 893:.\bmp280.c    **** 		com_rslt = E_BMP280_NULL_PTR;
 1495              		.loc 1 893 0
 1496 002e 8120     		mov	r0, #129
 1497              	.LVL143:
 1498              	.L83:
 899:.\bmp280.c    **** 				BMP280_CONFIG_REG_SPI3_ENABLE);
 900:.\bmp280.c    **** 	}
 901:.\bmp280.c    **** 	return com_rslt;
 1499              		.loc 1 901 0
 1500 0030 40B2     		sxtb	r0, r0
 902:.\bmp280.c    **** }
 1501              		.loc 1 902 0
 1502 0032 02B0     		add	sp, sp, #8
 1503              		@ sp needed
 1504 0034 70BD     		pop	{r4, r5, r6, pc}
 1505              	.L86:
 1506 0036 C046     		.align	2
 1507              	.L85:
 1508 0038 00000000 		.word	.LANCHOR0
 1509              		.cfi_endproc
 1510              	.LFE15:
 1511              		.size	bmp280_get_spi3, .-bmp280_get_spi3
 1512              		.section	.text.bmp280_set_spi3,"ax",%progbits
 1513              		.align	2
 1514              		.global	bmp280_set_spi3
 1515              		.code	16
 1516              		.thumb_func
 1517              		.type	bmp280_set_spi3, %function
 1518              	bmp280_set_spi3:
 1519              	.LFB16:
 903:.\bmp280.c    **** /*!
 904:.\bmp280.c    ****  *	@brief This API used to set the sensor
 905:.\bmp280.c    ****  *	SPI mode(communication type) in the register 0xF5 bit 0
 906:.\bmp280.c    ****  *
 907:.\bmp280.c    ****  *
 908:.\bmp280.c    ****  *
 909:.\bmp280.c    ****  *	@param v_enable_disable_u8 : The spi3 enable or disable state
 910:.\bmp280.c    ****  *    value    | Description
 911:.\bmp280.c    ****  *  -----------|---------------
 912:.\bmp280.c    ****  *     0       | Disable
 913:.\bmp280.c    ****  *     1       | Enable
 914:.\bmp280.c    ****  *
 915:.\bmp280.c    ****  *
ARM GAS  C:\Users\Svilen\AppData\Local\Temp\ccFr0ira.s 			page 45


 916:.\bmp280.c    ****  *
 917:.\bmp280.c    ****  *  @return results of bus communication function
 918:.\bmp280.c    ****  *	@retval 0 -> Success
 919:.\bmp280.c    ****  *	@retval -1 -> Error
 920:.\bmp280.c    ****  *
 921:.\bmp280.c    ****  *
 922:.\bmp280.c    ****  */
 923:.\bmp280.c    **** BMP280_RETURN_FUNCTION_TYPE bmp280_set_spi3(u8 v_enable_disable_u8)
 924:.\bmp280.c    **** {
 1520              		.loc 1 924 0
 1521              		.cfi_startproc
 1522              	.LVL144:
 1523 0000 30B5     		push	{r4, r5, lr}
 1524              		.cfi_def_cfa_offset 12
 1525              		.cfi_offset 4, -12
 1526              		.cfi_offset 5, -8
 1527              		.cfi_offset 14, -4
 1528 0002 83B0     		sub	sp, sp, #12
 1529              		.cfi_def_cfa_offset 24
 1530              	.LVL145:
 925:.\bmp280.c    **** 	/* variable used to return communication result*/
 926:.\bmp280.c    **** 	BMP280_RETURN_FUNCTION_TYPE com_rslt = ERROR;
 927:.\bmp280.c    **** 	u8 v_data_u8 = BMP280_INIT_VALUE;
 1531              		.loc 1 927 0
 1532 0004 0022     		mov	r2, #0
 1533 0006 6B46     		mov	r3, sp
 1534 0008 DA71     		strb	r2, [r3, #7]
 928:.\bmp280.c    **** 	/* check the p_bmp280 structure pointer as NULL*/
 929:.\bmp280.c    **** 	if (p_bmp280 == BMP280_NULL) {
 1535              		.loc 1 929 0
 1536 000a 134B     		ldr	r3, .L90
 1537 000c 1B68     		ldr	r3, [r3]
 1538 000e 002B     		cmp	r3, #0
 1539 0010 1ED0     		beq	.L89
 1540 0012 051C     		mov	r5, r0
 930:.\bmp280.c    **** 		com_rslt = E_BMP280_NULL_PTR;
 931:.\bmp280.c    **** 	} else {
 932:.\bmp280.c    **** 		com_rslt = p_bmp280->BMP280_BUS_READ_FUNC(p_bmp280->dev_addr,
 1541              		.loc 1 932 0
 1542 0014 5C6A     		ldr	r4, [r3, #36]
 1543 0016 587F     		ldrb	r0, [r3, #29]
 1544              	.LVL146:
 1545 0018 F521     		mov	r1, #245
 1546 001a 6B46     		mov	r3, sp
 1547 001c DA1D     		add	r2, r3, #7
 1548 001e 0123     		mov	r3, #1
 1549 0020 A047     		blx	r4
 1550              	.LVL147:
 1551 0022 041C     		mov	r4, r0
 1552 0024 031E     		sub	r3, r0, #0
 1553              	.LVL148:
 933:.\bmp280.c    **** 				BMP280_CONFIG_REG_SPI3_ENABLE__REG, &v_data_u8,
 934:.\bmp280.c    **** 				BMP280_GEN_READ_WRITE_DATA_LENGTH);
 935:.\bmp280.c    **** 		if (com_rslt == SUCCESS) {
 1554              		.loc 1 935 0
 1555 0026 14D1     		bne	.L88
 936:.\bmp280.c    **** 			v_data_u8 = BMP280_SET_BITSLICE(v_data_u8,
ARM GAS  C:\Users\Svilen\AppData\Local\Temp\ccFr0ira.s 			page 46


 1556              		.loc 1 936 0
 1557 0028 6B46     		mov	r3, sp
 1558 002a DA1D     		add	r2, r3, #7
 1559 002c 1078     		ldrb	r0, [r2]
 1560              	.LVL149:
 1561 002e 0123     		mov	r3, #1
 1562 0030 9843     		bic	r0, r3
 1563 0032 031C     		mov	r3, r0
 1564 0034 0120     		mov	r0, #1
 1565 0036 2840     		and	r0, r5
 1566 0038 1843     		orr	r0, r3
 1567 003a 1070     		strb	r0, [r2]
 937:.\bmp280.c    **** 					BMP280_CONFIG_REG_SPI3_ENABLE,
 938:.\bmp280.c    **** 					v_enable_disable_u8);
 939:.\bmp280.c    **** 			com_rslt += p_bmp280->BMP280_BUS_WRITE_FUNC(
 1568              		.loc 1 939 0
 1569 003c 064B     		ldr	r3, .L90
 1570 003e 1B68     		ldr	r3, [r3]
 1571 0040 1D6A     		ldr	r5, [r3, #32]
 1572 0042 587F     		ldrb	r0, [r3, #29]
 1573 0044 F521     		mov	r1, #245
 1574 0046 0123     		mov	r3, #1
 1575 0048 A847     		blx	r5
 1576              	.LVL150:
 1577 004a 0319     		add	r3, r0, r4
 1578 004c DBB2     		uxtb	r3, r3
 1579              	.LVL151:
 1580 004e 00E0     		b	.L88
 1581              	.LVL152:
 1582              	.L89:
 930:.\bmp280.c    **** 	} else {
 1583              		.loc 1 930 0
 1584 0050 8123     		mov	r3, #129
 1585              	.LVL153:
 1586              	.L88:
 940:.\bmp280.c    **** 					p_bmp280->dev_addr,
 941:.\bmp280.c    **** 					BMP280_CONFIG_REG_SPI3_ENABLE__REG,
 942:.\bmp280.c    **** 					&v_data_u8,
 943:.\bmp280.c    **** 					BMP280_GEN_READ_WRITE_DATA_LENGTH);
 944:.\bmp280.c    **** 		}
 945:.\bmp280.c    **** 	}
 946:.\bmp280.c    **** 	return com_rslt;
 1587              		.loc 1 946 0
 1588 0052 58B2     		sxtb	r0, r3
 947:.\bmp280.c    **** }
 1589              		.loc 1 947 0
 1590 0054 03B0     		add	sp, sp, #12
 1591              		@ sp needed
 1592 0056 30BD     		pop	{r4, r5, pc}
 1593              	.L91:
 1594              		.align	2
 1595              	.L90:
 1596 0058 00000000 		.word	.LANCHOR0
 1597              		.cfi_endproc
 1598              	.LFE16:
 1599              		.size	bmp280_set_spi3, .-bmp280_set_spi3
 1600              		.section	.text.bmp280_get_filter,"ax",%progbits
ARM GAS  C:\Users\Svilen\AppData\Local\Temp\ccFr0ira.s 			page 47


 1601              		.align	2
 1602              		.global	bmp280_get_filter
 1603              		.code	16
 1604              		.thumb_func
 1605              		.type	bmp280_get_filter, %function
 1606              	bmp280_get_filter:
 1607              	.LFB17:
 948:.\bmp280.c    **** /*!
 949:.\bmp280.c    ****  *	@brief This API is used to reads filter setting
 950:.\bmp280.c    ****  *	in the register 0xF5 bit 3 and 4
 951:.\bmp280.c    ****  *
 952:.\bmp280.c    ****  *
 953:.\bmp280.c    ****  *
 954:.\bmp280.c    ****  *	@param v_value_u8 : The value of filter coefficient
 955:.\bmp280.c    ****  *	value	    |	Filter coefficient
 956:.\bmp280.c    ****  * -------------|-------------------------
 957:.\bmp280.c    ****  *	0x00        | BMP280_FILTER_COEFF_OFF
 958:.\bmp280.c    ****  *	0x01        | BMP280_FILTER_COEFF_2
 959:.\bmp280.c    ****  *	0x02        | BMP280_FILTER_COEFF_4
 960:.\bmp280.c    ****  *	0x03        | BMP280_FILTER_COEFF_8
 961:.\bmp280.c    ****  *	0x04        | BMP280_FILTER_COEFF_16
 962:.\bmp280.c    ****  *
 963:.\bmp280.c    ****  *  @return results of bus communication function
 964:.\bmp280.c    ****  *	@retval 0 -> Success
 965:.\bmp280.c    ****  *	@retval -1 -> Error
 966:.\bmp280.c    ****  *
 967:.\bmp280.c    ****  *
 968:.\bmp280.c    ****  */
 969:.\bmp280.c    **** BMP280_RETURN_FUNCTION_TYPE bmp280_get_filter(u8 *v_value_u8)
 970:.\bmp280.c    **** {
 1608              		.loc 1 970 0
 1609              		.cfi_startproc
 1610              	.LVL154:
 1611 0000 70B5     		push	{r4, r5, r6, lr}
 1612              		.cfi_def_cfa_offset 16
 1613              		.cfi_offset 4, -16
 1614              		.cfi_offset 5, -12
 1615              		.cfi_offset 6, -8
 1616              		.cfi_offset 14, -4
 1617 0002 82B0     		sub	sp, sp, #8
 1618              		.cfi_def_cfa_offset 24
 1619              	.LVL155:
 971:.\bmp280.c    **** 	/* variable used to return communication result*/
 972:.\bmp280.c    **** 	BMP280_RETURN_FUNCTION_TYPE com_rslt = ERROR;
 973:.\bmp280.c    **** 	u8 v_data_u8 = BMP280_INIT_VALUE;
 1620              		.loc 1 973 0
 1621 0004 0022     		mov	r2, #0
 1622 0006 6B46     		mov	r3, sp
 1623 0008 DA71     		strb	r2, [r3, #7]
 974:.\bmp280.c    **** 	/* check the p_bmp280 structure pointer as NULL*/
 975:.\bmp280.c    **** 	if (p_bmp280 == BMP280_NULL) {
 1624              		.loc 1 975 0
 1625 000a 0B4B     		ldr	r3, .L95
 1626 000c 1B68     		ldr	r3, [r3]
 1627 000e 002B     		cmp	r3, #0
 1628 0010 0DD0     		beq	.L94
 1629 0012 051C     		mov	r5, r0
ARM GAS  C:\Users\Svilen\AppData\Local\Temp\ccFr0ira.s 			page 48


 976:.\bmp280.c    **** 		com_rslt = E_BMP280_NULL_PTR;
 977:.\bmp280.c    **** 	} else {
 978:.\bmp280.c    **** 		/* read filter*/
 979:.\bmp280.c    **** 		com_rslt = p_bmp280->BMP280_BUS_READ_FUNC(p_bmp280->dev_addr,
 1630              		.loc 1 979 0
 1631 0014 5E6A     		ldr	r6, [r3, #36]
 1632 0016 587F     		ldrb	r0, [r3, #29]
 1633              	.LVL156:
 1634 0018 6B46     		mov	r3, sp
 1635 001a DC1D     		add	r4, r3, #7
 1636 001c F521     		mov	r1, #245
 1637 001e 221C     		mov	r2, r4
 1638 0020 0123     		mov	r3, #1
 1639 0022 B047     		blx	r6
 1640              	.LVL157:
 980:.\bmp280.c    **** 				BMP280_CONFIG_REG_FILTER__REG, &v_data_u8,
 981:.\bmp280.c    **** 				BMP280_GEN_READ_WRITE_DATA_LENGTH);
 982:.\bmp280.c    **** 		*v_value_u8 = BMP280_GET_BITSLICE(v_data_u8,
 1641              		.loc 1 982 0
 1642 0024 2378     		ldrb	r3, [r4]
 1643 0026 DB06     		lsl	r3, r3, #27
 1644 0028 5B0F     		lsr	r3, r3, #29
 1645 002a 2B70     		strb	r3, [r5]
 1646 002c 00E0     		b	.L93
 1647              	.LVL158:
 1648              	.L94:
 976:.\bmp280.c    **** 		com_rslt = E_BMP280_NULL_PTR;
 1649              		.loc 1 976 0
 1650 002e 8120     		mov	r0, #129
 1651              	.LVL159:
 1652              	.L93:
 983:.\bmp280.c    **** 				BMP280_CONFIG_REG_FILTER);
 984:.\bmp280.c    **** 	}
 985:.\bmp280.c    **** 	return com_rslt;
 1653              		.loc 1 985 0
 1654 0030 40B2     		sxtb	r0, r0
 986:.\bmp280.c    **** }
 1655              		.loc 1 986 0
 1656 0032 02B0     		add	sp, sp, #8
 1657              		@ sp needed
 1658 0034 70BD     		pop	{r4, r5, r6, pc}
 1659              	.L96:
 1660 0036 C046     		.align	2
 1661              	.L95:
 1662 0038 00000000 		.word	.LANCHOR0
 1663              		.cfi_endproc
 1664              	.LFE17:
 1665              		.size	bmp280_get_filter, .-bmp280_get_filter
 1666              		.section	.text.bmp280_set_filter,"ax",%progbits
 1667              		.align	2
 1668              		.global	bmp280_set_filter
 1669              		.code	16
 1670              		.thumb_func
 1671              		.type	bmp280_set_filter, %function
 1672              	bmp280_set_filter:
 1673              	.LFB18:
 987:.\bmp280.c    **** /*!
ARM GAS  C:\Users\Svilen\AppData\Local\Temp\ccFr0ira.s 			page 49


 988:.\bmp280.c    ****  *	@brief This API is used to write filter setting
 989:.\bmp280.c    ****  *	in the register 0xF5 bit 3 and 4
 990:.\bmp280.c    ****  *
 991:.\bmp280.c    ****  *
 992:.\bmp280.c    ****  *
 993:.\bmp280.c    ****  *	@param v_value_u8 : The value of filter coefficient
 994:.\bmp280.c    ****  *	value	    |	Filter coefficient
 995:.\bmp280.c    ****  * -------------|-------------------------
 996:.\bmp280.c    ****  *	0x00        | BMP280_FILTER_COEFF_OFF
 997:.\bmp280.c    ****  *	0x01        | BMP280_FILTER_COEFF_2
 998:.\bmp280.c    ****  *	0x02        | BMP280_FILTER_COEFF_4
 999:.\bmp280.c    ****  *	0x03        | BMP280_FILTER_COEFF_8
1000:.\bmp280.c    ****  *	0x04        | BMP280_FILTER_COEFF_16
1001:.\bmp280.c    ****  *
1002:.\bmp280.c    ****  *  @return results of bus communication function
1003:.\bmp280.c    ****  *	@retval 0 -> Success
1004:.\bmp280.c    ****  *	@retval -1 -> Error
1005:.\bmp280.c    ****  *
1006:.\bmp280.c    ****  *
1007:.\bmp280.c    ****  */
1008:.\bmp280.c    **** BMP280_RETURN_FUNCTION_TYPE bmp280_set_filter(u8 v_value_u8)
1009:.\bmp280.c    **** {
 1674              		.loc 1 1009 0
 1675              		.cfi_startproc
 1676              	.LVL160:
 1677 0000 30B5     		push	{r4, r5, lr}
 1678              		.cfi_def_cfa_offset 12
 1679              		.cfi_offset 4, -12
 1680              		.cfi_offset 5, -8
 1681              		.cfi_offset 14, -4
 1682 0002 83B0     		sub	sp, sp, #12
 1683              		.cfi_def_cfa_offset 24
 1684              	.LVL161:
1010:.\bmp280.c    **** 	BMP280_RETURN_FUNCTION_TYPE com_rslt = SUCCESS;
1011:.\bmp280.c    **** 	u8 v_data_u8 = BMP280_INIT_VALUE;
 1685              		.loc 1 1011 0
 1686 0004 0021     		mov	r1, #0
 1687 0006 6B46     		mov	r3, sp
 1688 0008 D971     		strb	r1, [r3, #7]
1012:.\bmp280.c    **** 	/* check the p_bmp280 structure pointer as NULL*/
1013:.\bmp280.c    **** 	if (p_bmp280 == BMP280_NULL) {
 1689              		.loc 1 1013 0
 1690 000a 144A     		ldr	r2, .L100
 1691 000c 1368     		ldr	r3, [r2]
 1692 000e 002B     		cmp	r3, #0
 1693 0010 1FD0     		beq	.L99
 1694 0012 051C     		mov	r5, r0
1014:.\bmp280.c    **** 		com_rslt = E_BMP280_NULL_PTR;
1015:.\bmp280.c    **** 	} else {
1016:.\bmp280.c    **** 		/* write filter*/
1017:.\bmp280.c    **** 		com_rslt = p_bmp280->BMP280_BUS_READ_FUNC(p_bmp280->dev_addr,
 1695              		.loc 1 1017 0
 1696 0014 5C6A     		ldr	r4, [r3, #36]
 1697 0016 587F     		ldrb	r0, [r3, #29]
 1698              	.LVL162:
 1699 0018 F531     		add	r1, r1, #245
 1700 001a 6B46     		mov	r3, sp
ARM GAS  C:\Users\Svilen\AppData\Local\Temp\ccFr0ira.s 			page 50


 1701 001c DA1D     		add	r2, r3, #7
 1702 001e 0123     		mov	r3, #1
 1703 0020 A047     		blx	r4
 1704              	.LVL163:
 1705 0022 041C     		mov	r4, r0
 1706 0024 031E     		sub	r3, r0, #0
 1707              	.LVL164:
1018:.\bmp280.c    **** 				BMP280_CONFIG_REG_FILTER__REG, &v_data_u8,
1019:.\bmp280.c    **** 				BMP280_GEN_READ_WRITE_DATA_LENGTH);
1020:.\bmp280.c    **** 		if (com_rslt == SUCCESS) {
 1708              		.loc 1 1020 0
 1709 0026 15D1     		bne	.L98
1021:.\bmp280.c    **** 			v_data_u8 = BMP280_SET_BITSLICE(v_data_u8,
 1710              		.loc 1 1021 0
 1711 0028 AB00     		lsl	r3, r5, #2
 1712 002a 6A46     		mov	r2, sp
 1713 002c 0732     		add	r2, r2, #7
 1714 002e 1078     		ldrb	r0, [r2]
 1715              	.LVL165:
 1716 0030 1C21     		mov	r1, #28
 1717 0032 8843     		bic	r0, r1
 1718 0034 011C     		mov	r1, r0
 1719 0036 1C20     		mov	r0, #28
 1720 0038 1840     		and	r0, r3
 1721 003a 0843     		orr	r0, r1
 1722 003c 1070     		strb	r0, [r2]
1022:.\bmp280.c    **** 					BMP280_CONFIG_REG_FILTER, v_value_u8);
1023:.\bmp280.c    **** 			com_rslt += p_bmp280->BMP280_BUS_WRITE_FUNC(
 1723              		.loc 1 1023 0
 1724 003e 074B     		ldr	r3, .L100
 1725 0040 1B68     		ldr	r3, [r3]
 1726 0042 1D6A     		ldr	r5, [r3, #32]
 1727 0044 587F     		ldrb	r0, [r3, #29]
 1728 0046 F521     		mov	r1, #245
 1729 0048 0123     		mov	r3, #1
 1730 004a A847     		blx	r5
 1731              	.LVL166:
 1732 004c 0319     		add	r3, r0, r4
 1733 004e DBB2     		uxtb	r3, r3
 1734              	.LVL167:
 1735 0050 00E0     		b	.L98
 1736              	.LVL168:
 1737              	.L99:
1014:.\bmp280.c    **** 	} else {
 1738              		.loc 1 1014 0
 1739 0052 8123     		mov	r3, #129
 1740              	.LVL169:
 1741              	.L98:
1024:.\bmp280.c    **** 					p_bmp280->dev_addr,
1025:.\bmp280.c    **** 					BMP280_CONFIG_REG_FILTER__REG,
1026:.\bmp280.c    **** 					&v_data_u8,
1027:.\bmp280.c    **** 					BMP280_GEN_READ_WRITE_DATA_LENGTH);
1028:.\bmp280.c    **** 		}
1029:.\bmp280.c    **** 	}
1030:.\bmp280.c    **** 	return com_rslt;
 1742              		.loc 1 1030 0
 1743 0054 58B2     		sxtb	r0, r3
ARM GAS  C:\Users\Svilen\AppData\Local\Temp\ccFr0ira.s 			page 51


1031:.\bmp280.c    **** }
 1744              		.loc 1 1031 0
 1745 0056 03B0     		add	sp, sp, #12
 1746              		@ sp needed
 1747 0058 30BD     		pop	{r4, r5, pc}
 1748              	.L101:
 1749 005a C046     		.align	2
 1750              	.L100:
 1751 005c 00000000 		.word	.LANCHOR0
 1752              		.cfi_endproc
 1753              	.LFE18:
 1754              		.size	bmp280_set_filter, .-bmp280_set_filter
 1755              		.section	.text.bmp280_get_standby_durn,"ax",%progbits
 1756              		.align	2
 1757              		.global	bmp280_get_standby_durn
 1758              		.code	16
 1759              		.thumb_func
 1760              		.type	bmp280_get_standby_durn, %function
 1761              	bmp280_get_standby_durn:
 1762              	.LFB19:
1032:.\bmp280.c    **** /*!
1033:.\bmp280.c    ****  *	@brief This API used to Read the
1034:.\bmp280.c    ****  *	standby duration time from the sensor in the register 0xF5 bit 5 to 7
1035:.\bmp280.c    ****  *
1036:.\bmp280.c    ****  *	@param v_standby_durn_u8 : The standby duration time value.
1037:.\bmp280.c    ****  *  value     |  standby duration
1038:.\bmp280.c    ****  * -----------|--------------------
1039:.\bmp280.c    ****  *    0x00    | BMP280_STANDBYTIME_1_MS
1040:.\bmp280.c    ****  *    0x01    | BMP280_STANDBYTIME_63_MS
1041:.\bmp280.c    ****  *    0x02    | BMP280_STANDBYTIME_125_MS
1042:.\bmp280.c    ****  *    0x03    | BMP280_STANDBYTIME_250_MS
1043:.\bmp280.c    ****  *    0x04    | BMP280_STANDBYTIME_500_MS
1044:.\bmp280.c    ****  *    0x05    | BMP280_STANDBYTIME_1000_MS
1045:.\bmp280.c    ****  *    0x06    | BMP280_STANDBYTIME_2000_MS
1046:.\bmp280.c    ****  *    0x07    | BMP280_STANDBYTIME_4000_MS
1047:.\bmp280.c    ****  *
1048:.\bmp280.c    ****  *
1049:.\bmp280.c    ****  *
1050:.\bmp280.c    ****  *  @return results of bus communication function
1051:.\bmp280.c    ****  *	@retval 0 -> Success
1052:.\bmp280.c    ****  *	@retval -1 -> Error
1053:.\bmp280.c    ****  *
1054:.\bmp280.c    ****  *
1055:.\bmp280.c    ****  */
1056:.\bmp280.c    **** BMP280_RETURN_FUNCTION_TYPE bmp280_get_standby_durn(u8 *v_standby_durn_u8)
1057:.\bmp280.c    **** {
 1763              		.loc 1 1057 0
 1764              		.cfi_startproc
 1765              	.LVL170:
 1766 0000 70B5     		push	{r4, r5, r6, lr}
 1767              		.cfi_def_cfa_offset 16
 1768              		.cfi_offset 4, -16
 1769              		.cfi_offset 5, -12
 1770              		.cfi_offset 6, -8
 1771              		.cfi_offset 14, -4
 1772 0002 82B0     		sub	sp, sp, #8
 1773              		.cfi_def_cfa_offset 24
ARM GAS  C:\Users\Svilen\AppData\Local\Temp\ccFr0ira.s 			page 52


 1774              	.LVL171:
1058:.\bmp280.c    **** 	/* variable used to return communication result*/
1059:.\bmp280.c    **** 	BMP280_RETURN_FUNCTION_TYPE com_rslt = ERROR;
1060:.\bmp280.c    **** 	u8 v_data_u8 = BMP280_INIT_VALUE;
 1775              		.loc 1 1060 0
 1776 0004 0022     		mov	r2, #0
 1777 0006 6B46     		mov	r3, sp
 1778 0008 DA71     		strb	r2, [r3, #7]
1061:.\bmp280.c    **** 	/* check the p_bmp280 structure pointer as NULL*/
1062:.\bmp280.c    **** 	if (p_bmp280 == BMP280_NULL) {
 1779              		.loc 1 1062 0
 1780 000a 0A4B     		ldr	r3, .L105
 1781 000c 1B68     		ldr	r3, [r3]
 1782 000e 002B     		cmp	r3, #0
 1783 0010 0CD0     		beq	.L104
 1784 0012 051C     		mov	r5, r0
1063:.\bmp280.c    **** 		com_rslt = E_BMP280_NULL_PTR;
1064:.\bmp280.c    **** 	} else {
1065:.\bmp280.c    **** 		/* read the standby duration*/
1066:.\bmp280.c    **** 		com_rslt = p_bmp280->BMP280_BUS_READ_FUNC(p_bmp280->dev_addr,
 1785              		.loc 1 1066 0
 1786 0014 5E6A     		ldr	r6, [r3, #36]
 1787 0016 587F     		ldrb	r0, [r3, #29]
 1788              	.LVL172:
 1789 0018 6B46     		mov	r3, sp
 1790 001a DC1D     		add	r4, r3, #7
 1791 001c F521     		mov	r1, #245
 1792 001e 221C     		mov	r2, r4
 1793 0020 0123     		mov	r3, #1
 1794 0022 B047     		blx	r6
 1795              	.LVL173:
1067:.\bmp280.c    **** 				BMP280_CONFIG_REG_STANDBY_DURN__REG, &v_data_u8,
1068:.\bmp280.c    **** 				BMP280_GEN_READ_WRITE_DATA_LENGTH);
1069:.\bmp280.c    **** 		*v_standby_durn_u8 = BMP280_GET_BITSLICE(v_data_u8,
 1796              		.loc 1 1069 0
 1797 0024 2378     		ldrb	r3, [r4]
 1798 0026 5B09     		lsr	r3, r3, #5
 1799 0028 2B70     		strb	r3, [r5]
 1800 002a 00E0     		b	.L103
 1801              	.LVL174:
 1802              	.L104:
1063:.\bmp280.c    **** 		com_rslt = E_BMP280_NULL_PTR;
 1803              		.loc 1 1063 0
 1804 002c 8120     		mov	r0, #129
 1805              	.LVL175:
 1806              	.L103:
1070:.\bmp280.c    **** 				BMP280_CONFIG_REG_STANDBY_DURN);
1071:.\bmp280.c    **** 	}
1072:.\bmp280.c    **** 	return com_rslt;
 1807              		.loc 1 1072 0
 1808 002e 40B2     		sxtb	r0, r0
1073:.\bmp280.c    **** }
 1809              		.loc 1 1073 0
 1810 0030 02B0     		add	sp, sp, #8
 1811              		@ sp needed
 1812 0032 70BD     		pop	{r4, r5, r6, pc}
 1813              	.L106:
ARM GAS  C:\Users\Svilen\AppData\Local\Temp\ccFr0ira.s 			page 53


 1814              		.align	2
 1815              	.L105:
 1816 0034 00000000 		.word	.LANCHOR0
 1817              		.cfi_endproc
 1818              	.LFE19:
 1819              		.size	bmp280_get_standby_durn, .-bmp280_get_standby_durn
 1820              		.section	.text.bmp280_set_standby_durn,"ax",%progbits
 1821              		.align	2
 1822              		.global	bmp280_set_standby_durn
 1823              		.code	16
 1824              		.thumb_func
 1825              		.type	bmp280_set_standby_durn, %function
 1826              	bmp280_set_standby_durn:
 1827              	.LFB20:
1074:.\bmp280.c    **** /*!
1075:.\bmp280.c    ****  *	@brief This API used to Read the
1076:.\bmp280.c    ****  *	standby duration time from the sensor
1077:.\bmp280.c    ****  *	in the register 0xF5 bit 5 to 7
1078:.\bmp280.c    ****  *	@note Normal mode comprises an
1079:.\bmp280.c    ****  *	automated perpetual cycling between an (active)
1080:.\bmp280.c    ****  *	Measurement period and an (inactive) standby period.
1081:.\bmp280.c    ****  *	@note The standby time is determined
1082:.\bmp280.c    ****  *	by the contents of the register t_sb.
1083:.\bmp280.c    ****  *	Standby time can be set using BMP280_STANDBYTIME_125_MS.
1084:.\bmp280.c    ****  *
1085:.\bmp280.c    ****  *	@note bmp280_set_standby_durn(BMP280_STANDBYTIME_125_MS)
1086:.\bmp280.c    ****  *
1087:.\bmp280.c    ****  *
1088:.\bmp280.c    ****  *
1089:.\bmp280.c    ****  *	@param v_standby_durn_u8 : The standby duration time value.
1090:.\bmp280.c    ****  *  value     |  standby duration
1091:.\bmp280.c    ****  * -----------|--------------------
1092:.\bmp280.c    ****  *    0x00    | BMP280_STANDBYTIME_1_MS
1093:.\bmp280.c    ****  *    0x01    | BMP280_STANDBYTIME_63_MS
1094:.\bmp280.c    ****  *    0x02    | BMP280_STANDBYTIME_125_MS
1095:.\bmp280.c    ****  *    0x03    | BMP280_STANDBYTIME_250_MS
1096:.\bmp280.c    ****  *    0x04    | BMP280_STANDBYTIME_500_MS
1097:.\bmp280.c    ****  *    0x05    | BMP280_STANDBYTIME_1000_MS
1098:.\bmp280.c    ****  *    0x06    | BMP280_STANDBYTIME_2000_MS
1099:.\bmp280.c    ****  *    0x07    | BMP280_STANDBYTIME_4000_MS
1100:.\bmp280.c    ****  *
1101:.\bmp280.c    ****  *
1102:.\bmp280.c    ****  *
1103:.\bmp280.c    ****  *  @return results of bus communication function
1104:.\bmp280.c    ****  *	@retval 0 -> Success
1105:.\bmp280.c    ****  *	@retval -1 -> Error
1106:.\bmp280.c    ****  *
1107:.\bmp280.c    ****  *
1108:.\bmp280.c    ****  */
1109:.\bmp280.c    **** BMP280_RETURN_FUNCTION_TYPE bmp280_set_standby_durn(u8 v_standby_durn_u8)
1110:.\bmp280.c    **** {
 1828              		.loc 1 1110 0
 1829              		.cfi_startproc
 1830              	.LVL176:
 1831 0000 30B5     		push	{r4, r5, lr}
 1832              		.cfi_def_cfa_offset 12
 1833              		.cfi_offset 4, -12
ARM GAS  C:\Users\Svilen\AppData\Local\Temp\ccFr0ira.s 			page 54


 1834              		.cfi_offset 5, -8
 1835              		.cfi_offset 14, -4
 1836 0002 83B0     		sub	sp, sp, #12
 1837              		.cfi_def_cfa_offset 24
 1838              	.LVL177:
1111:.\bmp280.c    **** 	/* variable used to return communication result*/
1112:.\bmp280.c    **** 	BMP280_RETURN_FUNCTION_TYPE com_rslt = ERROR;
1113:.\bmp280.c    **** 	u8 v_data_u8 = BMP280_INIT_VALUE;
 1839              		.loc 1 1113 0
 1840 0004 0021     		mov	r1, #0
 1841 0006 6B46     		mov	r3, sp
 1842 0008 D971     		strb	r1, [r3, #7]
1114:.\bmp280.c    **** 	/* check the p_bmp280 structure pointer as NULL*/
1115:.\bmp280.c    **** 	if (p_bmp280 == BMP280_NULL) {
 1843              		.loc 1 1115 0
 1844 000a 124A     		ldr	r2, .L110
 1845 000c 1368     		ldr	r3, [r2]
 1846 000e 002B     		cmp	r3, #0
 1847 0010 1CD0     		beq	.L109
 1848 0012 051C     		mov	r5, r0
1116:.\bmp280.c    **** 		com_rslt = E_BMP280_NULL_PTR;
1117:.\bmp280.c    **** 	} else {
1118:.\bmp280.c    **** 		/* write the standby duration*/
1119:.\bmp280.c    **** 		com_rslt = p_bmp280->BMP280_BUS_READ_FUNC(p_bmp280->dev_addr,
 1849              		.loc 1 1119 0
 1850 0014 5C6A     		ldr	r4, [r3, #36]
 1851 0016 587F     		ldrb	r0, [r3, #29]
 1852              	.LVL178:
 1853 0018 F531     		add	r1, r1, #245
 1854 001a 6B46     		mov	r3, sp
 1855 001c DA1D     		add	r2, r3, #7
 1856 001e 0123     		mov	r3, #1
 1857 0020 A047     		blx	r4
 1858              	.LVL179:
 1859 0022 041C     		mov	r4, r0
 1860 0024 031E     		sub	r3, r0, #0
 1861              	.LVL180:
1120:.\bmp280.c    **** 				BMP280_CONFIG_REG_STANDBY_DURN__REG, &v_data_u8,
1121:.\bmp280.c    **** 				BMP280_GEN_READ_WRITE_DATA_LENGTH);
1122:.\bmp280.c    **** 		if (com_rslt == SUCCESS) {
 1862              		.loc 1 1122 0
 1863 0026 12D1     		bne	.L108
1123:.\bmp280.c    **** 			v_data_u8 = BMP280_SET_BITSLICE(v_data_u8,
 1864              		.loc 1 1123 0
 1865 0028 6B01     		lsl	r3, r5, #5
 1866 002a 6A46     		mov	r2, sp
 1867 002c 0732     		add	r2, r2, #7
 1868 002e 1178     		ldrb	r1, [r2]
 1869 0030 1F20     		mov	r0, #31
 1870              	.LVL181:
 1871 0032 0840     		and	r0, r1
 1872 0034 1843     		orr	r0, r3
 1873 0036 1070     		strb	r0, [r2]
1124:.\bmp280.c    **** 					BMP280_CONFIG_REG_STANDBY_DURN,
1125:.\bmp280.c    **** 					v_standby_durn_u8);
1126:.\bmp280.c    **** 			com_rslt += p_bmp280->BMP280_BUS_WRITE_FUNC(
 1874              		.loc 1 1126 0
ARM GAS  C:\Users\Svilen\AppData\Local\Temp\ccFr0ira.s 			page 55


 1875 0038 064B     		ldr	r3, .L110
 1876 003a 1B68     		ldr	r3, [r3]
 1877 003c 1D6A     		ldr	r5, [r3, #32]
 1878 003e 587F     		ldrb	r0, [r3, #29]
 1879 0040 F521     		mov	r1, #245
 1880 0042 0123     		mov	r3, #1
 1881 0044 A847     		blx	r5
 1882              	.LVL182:
 1883 0046 0319     		add	r3, r0, r4
 1884 0048 DBB2     		uxtb	r3, r3
 1885              	.LVL183:
 1886 004a 00E0     		b	.L108
 1887              	.LVL184:
 1888              	.L109:
1116:.\bmp280.c    **** 	} else {
 1889              		.loc 1 1116 0
 1890 004c 8123     		mov	r3, #129
 1891              	.LVL185:
 1892              	.L108:
1127:.\bmp280.c    **** 					p_bmp280->dev_addr,
1128:.\bmp280.c    **** 					BMP280_CONFIG_REG_STANDBY_DURN__REG,
1129:.\bmp280.c    **** 					&v_data_u8,
1130:.\bmp280.c    **** 					BMP280_GEN_READ_WRITE_DATA_LENGTH);
1131:.\bmp280.c    **** 		}
1132:.\bmp280.c    **** 	}
1133:.\bmp280.c    **** 	return com_rslt;
 1893              		.loc 1 1133 0
 1894 004e 58B2     		sxtb	r0, r3
1134:.\bmp280.c    **** }
 1895              		.loc 1 1134 0
 1896 0050 03B0     		add	sp, sp, #12
 1897              		@ sp needed
 1898 0052 30BD     		pop	{r4, r5, pc}
 1899              	.L111:
 1900              		.align	2
 1901              	.L110:
 1902 0054 00000000 		.word	.LANCHOR0
 1903              		.cfi_endproc
 1904              	.LFE20:
 1905              		.size	bmp280_set_standby_durn, .-bmp280_set_standby_durn
 1906              		.section	.text.bmp280_set_work_mode,"ax",%progbits
 1907              		.align	2
 1908              		.global	bmp280_set_work_mode
 1909              		.code	16
 1910              		.thumb_func
 1911              		.type	bmp280_set_work_mode, %function
 1912              	bmp280_set_work_mode:
 1913              	.LFB21:
1135:.\bmp280.c    **** /*!
1136:.\bmp280.c    ****  *	@brief This API is used to write
1137:.\bmp280.c    ****  *	 the working mode of the sensor
1138:.\bmp280.c    ****  *
1139:.\bmp280.c    ****  *
1140:.\bmp280.c    ****  *  @param v_work_mode_u8 : The value of work mode
1141:.\bmp280.c    ****  *   value      |  mode
1142:.\bmp280.c    ****  * -------------|-------------
1143:.\bmp280.c    ****  *    0         | BMP280_ULTRA_LOW_POWER_MODE
ARM GAS  C:\Users\Svilen\AppData\Local\Temp\ccFr0ira.s 			page 56


1144:.\bmp280.c    ****  *    1         | BMP280_LOW_POWER_MODE
1145:.\bmp280.c    ****  *    2         | BMP280_STANDARD_RESOLUTION_MODE
1146:.\bmp280.c    ****  *    3         | BMP280_HIGH_RESOLUTION_MODE
1147:.\bmp280.c    ****  *    4         | BMP280_ULTRA_HIGH_RESOLUTION_MODE
1148:.\bmp280.c    ****  *
1149:.\bmp280.c    ****  *  @return results of bus communication function
1150:.\bmp280.c    ****  *	@retval 0 -> Success
1151:.\bmp280.c    ****  *	@retval -1 -> Error
1152:.\bmp280.c    ****  *
1153:.\bmp280.c    ****  *
1154:.\bmp280.c    ****  */
1155:.\bmp280.c    **** BMP280_RETURN_FUNCTION_TYPE bmp280_set_work_mode(u8 v_work_mode_u8)
1156:.\bmp280.c    **** {
 1914              		.loc 1 1156 0
 1915              		.cfi_startproc
 1916              	.LVL186:
 1917 0000 30B5     		push	{r4, r5, lr}
 1918              		.cfi_def_cfa_offset 12
 1919              		.cfi_offset 4, -12
 1920              		.cfi_offset 5, -8
 1921              		.cfi_offset 14, -4
 1922 0002 83B0     		sub	sp, sp, #12
 1923              		.cfi_def_cfa_offset 24
 1924              	.LVL187:
1157:.\bmp280.c    **** 	/* variable used to return communication result*/
1158:.\bmp280.c    **** 	BMP280_RETURN_FUNCTION_TYPE com_rslt = ERROR;
1159:.\bmp280.c    **** 	u8 v_data_u8 = BMP280_INIT_VALUE;
 1925              		.loc 1 1159 0
 1926 0004 0022     		mov	r2, #0
 1927 0006 6B46     		mov	r3, sp
 1928 0008 DA71     		strb	r2, [r3, #7]
1160:.\bmp280.c    **** 	/* check the p_bmp280 structure pointer as NULL*/
1161:.\bmp280.c    **** 	if (p_bmp280 == BMP280_NULL) {
 1929              		.loc 1 1161 0
 1930 000a 2C4B     		ldr	r3, .L123
 1931 000c 1B68     		ldr	r3, [r3]
 1932 000e 002B     		cmp	r3, #0
 1933 0010 4DD0     		beq	.L121
1162:.\bmp280.c    **** 		com_rslt = E_BMP280_NULL_PTR;
1163:.\bmp280.c    **** 	} else {
1164:.\bmp280.c    **** 	if (v_work_mode_u8 <= BMP280_ULTRA_HIGH_RESOLUTION_MODE) {
 1934              		.loc 1 1164 0
 1935 0012 0428     		cmp	r0, #4
 1936 0014 4DD8     		bhi	.L122
 1937 0016 051C     		mov	r5, r0
1165:.\bmp280.c    **** 		com_rslt = p_bmp280->BMP280_BUS_READ_FUNC(
 1938              		.loc 1 1165 0
 1939 0018 5C6A     		ldr	r4, [r3, #36]
 1940 001a 587F     		ldrb	r0, [r3, #29]
 1941              	.LVL188:
 1942 001c F421     		mov	r1, #244
 1943 001e 6B46     		mov	r3, sp
 1944 0020 DA1D     		add	r2, r3, #7
 1945 0022 0123     		mov	r3, #1
 1946 0024 A047     		blx	r4
 1947              	.LVL189:
 1948 0026 041E     		sub	r4, r0, #0
ARM GAS  C:\Users\Svilen\AppData\Local\Temp\ccFr0ira.s 			page 57


 1949              	.LVL190:
1166:.\bmp280.c    **** 				p_bmp280->dev_addr,
1167:.\bmp280.c    **** 				BMP280_CTRL_MEAS_REG, &v_data_u8,
1168:.\bmp280.c    **** 				BMP280_GEN_READ_WRITE_DATA_LENGTH);
1169:.\bmp280.c    **** 		if (com_rslt == SUCCESS) {
 1950              		.loc 1 1169 0
 1951 0028 44D1     		bne	.L113
1170:.\bmp280.c    **** 			switch (v_work_mode_u8) {
 1952              		.loc 1 1170 0
 1953 002a 042D     		cmp	r5, #4
 1954 002c 24D8     		bhi	.L114
 1955 002e A800     		lsl	r0, r5, #2
 1956 0030 234B     		ldr	r3, .L123+4
 1957 0032 1B58     		ldr	r3, [r3, r0]
 1958 0034 9F46     		mov	pc, r3
 1959              		.section	.rodata
 1960              		.align	2
 1961              	.L116:
 1962 0000 36000000 		.word	.L115
 1963 0004 42000000 		.word	.L117
 1964 0008 50000000 		.word	.L118
 1965 000c 5E000000 		.word	.L119
 1966 0010 6C000000 		.word	.L120
 1967              		.section	.text.bmp280_set_work_mode
 1968              	.L115:
1171:.\bmp280.c    **** 			/* write work mode*/
1172:.\bmp280.c    **** 			case BMP280_ULTRA_LOW_POWER_MODE:
1173:.\bmp280.c    **** 				p_bmp280->oversamp_temperature =
 1969              		.loc 1 1173 0
 1970 0036 214B     		ldr	r3, .L123
 1971 0038 1B68     		ldr	r3, [r3]
 1972 003a 0122     		mov	r2, #1
 1973 003c 9A77     		strb	r2, [r3, #30]
1174:.\bmp280.c    **** 				BMP280_ULTRALOWPOWER_OVERSAMP_TEMPERATURE;
1175:.\bmp280.c    **** 				p_bmp280->oversamp_pressure =
 1974              		.loc 1 1175 0
 1975 003e DA77     		strb	r2, [r3, #31]
1176:.\bmp280.c    **** 					BMP280_ULTRALOWPOWER_OVERSAMP_PRESSURE;
1177:.\bmp280.c    **** 				break;
 1976              		.loc 1 1177 0
 1977 0040 1AE0     		b	.L114
 1978              	.L117:
1178:.\bmp280.c    **** 			case BMP280_LOW_POWER_MODE:
1179:.\bmp280.c    **** 				p_bmp280->oversamp_temperature =
 1979              		.loc 1 1179 0
 1980 0042 1E4B     		ldr	r3, .L123
 1981 0044 1B68     		ldr	r3, [r3]
 1982 0046 0122     		mov	r2, #1
 1983 0048 9A77     		strb	r2, [r3, #30]
1180:.\bmp280.c    **** 					BMP280_LOWPOWER_OVERSAMP_TEMPERATURE;
1181:.\bmp280.c    **** 				p_bmp280->oversamp_pressure =
 1984              		.loc 1 1181 0
 1985 004a 0132     		add	r2, r2, #1
 1986 004c DA77     		strb	r2, [r3, #31]
1182:.\bmp280.c    **** 					BMP280_LOWPOWER_OVERSAMP_PRESSURE;
1183:.\bmp280.c    **** 				break;
 1987              		.loc 1 1183 0
ARM GAS  C:\Users\Svilen\AppData\Local\Temp\ccFr0ira.s 			page 58


 1988 004e 13E0     		b	.L114
 1989              	.L118:
1184:.\bmp280.c    **** 			case BMP280_STANDARD_RESOLUTION_MODE:
1185:.\bmp280.c    **** 				p_bmp280->oversamp_temperature =
 1990              		.loc 1 1185 0
 1991 0050 1A4B     		ldr	r3, .L123
 1992 0052 1B68     		ldr	r3, [r3]
 1993 0054 0122     		mov	r2, #1
 1994 0056 9A77     		strb	r2, [r3, #30]
1186:.\bmp280.c    **** 				BMP280_STANDARDRESOLUTION_OVERSAMP_TEMPERATURE;
1187:.\bmp280.c    **** 				p_bmp280->oversamp_pressure =
 1995              		.loc 1 1187 0
 1996 0058 0232     		add	r2, r2, #2
 1997 005a DA77     		strb	r2, [r3, #31]
1188:.\bmp280.c    **** 				BMP280_STANDARDRESOLUTION_OVERSAMP_PRESSURE;
1189:.\bmp280.c    **** 				break;
 1998              		.loc 1 1189 0
 1999 005c 0CE0     		b	.L114
 2000              	.L119:
1190:.\bmp280.c    **** 			case BMP280_HIGH_RESOLUTION_MODE:
1191:.\bmp280.c    **** 				p_bmp280->oversamp_temperature =
 2001              		.loc 1 1191 0
 2002 005e 174B     		ldr	r3, .L123
 2003 0060 1B68     		ldr	r3, [r3]
 2004 0062 0122     		mov	r2, #1
 2005 0064 9A77     		strb	r2, [r3, #30]
1192:.\bmp280.c    **** 				BMP280_HIGHRESOLUTION_OVERSAMP_TEMPERATURE;
1193:.\bmp280.c    **** 				p_bmp280->oversamp_pressure =
 2006              		.loc 1 1193 0
 2007 0066 0332     		add	r2, r2, #3
 2008 0068 DA77     		strb	r2, [r3, #31]
1194:.\bmp280.c    **** 				BMP280_HIGHRESOLUTION_OVERSAMP_PRESSURE;
1195:.\bmp280.c    **** 				break;
 2009              		.loc 1 1195 0
 2010 006a 05E0     		b	.L114
 2011              	.L120:
1196:.\bmp280.c    **** 			case BMP280_ULTRA_HIGH_RESOLUTION_MODE:
1197:.\bmp280.c    **** 				p_bmp280->oversamp_temperature =
 2012              		.loc 1 1197 0
 2013 006c 134B     		ldr	r3, .L123
 2014 006e 1B68     		ldr	r3, [r3]
 2015 0070 0222     		mov	r2, #2
 2016 0072 9A77     		strb	r2, [r3, #30]
1198:.\bmp280.c    **** 				BMP280_ULTRAHIGHRESOLUTION_OVERSAMP_TEMPERATURE;
1199:.\bmp280.c    **** 				p_bmp280->oversamp_pressure =
 2017              		.loc 1 1199 0
 2018 0074 0332     		add	r2, r2, #3
 2019 0076 DA77     		strb	r2, [r3, #31]
 2020              	.L114:
1200:.\bmp280.c    **** 				BMP280_ULTRAHIGHRESOLUTION_OVERSAMP_PRESSURE;
1201:.\bmp280.c    **** 				break;
1202:.\bmp280.c    **** 			}
1203:.\bmp280.c    **** 			v_data_u8 = BMP280_SET_BITSLICE(v_data_u8,
 2021              		.loc 1 1203 0
 2022 0078 104B     		ldr	r3, .L123
 2023 007a 1868     		ldr	r0, [r3]
 2024 007c 837F     		ldrb	r3, [r0, #30]
ARM GAS  C:\Users\Svilen\AppData\Local\Temp\ccFr0ira.s 			page 59


 2025 007e 5901     		lsl	r1, r3, #5
 2026 0080 6B46     		mov	r3, sp
 2027 0082 DA1D     		add	r2, r3, #7
 2028 0084 1378     		ldrb	r3, [r2]
 2029 0086 1F25     		mov	r5, #31
 2030 0088 2B40     		and	r3, r5
 2031 008a 0B43     		orr	r3, r1
 2032 008c DBB2     		uxtb	r3, r3
 2033 008e 1370     		strb	r3, [r2]
1204:.\bmp280.c    **** 				BMP280_CTRL_MEAS_REG_OVERSAMP_TEMPERATURE,
1205:.\bmp280.c    **** 				p_bmp280->oversamp_temperature);
1206:.\bmp280.c    **** 			v_data_u8 = BMP280_SET_BITSLICE(v_data_u8,
 2034              		.loc 1 1206 0
 2035 0090 C17F     		ldrb	r1, [r0, #31]
 2036 0092 8900     		lsl	r1, r1, #2
 2037 0094 033D     		sub	r5, r5, #3
 2038 0096 AB43     		bic	r3, r5
 2039 0098 2940     		and	r1, r5
 2040 009a 0B43     		orr	r3, r1
 2041 009c 1370     		strb	r3, [r2]
1207:.\bmp280.c    **** 				BMP280_CTRL_MEAS_REG_OVERSAMP_PRESSURE,
1208:.\bmp280.c    **** 				p_bmp280->oversamp_pressure);
1209:.\bmp280.c    **** 			com_rslt += p_bmp280->BMP280_BUS_WRITE_FUNC(
 2042              		.loc 1 1209 0
 2043 009e 056A     		ldr	r5, [r0, #32]
 2044 00a0 407F     		ldrb	r0, [r0, #29]
 2045 00a2 F421     		mov	r1, #244
 2046 00a4 0123     		mov	r3, #1
 2047 00a6 A847     		blx	r5
 2048              	.LVL191:
 2049 00a8 0019     		add	r0, r0, r4
 2050 00aa C0B2     		uxtb	r0, r0
 2051              	.LVL192:
 2052 00ac 02E0     		b	.L113
 2053              	.LVL193:
 2054              	.L121:
1162:.\bmp280.c    **** 	} else {
 2055              		.loc 1 1162 0
 2056 00ae 8120     		mov	r0, #129
 2057              	.LVL194:
 2058 00b0 00E0     		b	.L113
 2059              	.LVL195:
 2060              	.L122:
1210:.\bmp280.c    **** 				p_bmp280->dev_addr, BMP280_CTRL_MEAS_REG,
1211:.\bmp280.c    **** 				&v_data_u8, BMP280_GEN_READ_WRITE_DATA_LENGTH);
1212:.\bmp280.c    **** 		}
1213:.\bmp280.c    **** 	} else {
1214:.\bmp280.c    **** 		com_rslt = E_BMP280_OUT_OF_RANGE;
 2061              		.loc 1 1214 0
 2062 00b2 FE20     		mov	r0, #254
 2063              	.LVL196:
 2064              	.L113:
1215:.\bmp280.c    **** 	}
1216:.\bmp280.c    **** 	}
1217:.\bmp280.c    **** 	return com_rslt;
 2065              		.loc 1 1217 0
 2066 00b4 40B2     		sxtb	r0, r0
ARM GAS  C:\Users\Svilen\AppData\Local\Temp\ccFr0ira.s 			page 60


1218:.\bmp280.c    **** }
 2067              		.loc 1 1218 0
 2068 00b6 03B0     		add	sp, sp, #12
 2069              		@ sp needed
 2070 00b8 30BD     		pop	{r4, r5, pc}
 2071              	.L124:
 2072 00ba C046     		.align	2
 2073              	.L123:
 2074 00bc 00000000 		.word	.LANCHOR0
 2075 00c0 00000000 		.word	.L116
 2076              		.cfi_endproc
 2077              	.LFE21:
 2078              		.size	bmp280_set_work_mode, .-bmp280_set_work_mode
 2079              		.section	.text.bmp280_write_register,"ax",%progbits
 2080              		.align	2
 2081              		.global	bmp280_write_register
 2082              		.code	16
 2083              		.thumb_func
 2084              		.type	bmp280_write_register, %function
 2085              	bmp280_write_register:
 2086              	.LFB23:
1219:.\bmp280.c    **** /*!
1220:.\bmp280.c    ****  *	@brief This API used to read both
1221:.\bmp280.c    ****  *	uncompensated pressure and temperature in forced mode
1222:.\bmp280.c    ****  *
1223:.\bmp280.c    ****  *
1224:.\bmp280.c    ****  *  @param  v_uncomp_pressure_s32: The value of uncompensated pressure.
1225:.\bmp280.c    ****  *  @param  v_uncomp_temperature_s32: The value of uncompensated temperature
1226:.\bmp280.c    ****  *
1227:.\bmp280.c    ****  *
1228:.\bmp280.c    ****  *  @return results of bus communication function
1229:.\bmp280.c    ****  *	@retval 0 -> Success
1230:.\bmp280.c    ****  *	@retval -1 -> Error
1231:.\bmp280.c    ****  *
1232:.\bmp280.c    ****  *
1233:.\bmp280.c    ****  */
1234:.\bmp280.c    **** BMP280_RETURN_FUNCTION_TYPE bmp280_get_forced_uncomp_pressure_temperature(
1235:.\bmp280.c    **** 		s32 *v_uncomp_pressure_s32, s32 *v_uncomp_temperature_s32)
1236:.\bmp280.c    **** {
1237:.\bmp280.c    **** 	/* variable used to return communication result*/
1238:.\bmp280.c    **** 	BMP280_RETURN_FUNCTION_TYPE com_rslt = ERROR;
1239:.\bmp280.c    **** 	u8 v_data_u8 = BMP280_INIT_VALUE;
1240:.\bmp280.c    **** 	u8 v_waittime_u8 = BMP280_INIT_VALUE;
1241:.\bmp280.c    **** 	/* check the p_bmp280 structure pointer as NULL*/
1242:.\bmp280.c    **** 	if (p_bmp280 == BMP280_NULL) {
1243:.\bmp280.c    **** 		com_rslt = E_BMP280_NULL_PTR;
1244:.\bmp280.c    **** 	} else {
1245:.\bmp280.c    **** 		/* read pressure and temperature*/
1246:.\bmp280.c    **** 		v_data_u8 = (p_bmp280->oversamp_temperature
1247:.\bmp280.c    **** 				<< BMP280_SHIFT_BIT_POSITION_BY_05_BITS)
1248:.\bmp280.c    **** 				+ (p_bmp280->oversamp_pressure
1249:.\bmp280.c    **** 				<< BMP280_SHIFT_BIT_POSITION_BY_02_BITS)
1250:.\bmp280.c    **** 				+ BMP280_FORCED_MODE;
1251:.\bmp280.c    **** 		com_rslt = p_bmp280->BMP280_BUS_WRITE_FUNC(p_bmp280->dev_addr,
1252:.\bmp280.c    **** 				BMP280_CTRL_MEAS_REG, &v_data_u8,
1253:.\bmp280.c    **** 				BMP280_GEN_READ_WRITE_DATA_LENGTH);
1254:.\bmp280.c    **** 		bmp280_compute_wait_time(&v_waittime_u8);
ARM GAS  C:\Users\Svilen\AppData\Local\Temp\ccFr0ira.s 			page 61


1255:.\bmp280.c    **** 		p_bmp280->delay_msec(v_waittime_u8);
1256:.\bmp280.c    **** 		com_rslt += bmp280_read_uncomp_pressure_temperature(
1257:.\bmp280.c    **** 				v_uncomp_pressure_s32,
1258:.\bmp280.c    **** 				v_uncomp_temperature_s32);
1259:.\bmp280.c    **** 	}
1260:.\bmp280.c    **** 	return com_rslt;
1261:.\bmp280.c    **** }
1262:.\bmp280.c    **** /*!
1263:.\bmp280.c    ****  * @brief
1264:.\bmp280.c    ****  *	This API write the data to
1265:.\bmp280.c    ****  *	the given register
1266:.\bmp280.c    ****  *
1267:.\bmp280.c    ****  *
1268:.\bmp280.c    ****  *	@param v_addr_u8 -> Address of the register
1269:.\bmp280.c    ****  *	@param v_data_u8 -> The data from the register
1270:.\bmp280.c    ****  *	@param v_len_u8 -> no of bytes to read
1271:.\bmp280.c    ****  *
1272:.\bmp280.c    ****  *
1273:.\bmp280.c    ****  *	@return results of bus communication function
1274:.\bmp280.c    ****  *	@retval 0 -> Success
1275:.\bmp280.c    ****  *	@retval -1 -> Error
1276:.\bmp280.c    ****  *
1277:.\bmp280.c    ****  *
1278:.\bmp280.c    ****  */
1279:.\bmp280.c    **** BMP280_RETURN_FUNCTION_TYPE bmp280_write_register(u8 v_addr_u8, u8 *v_data_u8,
1280:.\bmp280.c    **** 		u8 v_len_u8)
1281:.\bmp280.c    **** {
 2087              		.loc 1 1281 0
 2088              		.cfi_startproc
 2089              	.LVL197:
 2090 0000 38B5     		push	{r3, r4, r5, lr}
 2091              		.cfi_def_cfa_offset 16
 2092              		.cfi_offset 3, -16
 2093              		.cfi_offset 4, -12
 2094              		.cfi_offset 5, -8
 2095              		.cfi_offset 14, -4
 2096              	.LVL198:
1282:.\bmp280.c    **** 	/* variable used to return communication result*/
1283:.\bmp280.c    **** 	BMP280_RETURN_FUNCTION_TYPE com_rslt = ERROR;
1284:.\bmp280.c    **** 	/* check the p_bmp280 structure pointer as NULL*/
1285:.\bmp280.c    **** 	if (p_bmp280 == BMP280_NULL) {
 2097              		.loc 1 1285 0
 2098 0002 074C     		ldr	r4, .L128
 2099 0004 2468     		ldr	r4, [r4]
 2100 0006 002C     		cmp	r4, #0
 2101 0008 06D0     		beq	.L127
 2102 000a 131C     		mov	r3, r2
 2103 000c 0A1C     		mov	r2, r1
 2104              	.LVL199:
 2105 000e 011C     		mov	r1, r0
 2106              	.LVL200:
1286:.\bmp280.c    **** 		com_rslt = E_BMP280_NULL_PTR;
1287:.\bmp280.c    **** 	} else {
1288:.\bmp280.c    **** 		com_rslt = p_bmp280->BMP280_BUS_WRITE_FUNC(p_bmp280->dev_addr,
 2107              		.loc 1 1288 0
 2108 0010 256A     		ldr	r5, [r4, #32]
 2109 0012 607F     		ldrb	r0, [r4, #29]
ARM GAS  C:\Users\Svilen\AppData\Local\Temp\ccFr0ira.s 			page 62


 2110              	.LVL201:
 2111 0014 A847     		blx	r5
 2112              	.LVL202:
 2113 0016 00E0     		b	.L126
 2114              	.LVL203:
 2115              	.L127:
1286:.\bmp280.c    **** 		com_rslt = E_BMP280_NULL_PTR;
 2116              		.loc 1 1286 0
 2117 0018 8120     		mov	r0, #129
 2118              	.LVL204:
 2119              	.L126:
1289:.\bmp280.c    **** 				v_addr_u8, v_data_u8, v_len_u8);
1290:.\bmp280.c    **** 	}
1291:.\bmp280.c    **** 	return com_rslt;
 2120              		.loc 1 1291 0
 2121 001a 40B2     		sxtb	r0, r0
1292:.\bmp280.c    **** }
 2122              		.loc 1 1292 0
 2123              		@ sp needed
 2124 001c 38BD     		pop	{r3, r4, r5, pc}
 2125              	.L129:
 2126 001e C046     		.align	2
 2127              	.L128:
 2128 0020 00000000 		.word	.LANCHOR0
 2129              		.cfi_endproc
 2130              	.LFE23:
 2131              		.size	bmp280_write_register, .-bmp280_write_register
 2132              		.section	.text.bmp280_read_register,"ax",%progbits
 2133              		.align	2
 2134              		.global	bmp280_read_register
 2135              		.code	16
 2136              		.thumb_func
 2137              		.type	bmp280_read_register, %function
 2138              	bmp280_read_register:
 2139              	.LFB24:
1293:.\bmp280.c    **** /*!
1294:.\bmp280.c    ****  * @brief
1295:.\bmp280.c    ****  *	This API reads the data from
1296:.\bmp280.c    ****  *	the given register
1297:.\bmp280.c    ****  *
1298:.\bmp280.c    ****  *
1299:.\bmp280.c    ****  *	@param v_addr_u8 -> Address of the register
1300:.\bmp280.c    ****  *	@param v_data_u8 -> The data from the register
1301:.\bmp280.c    ****  *	@param v_len_u8 -> no of bytes to read
1302:.\bmp280.c    ****  *
1303:.\bmp280.c    ****  *
1304:.\bmp280.c    ****  *	@return results of bus communication function
1305:.\bmp280.c    ****  *	@retval 0 -> Success
1306:.\bmp280.c    ****  *	@retval -1 -> Error
1307:.\bmp280.c    ****  *
1308:.\bmp280.c    ****  *
1309:.\bmp280.c    ****  */
1310:.\bmp280.c    **** BMP280_RETURN_FUNCTION_TYPE bmp280_read_register(u8 v_addr_u8, u8 *v_data_u8,
1311:.\bmp280.c    **** 		u8 v_len_u8)
1312:.\bmp280.c    **** {
 2140              		.loc 1 1312 0
 2141              		.cfi_startproc
ARM GAS  C:\Users\Svilen\AppData\Local\Temp\ccFr0ira.s 			page 63


 2142              	.LVL205:
 2143 0000 38B5     		push	{r3, r4, r5, lr}
 2144              		.cfi_def_cfa_offset 16
 2145              		.cfi_offset 3, -16
 2146              		.cfi_offset 4, -12
 2147              		.cfi_offset 5, -8
 2148              		.cfi_offset 14, -4
 2149              	.LVL206:
1313:.\bmp280.c    **** 	/* variable used to return communication result*/
1314:.\bmp280.c    **** 	BMP280_RETURN_FUNCTION_TYPE com_rslt = ERROR;
1315:.\bmp280.c    **** 	/* check the p_bmp280 structure pointer as NULL*/
1316:.\bmp280.c    **** 	if (p_bmp280 == BMP280_NULL) {
 2150              		.loc 1 1316 0
 2151 0002 074C     		ldr	r4, .L133
 2152 0004 2468     		ldr	r4, [r4]
 2153 0006 002C     		cmp	r4, #0
 2154 0008 06D0     		beq	.L132
 2155 000a 131C     		mov	r3, r2
 2156 000c 0A1C     		mov	r2, r1
 2157              	.LVL207:
 2158 000e 011C     		mov	r1, r0
 2159              	.LVL208:
1317:.\bmp280.c    **** 		com_rslt = E_BMP280_NULL_PTR;
1318:.\bmp280.c    **** 	} else {
1319:.\bmp280.c    **** 		com_rslt = p_bmp280->BMP280_BUS_READ_FUNC(p_bmp280->dev_addr,
 2160              		.loc 1 1319 0
 2161 0010 656A     		ldr	r5, [r4, #36]
 2162 0012 607F     		ldrb	r0, [r4, #29]
 2163              	.LVL209:
 2164 0014 A847     		blx	r5
 2165              	.LVL210:
 2166 0016 00E0     		b	.L131
 2167              	.LVL211:
 2168              	.L132:
1317:.\bmp280.c    **** 		com_rslt = E_BMP280_NULL_PTR;
 2169              		.loc 1 1317 0
 2170 0018 8120     		mov	r0, #129
 2171              	.LVL212:
 2172              	.L131:
1320:.\bmp280.c    **** 				v_addr_u8, v_data_u8, v_len_u8);
1321:.\bmp280.c    **** 	}
1322:.\bmp280.c    **** 	return com_rslt;
 2173              		.loc 1 1322 0
 2174 001a 40B2     		sxtb	r0, r0
1323:.\bmp280.c    **** }
 2175              		.loc 1 1323 0
 2176              		@ sp needed
 2177 001c 38BD     		pop	{r3, r4, r5, pc}
 2178              	.L134:
 2179 001e C046     		.align	2
 2180              	.L133:
 2181 0020 00000000 		.word	.LANCHOR0
 2182              		.cfi_endproc
 2183              	.LFE24:
 2184              		.size	bmp280_read_register, .-bmp280_read_register
 2185              		.global	__aeabi_i2d
 2186              		.global	__aeabi_dmul
ARM GAS  C:\Users\Svilen\AppData\Local\Temp\ccFr0ira.s 			page 64


 2187              		.global	__aeabi_ui2d
 2188              		.global	__aeabi_dsub
 2189              		.global	__aeabi_dadd
 2190              		.global	__aeabi_d2iz
 2191              		.global	__aeabi_ddiv
 2192              		.section	.text.bmp280_compensate_temperature_double,"ax",%progbits
 2193              		.align	2
 2194              		.global	bmp280_compensate_temperature_double
 2195              		.code	16
 2196              		.thumb_func
 2197              		.type	bmp280_compensate_temperature_double, %function
 2198              	bmp280_compensate_temperature_double:
 2199              	.LFB25:
1324:.\bmp280.c    **** #ifdef BMP280_ENABLE_FLOAT
1325:.\bmp280.c    **** /*!
1326:.\bmp280.c    ****  * @brief This API used to read
1327:.\bmp280.c    ****  * actual temperature from uncompensated temperature
1328:.\bmp280.c    ****  * @note Returns the value in Degree centigrade
1329:.\bmp280.c    ****  * @note Output value of "51.23" equals 51.23 DegC.
1330:.\bmp280.c    ****  *
1331:.\bmp280.c    ****  *
1332:.\bmp280.c    ****  *
1333:.\bmp280.c    ****  *  @param v_uncomp_temperature_s32 : value of uncompensated temperature
1334:.\bmp280.c    ****  *
1335:.\bmp280.c    ****  *
1336:.\bmp280.c    ****  *
1337:.\bmp280.c    ****  *  @return
1338:.\bmp280.c    ****  *	Actual temperature in floating point
1339:.\bmp280.c    ****  *
1340:.\bmp280.c    ****  */
1341:.\bmp280.c    **** double bmp280_compensate_temperature_double(s32 v_uncomp_temperature_s32)
1342:.\bmp280.c    **** {
 2200              		.loc 1 1342 0
 2201              		.cfi_startproc
 2202              	.LVL213:
 2203 0000 70B5     		push	{r4, r5, r6, lr}
 2204              		.cfi_def_cfa_offset 16
 2205              		.cfi_offset 4, -16
 2206              		.cfi_offset 5, -12
 2207              		.cfi_offset 6, -8
 2208              		.cfi_offset 14, -4
 2209 0002 84B0     		sub	sp, sp, #16
 2210              		.cfi_def_cfa_offset 32
 2211              	.LVL214:
1343:.\bmp280.c    **** 	double v_x1_u32r = BMP280_INIT_VALUE;
1344:.\bmp280.c    **** 	double v_x2_u32r = BMP280_INIT_VALUE;
1345:.\bmp280.c    **** 	double temperature = BMP280_INIT_VALUE;
1346:.\bmp280.c    **** 	/* calculate x1*/
1347:.\bmp280.c    **** 	v_x1_u32r = (((double)v_uncomp_temperature_s32) / 16384.0 -
 2212              		.loc 1 1347 0
 2213 0004 FFF7FEFF 		bl	__aeabi_i2d
 2214              	.LVL215:
 2215 0008 041C     		mov	r4, r0
 2216 000a 0D1C     		mov	r5, r1
 2217 000c 0022     		mov	r2, #0
 2218 000e 2E4B     		ldr	r3, .L136
 2219 0010 FFF7FEFF 		bl	__aeabi_dmul
ARM GAS  C:\Users\Svilen\AppData\Local\Temp\ccFr0ira.s 			page 65


 2220              	.LVL216:
 2221 0014 0290     		str	r0, [sp, #8]
 2222 0016 0391     		str	r1, [sp, #12]
1348:.\bmp280.c    **** 			((double)p_bmp280->calib_param.dig_T1) / 1024.0) *
 2223              		.loc 1 1348 0
 2224 0018 2C4B     		ldr	r3, .L136+4
 2225 001a 1E68     		ldr	r6, [r3]
 2226 001c 3088     		ldrh	r0, [r6]
 2227 001e FFF7FEFF 		bl	__aeabi_ui2d
 2228              	.LVL217:
 2229 0022 021C     		mov	r2, r0
 2230 0024 0B1C     		mov	r3, r1
 2231 0026 0092     		str	r2, [sp]
 2232 0028 0193     		str	r3, [sp, #4]
 2233 002a 0022     		mov	r2, #0
 2234 002c 284B     		ldr	r3, .L136+8
 2235 002e FFF7FEFF 		bl	__aeabi_dmul
 2236              	.LVL218:
 2237 0032 021C     		mov	r2, r0
 2238 0034 0B1C     		mov	r3, r1
1347:.\bmp280.c    **** 			((double)p_bmp280->calib_param.dig_T1) / 1024.0) *
 2239              		.loc 1 1347 0
 2240 0036 0298     		ldr	r0, [sp, #8]
 2241 0038 0399     		ldr	r1, [sp, #12]
 2242 003a FFF7FEFF 		bl	__aeabi_dsub
 2243              	.LVL219:
 2244 003e 0290     		str	r0, [sp, #8]
 2245 0040 0391     		str	r1, [sp, #12]
1349:.\bmp280.c    **** 	((double)p_bmp280->calib_param.dig_T2);
 2246              		.loc 1 1349 0
 2247 0042 0223     		mov	r3, #2
 2248 0044 F05E     		ldrsh	r0, [r6, r3]
 2249 0046 FFF7FEFF 		bl	__aeabi_i2d
 2250              	.LVL220:
 2251 004a 021C     		mov	r2, r0
 2252 004c 0B1C     		mov	r3, r1
1347:.\bmp280.c    **** 			((double)p_bmp280->calib_param.dig_T1) / 1024.0) *
 2253              		.loc 1 1347 0
 2254 004e 0298     		ldr	r0, [sp, #8]
 2255 0050 0399     		ldr	r1, [sp, #12]
 2256 0052 FFF7FEFF 		bl	__aeabi_dmul
 2257              	.LVL221:
 2258 0056 0290     		str	r0, [sp, #8]
 2259 0058 0391     		str	r1, [sp, #12]
 2260              	.LVL222:
1350:.\bmp280.c    **** 	/* calculate x2*/
1351:.\bmp280.c    **** 	v_x2_u32r = ((((double)v_uncomp_temperature_s32) / 131072.0 -
1352:.\bmp280.c    **** 			((double)p_bmp280->calib_param.dig_T1) / 8192.0) *
1353:.\bmp280.c    **** 			(((double)v_uncomp_temperature_s32) / 131072.0 -
 2261              		.loc 1 1353 0
 2262 005a 201C     		mov	r0, r4
 2263              	.LVL223:
 2264 005c 291C     		mov	r1, r5
 2265 005e 0022     		mov	r2, #0
 2266 0060 1C4B     		ldr	r3, .L136+12
 2267 0062 FFF7FEFF 		bl	__aeabi_dmul
 2268              	.LVL224:
ARM GAS  C:\Users\Svilen\AppData\Local\Temp\ccFr0ira.s 			page 66


 2269 0066 041C     		mov	r4, r0
 2270 0068 0D1C     		mov	r5, r1
1354:.\bmp280.c    **** 			((double)p_bmp280->calib_param.dig_T1) / 8192.0)) *
 2271              		.loc 1 1354 0
 2272 006a 0098     		ldr	r0, [sp]
 2273 006c 0199     		ldr	r1, [sp, #4]
 2274 006e 0022     		mov	r2, #0
 2275 0070 194B     		ldr	r3, .L136+16
 2276 0072 FFF7FEFF 		bl	__aeabi_dmul
 2277              	.LVL225:
 2278 0076 021C     		mov	r2, r0
 2279 0078 0B1C     		mov	r3, r1
1353:.\bmp280.c    **** 			((double)p_bmp280->calib_param.dig_T1) / 8192.0)) *
 2280              		.loc 1 1353 0
 2281 007a 201C     		mov	r0, r4
 2282 007c 291C     		mov	r1, r5
 2283 007e FFF7FEFF 		bl	__aeabi_dsub
 2284              	.LVL226:
 2285 0082 021C     		mov	r2, r0
 2286 0084 0B1C     		mov	r3, r1
1352:.\bmp280.c    **** 			(((double)v_uncomp_temperature_s32) / 131072.0 -
 2287              		.loc 1 1352 0
 2288 0086 FFF7FEFF 		bl	__aeabi_dmul
 2289              	.LVL227:
 2290 008a 041C     		mov	r4, r0
 2291 008c 0D1C     		mov	r5, r1
1355:.\bmp280.c    **** 	((double)p_bmp280->calib_param.dig_T3);
 2292              		.loc 1 1355 0
 2293 008e 0423     		mov	r3, #4
 2294 0090 F05E     		ldrsh	r0, [r6, r3]
 2295 0092 FFF7FEFF 		bl	__aeabi_i2d
 2296              	.LVL228:
 2297 0096 021C     		mov	r2, r0
 2298 0098 0B1C     		mov	r3, r1
1351:.\bmp280.c    **** 			((double)p_bmp280->calib_param.dig_T1) / 8192.0) *
 2299              		.loc 1 1351 0
 2300 009a 201C     		mov	r0, r4
 2301 009c 291C     		mov	r1, r5
 2302 009e FFF7FEFF 		bl	__aeabi_dmul
 2303              	.LVL229:
 2304 00a2 021C     		mov	r2, r0
 2305 00a4 0B1C     		mov	r3, r1
 2306              	.LVL230:
1356:.\bmp280.c    **** 	/* calculate t_fine*/
1357:.\bmp280.c    **** 	p_bmp280->calib_param.t_fine = (s32)(v_x1_u32r + v_x2_u32r);
 2307              		.loc 1 1357 0
 2308 00a6 0298     		ldr	r0, [sp, #8]
 2309 00a8 0399     		ldr	r1, [sp, #12]
 2310 00aa FFF7FEFF 		bl	__aeabi_dadd
 2311              	.LVL231:
 2312 00ae 041C     		mov	r4, r0
 2313 00b0 0D1C     		mov	r5, r1
 2314 00b2 FFF7FEFF 		bl	__aeabi_d2iz
 2315              	.LVL232:
 2316 00b6 B061     		str	r0, [r6, #24]
1358:.\bmp280.c    **** 	/* calculate true pressure*/
1359:.\bmp280.c    **** 	temperature = (v_x1_u32r + v_x2_u32r) / 5120.0;
ARM GAS  C:\Users\Svilen\AppData\Local\Temp\ccFr0ira.s 			page 67


 2317              		.loc 1 1359 0
 2318 00b8 201C     		mov	r0, r4
 2319 00ba 291C     		mov	r1, r5
 2320 00bc 0022     		mov	r2, #0
 2321 00be 074B     		ldr	r3, .L136+20
 2322 00c0 FFF7FEFF 		bl	__aeabi_ddiv
 2323              	.LVL233:
1360:.\bmp280.c    **** 
1361:.\bmp280.c    **** 	return temperature;
1362:.\bmp280.c    **** }
 2324              		.loc 1 1362 0
 2325 00c4 04B0     		add	sp, sp, #16
 2326              		@ sp needed
 2327 00c6 70BD     		pop	{r4, r5, r6, pc}
 2328              	.L137:
 2329              		.align	2
 2330              	.L136:
 2331 00c8 0000103F 		.word	1058013184
 2332 00cc 00000000 		.word	.LANCHOR0
 2333 00d0 0000503F 		.word	1062207488
 2334 00d4 0000E03E 		.word	1054867456
 2335 00d8 0000203F 		.word	1059061760
 2336 00dc 0000B440 		.word	1085538304
 2337              		.cfi_endproc
 2338              	.LFE25:
 2339              		.size	bmp280_compensate_temperature_double, .-bmp280_compensate_temperature_double
 2340              		.global	__aeabi_dcmpun
 2341              		.global	__aeabi_dcmpeq
 2342              		.section	.text.bmp280_compensate_pressure_double,"ax",%progbits
 2343              		.align	2
 2344              		.global	bmp280_compensate_pressure_double
 2345              		.code	16
 2346              		.thumb_func
 2347              		.type	bmp280_compensate_pressure_double, %function
 2348              	bmp280_compensate_pressure_double:
 2349              	.LFB26:
1363:.\bmp280.c    **** /*!
1364:.\bmp280.c    ****  *	@brief Reads actual pressure from uncompensated pressure
1365:.\bmp280.c    ****  *	and returns pressure in Pa as double.
1366:.\bmp280.c    ****  *	@note Output value of "96386.2"
1367:.\bmp280.c    ****  *	equals 96386.2 Pa = 963.862 hPa.
1368:.\bmp280.c    ****  *
1369:.\bmp280.c    ****  *
1370:.\bmp280.c    ****  *
1371:.\bmp280.c    ****  *  @param v_uncomp_pressure_s32 : value of uncompensated pressure
1372:.\bmp280.c    ****  *
1373:.\bmp280.c    ****  *
1374:.\bmp280.c    ****  *
1375:.\bmp280.c    ****  *  @return
1376:.\bmp280.c    ****  *	Actual pressure in floating point
1377:.\bmp280.c    ****  *
1378:.\bmp280.c    ****  */
1379:.\bmp280.c    **** double bmp280_compensate_pressure_double(s32 v_uncomp_pressure_s32)
1380:.\bmp280.c    **** {
 2350              		.loc 1 1380 0
 2351              		.cfi_startproc
 2352              	.LVL234:
ARM GAS  C:\Users\Svilen\AppData\Local\Temp\ccFr0ira.s 			page 68


 2353 0000 F0B5     		push	{r4, r5, r6, r7, lr}
 2354              		.cfi_def_cfa_offset 20
 2355              		.cfi_offset 4, -20
 2356              		.cfi_offset 5, -16
 2357              		.cfi_offset 6, -12
 2358              		.cfi_offset 7, -8
 2359              		.cfi_offset 14, -4
 2360 0002 85B0     		sub	sp, sp, #20
 2361              		.cfi_def_cfa_offset 40
 2362 0004 071C     		mov	r7, r0
 2363              	.LVL235:
1381:.\bmp280.c    **** 	double v_x1_u32r = BMP280_INIT_VALUE;
1382:.\bmp280.c    **** 	double v_x2_u32r = BMP280_INIT_VALUE;
1383:.\bmp280.c    **** 	double pressure = BMP280_INIT_VALUE;
1384:.\bmp280.c    **** 
1385:.\bmp280.c    **** 	v_x1_u32r = ((double)p_bmp280->calib_param.t_fine/2.0) - 64000.0;
 2364              		.loc 1 1385 0
 2365 0006 7C4B     		ldr	r3, .L143
 2366 0008 1E68     		ldr	r6, [r3]
 2367 000a B069     		ldr	r0, [r6, #24]
 2368              	.LVL236:
 2369 000c FFF7FEFF 		bl	__aeabi_i2d
 2370              	.LVL237:
 2371 0010 0022     		mov	r2, #0
 2372 0012 7A4B     		ldr	r3, .L143+4
 2373 0014 FFF7FEFF 		bl	__aeabi_dmul
 2374              	.LVL238:
 2375 0018 0022     		mov	r2, #0
 2376 001a 794B     		ldr	r3, .L143+8
 2377 001c FFF7FEFF 		bl	__aeabi_dsub
 2378              	.LVL239:
 2379 0020 041C     		mov	r4, r0
 2380 0022 0D1C     		mov	r5, r1
 2381              	.LVL240:
1386:.\bmp280.c    **** 	v_x2_u32r = v_x1_u32r * v_x1_u32r *
 2382              		.loc 1 1386 0
 2383 0024 221C     		mov	r2, r4
 2384 0026 2B1C     		mov	r3, r5
 2385 0028 FFF7FEFF 		bl	__aeabi_dmul
 2386              	.LVL241:
 2387 002c 0090     		str	r0, [sp]
 2388 002e 0191     		str	r1, [sp, #4]
1387:.\bmp280.c    **** 	((double)p_bmp280->calib_param.dig_P6) / 32768.0;
 2389              		.loc 1 1387 0
 2390 0030 1023     		mov	r3, #16
 2391 0032 F05E     		ldrsh	r0, [r6, r3]
 2392 0034 FFF7FEFF 		bl	__aeabi_i2d
 2393              	.LVL242:
 2394 0038 021C     		mov	r2, r0
 2395 003a 0B1C     		mov	r3, r1
1386:.\bmp280.c    **** 	v_x2_u32r = v_x1_u32r * v_x1_u32r *
 2396              		.loc 1 1386 0
 2397 003c 0098     		ldr	r0, [sp]
 2398 003e 0199     		ldr	r1, [sp, #4]
 2399 0040 FFF7FEFF 		bl	__aeabi_dmul
 2400              	.LVL243:
 2401 0044 0022     		mov	r2, #0
ARM GAS  C:\Users\Svilen\AppData\Local\Temp\ccFr0ira.s 			page 69


 2402 0046 FC23     		mov	r3, #252
 2403 0048 9B05     		lsl	r3, r3, #22
 2404 004a FFF7FEFF 		bl	__aeabi_dmul
 2405              	.LVL244:
 2406 004e 0090     		str	r0, [sp]
 2407 0050 0191     		str	r1, [sp, #4]
 2408              	.LVL245:
1388:.\bmp280.c    **** 	v_x2_u32r = v_x2_u32r + v_x1_u32r *
1389:.\bmp280.c    **** 	((double)p_bmp280->calib_param.dig_P5) * 2.0;
 2409              		.loc 1 1389 0
 2410 0052 0E23     		mov	r3, #14
 2411 0054 F05E     		ldrsh	r0, [r6, r3]
 2412              	.LVL246:
 2413 0056 FFF7FEFF 		bl	__aeabi_i2d
 2414              	.LVL247:
1388:.\bmp280.c    **** 	v_x2_u32r = v_x2_u32r + v_x1_u32r *
 2415              		.loc 1 1388 0
 2416 005a 221C     		mov	r2, r4
 2417 005c 2B1C     		mov	r3, r5
 2418 005e FFF7FEFF 		bl	__aeabi_dmul
 2419              	.LVL248:
 2420 0062 021C     		mov	r2, r0
 2421 0064 0B1C     		mov	r3, r1
 2422              		.loc 1 1389 0
 2423 0066 FFF7FEFF 		bl	__aeabi_dadd
 2424              	.LVL249:
1388:.\bmp280.c    **** 	v_x2_u32r = v_x2_u32r + v_x1_u32r *
 2425              		.loc 1 1388 0
 2426 006a 009A     		ldr	r2, [sp]
 2427 006c 019B     		ldr	r3, [sp, #4]
 2428 006e FFF7FEFF 		bl	__aeabi_dadd
 2429              	.LVL250:
1390:.\bmp280.c    **** 	v_x2_u32r = (v_x2_u32r / 4.0) +
 2430              		.loc 1 1390 0
 2431 0072 0022     		mov	r2, #0
 2432 0074 634B     		ldr	r3, .L143+12
 2433 0076 FFF7FEFF 		bl	__aeabi_dmul
 2434              	.LVL251:
 2435 007a 0090     		str	r0, [sp]
 2436 007c 0191     		str	r1, [sp, #4]
1391:.\bmp280.c    **** 	(((double)p_bmp280->calib_param.dig_P4) * 65536.0);
 2437              		.loc 1 1391 0
 2438 007e 0C23     		mov	r3, #12
 2439 0080 F05E     		ldrsh	r0, [r6, r3]
 2440 0082 FFF7FEFF 		bl	__aeabi_i2d
 2441              	.LVL252:
 2442 0086 0022     		mov	r2, #0
 2443 0088 5F4B     		ldr	r3, .L143+16
 2444 008a FFF7FEFF 		bl	__aeabi_dmul
 2445              	.LVL253:
 2446 008e 021C     		mov	r2, r0
 2447 0090 0B1C     		mov	r3, r1
1390:.\bmp280.c    **** 	v_x2_u32r = (v_x2_u32r / 4.0) +
 2448              		.loc 1 1390 0
 2449 0092 0098     		ldr	r0, [sp]
 2450 0094 0199     		ldr	r1, [sp, #4]
 2451 0096 FFF7FEFF 		bl	__aeabi_dadd
ARM GAS  C:\Users\Svilen\AppData\Local\Temp\ccFr0ira.s 			page 70


 2452              	.LVL254:
 2453 009a 0290     		str	r0, [sp, #8]
 2454 009c 0391     		str	r1, [sp, #12]
 2455              	.LVL255:
1392:.\bmp280.c    **** 	v_x1_u32r = (((double)p_bmp280->calib_param.dig_P3) *
 2456              		.loc 1 1392 0
 2457 009e 0A23     		mov	r3, #10
 2458 00a0 F05E     		ldrsh	r0, [r6, r3]
 2459              	.LVL256:
 2460 00a2 FFF7FEFF 		bl	__aeabi_i2d
 2461              	.LVL257:
 2462 00a6 221C     		mov	r2, r4
 2463 00a8 2B1C     		mov	r3, r5
 2464 00aa FFF7FEFF 		bl	__aeabi_dmul
 2465              	.LVL258:
1393:.\bmp280.c    **** 		v_x1_u32r * v_x1_u32r / 524288.0 +
 2466              		.loc 1 1393 0
 2467 00ae 221C     		mov	r2, r4
 2468 00b0 2B1C     		mov	r3, r5
 2469 00b2 FFF7FEFF 		bl	__aeabi_dmul
 2470              	.LVL259:
 2471 00b6 0022     		mov	r2, #0
 2472 00b8 FB23     		mov	r3, #251
 2473 00ba 9B05     		lsl	r3, r3, #22
 2474 00bc FFF7FEFF 		bl	__aeabi_dmul
 2475              	.LVL260:
 2476 00c0 0090     		str	r0, [sp]
 2477 00c2 0191     		str	r1, [sp, #4]
1394:.\bmp280.c    **** 		((double)p_bmp280->calib_param.dig_P2) * v_x1_u32r) / 524288.0;
 2478              		.loc 1 1394 0
 2479 00c4 0823     		mov	r3, #8
 2480 00c6 F05E     		ldrsh	r0, [r6, r3]
 2481 00c8 FFF7FEFF 		bl	__aeabi_i2d
 2482              	.LVL261:
 2483 00cc 221C     		mov	r2, r4
 2484 00ce 2B1C     		mov	r3, r5
 2485 00d0 FFF7FEFF 		bl	__aeabi_dmul
 2486              	.LVL262:
 2487 00d4 021C     		mov	r2, r0
 2488 00d6 0B1C     		mov	r3, r1
1393:.\bmp280.c    **** 		v_x1_u32r * v_x1_u32r / 524288.0 +
 2489              		.loc 1 1393 0
 2490 00d8 0098     		ldr	r0, [sp]
 2491 00da 0199     		ldr	r1, [sp, #4]
 2492 00dc FFF7FEFF 		bl	__aeabi_dadd
 2493              	.LVL263:
1392:.\bmp280.c    **** 	v_x1_u32r = (((double)p_bmp280->calib_param.dig_P3) *
 2494              		.loc 1 1392 0
 2495 00e0 0022     		mov	r2, #0
 2496 00e2 FB23     		mov	r3, #251
 2497 00e4 9B05     		lsl	r3, r3, #22
 2498 00e6 FFF7FEFF 		bl	__aeabi_dmul
 2499              	.LVL264:
1395:.\bmp280.c    **** 	v_x1_u32r = (1.0 + v_x1_u32r / 32768.0) *
 2500              		.loc 1 1395 0
 2501 00ea 0022     		mov	r2, #0
 2502 00ec FC23     		mov	r3, #252
ARM GAS  C:\Users\Svilen\AppData\Local\Temp\ccFr0ira.s 			page 71


 2503 00ee 9B05     		lsl	r3, r3, #22
 2504 00f0 FFF7FEFF 		bl	__aeabi_dmul
 2505              	.LVL265:
 2506 00f4 0022     		mov	r2, #0
 2507 00f6 454B     		ldr	r3, .L143+20
 2508 00f8 FFF7FEFF 		bl	__aeabi_dadd
 2509              	.LVL266:
 2510 00fc 041C     		mov	r4, r0
 2511 00fe 0D1C     		mov	r5, r1
1396:.\bmp280.c    **** 	((double)p_bmp280->calib_param.dig_P1);
 2512              		.loc 1 1396 0
 2513 0100 F088     		ldrh	r0, [r6, #6]
 2514 0102 FFF7FEFF 		bl	__aeabi_ui2d
 2515              	.LVL267:
 2516 0106 021C     		mov	r2, r0
 2517 0108 0B1C     		mov	r3, r1
1395:.\bmp280.c    **** 	v_x1_u32r = (1.0 + v_x1_u32r / 32768.0) *
 2518              		.loc 1 1395 0
 2519 010a 201C     		mov	r0, r4
 2520 010c 291C     		mov	r1, r5
 2521 010e FFF7FEFF 		bl	__aeabi_dmul
 2522              	.LVL268:
 2523 0112 041C     		mov	r4, r0
 2524 0114 0D1C     		mov	r5, r1
 2525              	.LVL269:
1397:.\bmp280.c    **** 	pressure = 1048576.0 - (double)v_uncomp_pressure_s32;
 2526              		.loc 1 1397 0
 2527 0116 381C     		mov	r0, r7
 2528 0118 FFF7FEFF 		bl	__aeabi_i2d
 2529              	.LVL270:
 2530 011c 021C     		mov	r2, r0
 2531 011e 0B1C     		mov	r3, r1
 2532 0120 0020     		mov	r0, #0
 2533 0122 3B49     		ldr	r1, .L143+24
 2534 0124 FFF7FEFF 		bl	__aeabi_dsub
 2535              	.LVL271:
 2536 0128 0090     		str	r0, [sp]
 2537 012a 0191     		str	r1, [sp, #4]
 2538              	.LVL272:
1398:.\bmp280.c    **** 	/* Avoid exception caused by division by zero */
1399:.\bmp280.c    **** 	if ((v_x1_u32r > 0) || (v_x1_u32r < 0))
 2539              		.loc 1 1399 0
 2540 012c 201C     		mov	r0, r4
 2541              	.LVL273:
 2542 012e 291C     		mov	r1, r5
 2543 0130 0022     		mov	r2, #0
 2544 0132 0023     		mov	r3, #0
 2545 0134 FFF7FEFF 		bl	__aeabi_dcmpun
 2546              	.LVL274:
 2547 0138 0028     		cmp	r0, #0
 2548 013a 58D1     		bne	.L141
 2549 013c 201C     		mov	r0, r4
 2550 013e 291C     		mov	r1, r5
 2551 0140 0022     		mov	r2, #0
 2552 0142 0023     		mov	r3, #0
 2553 0144 FFF7FEFF 		bl	__aeabi_dcmpeq
 2554              	.LVL275:
ARM GAS  C:\Users\Svilen\AppData\Local\Temp\ccFr0ira.s 			page 72


 2555 0148 0028     		cmp	r0, #0
 2556 014a 50D1     		bne	.L141
1400:.\bmp280.c    **** 		pressure = (pressure - (v_x2_u32r / 4096.0)) *
 2557              		.loc 1 1400 0
 2558 014c 0298     		ldr	r0, [sp, #8]
 2559 014e 0399     		ldr	r1, [sp, #12]
 2560 0150 0022     		mov	r2, #0
 2561 0152 304B     		ldr	r3, .L143+28
 2562 0154 FFF7FEFF 		bl	__aeabi_dmul
 2563              	.LVL276:
 2564 0158 021C     		mov	r2, r0
 2565 015a 0B1C     		mov	r3, r1
 2566 015c 0098     		ldr	r0, [sp]
 2567 015e 0199     		ldr	r1, [sp, #4]
 2568 0160 FFF7FEFF 		bl	__aeabi_dsub
 2569              	.LVL277:
 2570 0164 0022     		mov	r2, #0
 2571 0166 2C4B     		ldr	r3, .L143+32
 2572 0168 FFF7FEFF 		bl	__aeabi_dmul
 2573              	.LVL278:
 2574 016c 221C     		mov	r2, r4
 2575 016e 2B1C     		mov	r3, r5
 2576 0170 FFF7FEFF 		bl	__aeabi_ddiv
 2577              	.LVL279:
 2578 0174 041C     		mov	r4, r0
 2579              	.LVL280:
 2580 0176 0D1C     		mov	r5, r1
 2581              	.LVL281:
1401:.\bmp280.c    **** 					6250.0 / v_x1_u32r;
1402:.\bmp280.c    **** 	else
1403:.\bmp280.c    **** 	return BMP280_INVALID_DATA;
1404:.\bmp280.c    **** 	v_x1_u32r = ((double)p_bmp280->calib_param.dig_P9) *
 2582              		.loc 1 1404 0
 2583 0178 1623     		mov	r3, #22
 2584 017a F05E     		ldrsh	r0, [r6, r3]
 2585 017c FFF7FEFF 		bl	__aeabi_i2d
 2586              	.LVL282:
 2587 0180 221C     		mov	r2, r4
 2588 0182 2B1C     		mov	r3, r5
 2589 0184 FFF7FEFF 		bl	__aeabi_dmul
 2590              	.LVL283:
1405:.\bmp280.c    **** 	pressure * pressure / 2147483648.0;
 2591              		.loc 1 1405 0
 2592 0188 221C     		mov	r2, r4
 2593 018a 2B1C     		mov	r3, r5
 2594 018c FFF7FEFF 		bl	__aeabi_dmul
 2595              	.LVL284:
1404:.\bmp280.c    **** 	pressure * pressure / 2147483648.0;
 2596              		.loc 1 1404 0
 2597 0190 0022     		mov	r2, #0
 2598 0192 F823     		mov	r3, #248
 2599 0194 9B05     		lsl	r3, r3, #22
 2600 0196 FFF7FEFF 		bl	__aeabi_dmul
 2601              	.LVL285:
 2602 019a 0090     		str	r0, [sp]
 2603 019c 0191     		str	r1, [sp, #4]
 2604              	.LVL286:
ARM GAS  C:\Users\Svilen\AppData\Local\Temp\ccFr0ira.s 			page 73


1406:.\bmp280.c    **** 	v_x2_u32r = pressure * ((double)p_bmp280->calib_param.dig_P8) / 32768.0;
 2605              		.loc 1 1406 0
 2606 019e 1423     		mov	r3, #20
 2607 01a0 F05E     		ldrsh	r0, [r6, r3]
 2608              	.LVL287:
 2609 01a2 FFF7FEFF 		bl	__aeabi_i2d
 2610              	.LVL288:
 2611 01a6 221C     		mov	r2, r4
 2612 01a8 2B1C     		mov	r3, r5
 2613 01aa FFF7FEFF 		bl	__aeabi_dmul
 2614              	.LVL289:
 2615 01ae 0022     		mov	r2, #0
 2616 01b0 FC23     		mov	r3, #252
 2617 01b2 9B05     		lsl	r3, r3, #22
 2618 01b4 FFF7FEFF 		bl	__aeabi_dmul
 2619              	.LVL290:
 2620 01b8 021C     		mov	r2, r0
 2621 01ba 0B1C     		mov	r3, r1
 2622              	.LVL291:
1407:.\bmp280.c    **** 	pressure = pressure + (v_x1_u32r + v_x2_u32r +
 2623              		.loc 1 1407 0
 2624 01bc 0098     		ldr	r0, [sp]
 2625 01be 0199     		ldr	r1, [sp, #4]
 2626 01c0 FFF7FEFF 		bl	__aeabi_dadd
 2627              	.LVL292:
 2628 01c4 0090     		str	r0, [sp]
 2629 01c6 0191     		str	r1, [sp, #4]
 2630              	.LVL293:
1408:.\bmp280.c    **** 			((double)p_bmp280->calib_param.dig_P7)) / 16.0;
 2631              		.loc 1 1408 0
 2632 01c8 1223     		mov	r3, #18
 2633 01ca F05E     		ldrsh	r0, [r6, r3]
 2634 01cc FFF7FEFF 		bl	__aeabi_i2d
 2635              	.LVL294:
 2636 01d0 021C     		mov	r2, r0
 2637 01d2 0B1C     		mov	r3, r1
1407:.\bmp280.c    **** 	pressure = pressure + (v_x1_u32r + v_x2_u32r +
 2638              		.loc 1 1407 0
 2639 01d4 0098     		ldr	r0, [sp]
 2640 01d6 0199     		ldr	r1, [sp, #4]
 2641 01d8 FFF7FEFF 		bl	__aeabi_dadd
 2642              	.LVL295:
 2643              		.loc 1 1408 0
 2644 01dc 0022     		mov	r2, #0
 2645 01de 0F4B     		ldr	r3, .L143+36
 2646 01e0 FFF7FEFF 		bl	__aeabi_dmul
 2647              	.LVL296:
1407:.\bmp280.c    **** 	pressure = pressure + (v_x1_u32r + v_x2_u32r +
 2648              		.loc 1 1407 0
 2649 01e4 221C     		mov	r2, r4
 2650 01e6 2B1C     		mov	r3, r5
 2651 01e8 FFF7FEFF 		bl	__aeabi_dadd
 2652              	.LVL297:
1409:.\bmp280.c    **** 
1410:.\bmp280.c    **** 	return pressure;
 2653              		.loc 1 1410 0
 2654 01ec 01E0     		b	.L139
ARM GAS  C:\Users\Svilen\AppData\Local\Temp\ccFr0ira.s 			page 74


 2655              	.LVL298:
 2656              	.L141:
1403:.\bmp280.c    **** 	v_x1_u32r = ((double)p_bmp280->calib_param.dig_P9) *
 2657              		.loc 1 1403 0
 2658 01ee 0020     		mov	r0, #0
 2659 01f0 0021     		mov	r1, #0
 2660              	.LVL299:
 2661              	.L139:
1411:.\bmp280.c    **** }
 2662              		.loc 1 1411 0
 2663 01f2 05B0     		add	sp, sp, #20
 2664              		@ sp needed
 2665              	.LVL300:
 2666 01f4 F0BD     		pop	{r4, r5, r6, r7, pc}
 2667              	.L144:
 2668 01f6 C046     		.align	2
 2669              	.L143:
 2670 01f8 00000000 		.word	.LANCHOR0
 2671 01fc 0000E03F 		.word	1071644672
 2672 0200 0040EF40 		.word	1089421312
 2673 0204 0000D03F 		.word	1070596096
 2674 0208 0000F040 		.word	1089470464
 2675 020c 0000F03F 		.word	1072693248
 2676 0210 00003041 		.word	1093664768
 2677 0214 0000303F 		.word	1060110336
 2678 0218 006AB840 		.word	1085827584
 2679 021c 0000B03F 		.word	1068498944
 2680              		.cfi_endproc
 2681              	.LFE26:
 2682              		.size	bmp280_compensate_pressure_double, .-bmp280_compensate_pressure_double
 2683              		.global	__aeabi_lmul
 2684              		.global	__aeabi_ldivmod
 2685              		.section	.text.bmp280_compensate_pressure_int64,"ax",%progbits
 2686              		.align	2
 2687              		.global	bmp280_compensate_pressure_int64
 2688              		.code	16
 2689              		.thumb_func
 2690              		.type	bmp280_compensate_pressure_int64, %function
 2691              	bmp280_compensate_pressure_int64:
 2692              	.LFB27:
1412:.\bmp280.c    **** #endif
1413:.\bmp280.c    **** #if defined(BMP280_ENABLE_INT64) && defined(BMP280_64BITSUPPORT_PRESENT)
1414:.\bmp280.c    **** /*!
1415:.\bmp280.c    ****  * @brief This API used to read actual pressure from uncompensated pressure
1416:.\bmp280.c    ****  * @note returns the value in Pa as unsigned 32 bit
1417:.\bmp280.c    ****  * integer in Q24.8 format (24 integer bits and
1418:.\bmp280.c    ****  * 8 fractional bits). Output value of "24674867"
1419:.\bmp280.c    ****  * represents 24674867 / 256 = 96386.2 Pa = 963.862 hPa
1420:.\bmp280.c    ****  *
1421:.\bmp280.c    ****  *
1422:.\bmp280.c    ****  *
1423:.\bmp280.c    ****  *  @param v_uncomp_pressure_s32 : value of uncompensated pressure
1424:.\bmp280.c    ****  *
1425:.\bmp280.c    ****  *
1426:.\bmp280.c    ****  *
1427:.\bmp280.c    ****  *  @return actual pressure as 64bit output
1428:.\bmp280.c    ****  *
ARM GAS  C:\Users\Svilen\AppData\Local\Temp\ccFr0ira.s 			page 75


1429:.\bmp280.c    ****  */
1430:.\bmp280.c    **** u32 bmp280_compensate_pressure_int64(s32 v_uncomp_pressure_s32)
1431:.\bmp280.c    **** {
 2693              		.loc 1 1431 0
 2694              		.cfi_startproc
 2695              	.LVL301:
 2696 0000 F0B5     		push	{r4, r5, r6, r7, lr}
 2697              		.cfi_def_cfa_offset 20
 2698              		.cfi_offset 4, -20
 2699              		.cfi_offset 5, -16
 2700              		.cfi_offset 6, -12
 2701              		.cfi_offset 7, -8
 2702              		.cfi_offset 14, -4
 2703 0002 5746     		mov	r7, r10
 2704 0004 4E46     		mov	r6, r9
 2705 0006 4546     		mov	r5, r8
 2706 0008 E0B4     		push	{r5, r6, r7}
 2707              		.cfi_def_cfa_offset 32
 2708              		.cfi_offset 8, -32
 2709              		.cfi_offset 9, -28
 2710              		.cfi_offset 10, -24
 2711 000a 84B0     		sub	sp, sp, #16
 2712              		.cfi_def_cfa_offset 48
 2713 000c 8146     		mov	r9, r0
 2714              	.LVL302:
1432:.\bmp280.c    **** 	s64 v_x1_s64r = BMP280_INIT_VALUE;
1433:.\bmp280.c    **** 	s64 v_x2_s64r = BMP280_INIT_VALUE;
1434:.\bmp280.c    **** 	s64 pressure = BMP280_INIT_VALUE;
1435:.\bmp280.c    **** 	/* calculate x1*/
1436:.\bmp280.c    **** 	v_x1_s64r = ((s64)p_bmp280->calib_param.t_fine) - 128000;
 2715              		.loc 1 1436 0
 2716 000e 564B     		ldr	r3, .L149
 2717 0010 1B68     		ldr	r3, [r3]
 2718 0012 9846     		mov	r8, r3
 2719 0014 4146     		mov	r1, r8
 2720 0016 8A69     		ldr	r2, [r1, #24]
 2721 0018 D317     		asr	r3, r2, #31
 2722 001a 544E     		ldr	r6, .L149+4
 2723 001c 0127     		mov	r7, #1
 2724 001e 7F42     		neg	r7, r7
 2725 0020 B618     		add	r6, r6, r2
 2726 0022 5F41     		adc	r7, r7, r3
 2727              	.LVL303:
1437:.\bmp280.c    **** 	v_x2_s64r = v_x1_s64r * v_x1_s64r *
 2728              		.loc 1 1437 0
 2729 0024 301C     		mov	r0, r6
 2730              	.LVL304:
 2731 0026 391C     		mov	r1, r7
 2732 0028 321C     		mov	r2, r6
 2733 002a 3B1C     		mov	r3, r7
 2734 002c FFF7FEFF 		bl	__aeabi_lmul
 2735              	.LVL305:
1438:.\bmp280.c    **** 	(s64)p_bmp280->calib_param.dig_P6;
 2736              		.loc 1 1438 0
 2737 0030 4346     		mov	r3, r8
 2738 0032 1022     		mov	r2, #16
 2739 0034 9A5E     		ldrsh	r2, [r3, r2]
ARM GAS  C:\Users\Svilen\AppData\Local\Temp\ccFr0ira.s 			page 76


 2740 0036 D317     		asr	r3, r2, #31
1437:.\bmp280.c    **** 	v_x2_s64r = v_x1_s64r * v_x1_s64r *
 2741              		.loc 1 1437 0
 2742 0038 0090     		str	r0, [sp]
 2743 003a 0191     		str	r1, [sp, #4]
 2744 003c FFF7FEFF 		bl	__aeabi_lmul
 2745              	.LVL306:
 2746 0040 041C     		mov	r4, r0
 2747 0042 0D1C     		mov	r5, r1
 2748              	.LVL307:
1439:.\bmp280.c    **** 	/* calculate x2*/
1440:.\bmp280.c    **** 	v_x2_s64r = v_x2_s64r + ((v_x1_s64r * (s64)p_bmp280->calib_param.dig_P5)
 2749              		.loc 1 1440 0
 2750 0044 4346     		mov	r3, r8
 2751 0046 0E20     		mov	r0, #14
 2752 0048 185E     		ldrsh	r0, [r3, r0]
 2753 004a C117     		asr	r1, r0, #31
 2754 004c 321C     		mov	r2, r6
 2755 004e 3B1C     		mov	r3, r7
 2756 0050 FFF7FEFF 		bl	__aeabi_lmul
 2757              	.LVL308:
1441:.\bmp280.c    **** 			<< BMP280_SHIFT_BIT_POSITION_BY_17_BITS);
 2758              		.loc 1 1441 0
 2759 0054 C30B     		lsr	r3, r0, #15
 2760 0056 9A46     		mov	r10, r3
 2761 0058 4B04     		lsl	r3, r1, #17
 2762 005a 5146     		mov	r1, r10
 2763 005c 0B43     		orr	r3, r1
 2764 005e 4204     		lsl	r2, r0, #17
1440:.\bmp280.c    **** 			<< BMP280_SHIFT_BIT_POSITION_BY_17_BITS);
 2765              		.loc 1 1440 0
 2766 0060 A418     		add	r4, r4, r2
 2767 0062 5D41     		adc	r5, r5, r3
 2768              	.LVL309:
1442:.\bmp280.c    **** 	v_x2_s64r = v_x2_s64r +
1443:.\bmp280.c    **** 	(((s64)p_bmp280->calib_param.dig_P4)
 2769              		.loc 1 1443 0
 2770 0064 4346     		mov	r3, r8
 2771 0066 0C21     		mov	r1, #12
 2772 0068 595E     		ldrsh	r1, [r3, r1]
1444:.\bmp280.c    **** 			<< BMP280_SHIFT_BIT_POSITION_BY_35_BITS);
 2773              		.loc 1 1444 0
 2774 006a 0022     		mov	r2, #0
 2775 006c CB00     		lsl	r3, r1, #3
1442:.\bmp280.c    **** 	v_x2_s64r = v_x2_s64r +
 2776              		.loc 1 1442 0
 2777 006e 1219     		add	r2, r2, r4
 2778 0070 6B41     		adc	r3, r3, r5
 2779 0072 0292     		str	r2, [sp, #8]
 2780 0074 0393     		str	r3, [sp, #12]
 2781              	.LVL310:
1445:.\bmp280.c    **** 	v_x1_s64r = ((v_x1_s64r * v_x1_s64r *
1446:.\bmp280.c    **** 			(s64)p_bmp280->calib_param.dig_P3)
 2782              		.loc 1 1446 0
 2783 0076 4346     		mov	r3, r8
 2784 0078 0A22     		mov	r2, #10
 2785 007a 9A5E     		ldrsh	r2, [r3, r2]
ARM GAS  C:\Users\Svilen\AppData\Local\Temp\ccFr0ira.s 			page 77


 2786              	.LVL311:
 2787 007c D317     		asr	r3, r2, #31
1445:.\bmp280.c    **** 	v_x1_s64r = ((v_x1_s64r * v_x1_s64r *
 2788              		.loc 1 1445 0
 2789 007e 0098     		ldr	r0, [sp]
 2790 0080 0199     		ldr	r1, [sp, #4]
 2791 0082 FFF7FEFF 		bl	__aeabi_lmul
 2792              	.LVL312:
1447:.\bmp280.c    **** 			>> BMP280_SHIFT_BIT_POSITION_BY_08_BITS) +
 2793              		.loc 1 1447 0
 2794 0086 0B06     		lsl	r3, r1, #24
 2795 0088 040A     		lsr	r4, r0, #8
 2796 008a 1C43     		orr	r4, r3
 2797 008c 0D12     		asr	r5, r1, #8
1448:.\bmp280.c    **** 	((v_x1_s64r * (s64)p_bmp280->calib_param.dig_P2)
 2798              		.loc 1 1448 0
 2799 008e 4346     		mov	r3, r8
 2800 0090 0820     		mov	r0, #8
 2801 0092 185E     		ldrsh	r0, [r3, r0]
 2802 0094 C117     		asr	r1, r0, #31
 2803 0096 321C     		mov	r2, r6
 2804 0098 3B1C     		mov	r3, r7
 2805 009a FFF7FEFF 		bl	__aeabi_lmul
 2806              	.LVL313:
1449:.\bmp280.c    **** 			<< BMP280_SHIFT_BIT_POSITION_BY_12_BITS);
 2807              		.loc 1 1449 0
 2808 009e 060D     		lsr	r6, r0, #20
 2809              	.LVL314:
 2810 00a0 0B03     		lsl	r3, r1, #12
 2811 00a2 3343     		orr	r3, r6
 2812 00a4 0203     		lsl	r2, r0, #12
1445:.\bmp280.c    **** 			(s64)p_bmp280->calib_param.dig_P3)
 2813              		.loc 1 1445 0
 2814 00a6 A418     		add	r4, r4, r2
 2815 00a8 5D41     		adc	r5, r5, r3
 2816              	.LVL315:
1450:.\bmp280.c    **** 	v_x1_s64r = (((((s64)1) << BMP280_SHIFT_BIT_POSITION_BY_47_BITS)
1451:.\bmp280.c    **** 			+ v_x1_s64r)) * ((s64)p_bmp280->calib_param.dig_P1) >>
 2817              		.loc 1 1451 0
 2818 00aa 0020     		mov	r0, #0
 2819 00ac 8021     		mov	r1, #128
 2820 00ae 0902     		lsl	r1, r1, #8
 2821 00b0 0019     		add	r0, r0, r4
 2822 00b2 6941     		adc	r1, r1, r5
 2823 00b4 4346     		mov	r3, r8
 2824 00b6 DA88     		ldrh	r2, [r3, #6]
 2825 00b8 0023     		mov	r3, #0
 2826 00ba FFF7FEFF 		bl	__aeabi_lmul
 2827              	.LVL316:
1450:.\bmp280.c    **** 	v_x1_s64r = (((((s64)1) << BMP280_SHIFT_BIT_POSITION_BY_47_BITS)
 2828              		.loc 1 1450 0
 2829 00be 4D10     		asr	r5, r1, #1
 2830 00c0 CC17     		asr	r4, r1, #31
 2831              	.LVL317:
1452:.\bmp280.c    **** 			BMP280_SHIFT_BIT_POSITION_BY_33_BITS;
1453:.\bmp280.c    **** 	pressure = 1048576 - v_uncomp_pressure_s32;
 2832              		.loc 1 1453 0
ARM GAS  C:\Users\Svilen\AppData\Local\Temp\ccFr0ira.s 			page 78


 2833 00c2 8023     		mov	r3, #128
 2834 00c4 5B03     		lsl	r3, r3, #13
 2835 00c6 4946     		mov	r1, r9
 2836 00c8 5B1A     		sub	r3, r3, r1
 2837 00ca DE17     		asr	r6, r3, #31
 2838              	.LVL318:
1454:.\bmp280.c    **** 	if (v_x1_s64r != BMP280_INIT_VALUE)
 2839              		.loc 1 1454 0
 2840 00cc 291C     		mov	r1, r5
 2841 00ce 2143     		orr	r1, r4
 2842 00d0 43D0     		beq	.L148
1455:.\bmp280.c    **** #if defined __KERNEL__
1456:.\bmp280.c    **** 		pressure = div64_s64((((pressure
1457:.\bmp280.c    **** 				<< BMP280_SHIFT_BIT_POSITION_BY_31_BITS)
1458:.\bmp280.c    **** 				- v_x2_s64r) * 3125), v_x1_s64r);
1459:.\bmp280.c    **** #else
1460:.\bmp280.c    **** 		pressure = (((pressure
1461:.\bmp280.c    **** 				<< BMP280_SHIFT_BIT_POSITION_BY_31_BITS)
 2843              		.loc 1 1461 0
 2844 00d2 5A08     		lsr	r2, r3, #1
 2845 00d4 F107     		lsl	r1, r6, #31
 2846 00d6 1143     		orr	r1, r2
 2847 00d8 D807     		lsl	r0, r3, #31
1462:.\bmp280.c    **** 				- v_x2_s64r) * 3125) / v_x1_s64r;
 2848              		.loc 1 1462 0
 2849 00da 029A     		ldr	r2, [sp, #8]
 2850 00dc 039B     		ldr	r3, [sp, #12]
 2851 00de 801A     		sub	r0, r0, r2
 2852 00e0 9941     		sbc	r1, r1, r3
 2853 00e2 234A     		ldr	r2, .L149+8
 2854 00e4 0023     		mov	r3, #0
 2855              	.LVL319:
 2856 00e6 FFF7FEFF 		bl	__aeabi_lmul
 2857              	.LVL320:
1460:.\bmp280.c    **** 				<< BMP280_SHIFT_BIT_POSITION_BY_31_BITS)
 2858              		.loc 1 1460 0
 2859 00ea 2A1C     		mov	r2, r5
 2860 00ec 231C     		mov	r3, r4
 2861 00ee FFF7FEFF 		bl	__aeabi_ldivmod
 2862              	.LVL321:
 2863 00f2 061C     		mov	r6, r0
 2864              	.LVL322:
 2865 00f4 0F1C     		mov	r7, r1
 2866              	.LVL323:
1463:.\bmp280.c    **** #endif
1464:.\bmp280.c    **** 	else
1465:.\bmp280.c    **** 		return BMP280_INVALID_DATA;
1466:.\bmp280.c    **** 	v_x1_s64r = (((s64)p_bmp280->calib_param.dig_P9) *
 2867              		.loc 1 1466 0
 2868 00f6 4346     		mov	r3, r8
 2869 00f8 1620     		mov	r0, #22
 2870 00fa 185E     		ldrsh	r0, [r3, r0]
 2871 00fc C117     		asr	r1, r0, #31
1467:.\bmp280.c    **** 			(pressure >> BMP280_SHIFT_BIT_POSITION_BY_13_BITS) *
 2872              		.loc 1 1467 0
 2873 00fe FB04     		lsl	r3, r7, #19
 2874 0100 750B     		lsr	r5, r6, #13
ARM GAS  C:\Users\Svilen\AppData\Local\Temp\ccFr0ira.s 			page 79


 2875              	.LVL324:
 2876 0102 1D43     		orr	r5, r3
 2877 0104 7C13     		asr	r4, r7, #13
1466:.\bmp280.c    **** 			(pressure >> BMP280_SHIFT_BIT_POSITION_BY_13_BITS) *
 2878              		.loc 1 1466 0
 2879 0106 2A1C     		mov	r2, r5
 2880 0108 231C     		mov	r3, r4
 2881 010a FFF7FEFF 		bl	__aeabi_lmul
 2882              	.LVL325:
 2883 010e 021C     		mov	r2, r0
 2884 0110 0B1C     		mov	r3, r1
 2885              		.loc 1 1467 0
 2886 0112 281C     		mov	r0, r5
 2887 0114 211C     		mov	r1, r4
 2888 0116 FFF7FEFF 		bl	__aeabi_lmul
 2889              	.LVL326:
1466:.\bmp280.c    **** 			(pressure >> BMP280_SHIFT_BIT_POSITION_BY_13_BITS) *
 2890              		.loc 1 1466 0
 2891 011a CB01     		lsl	r3, r1, #7
 2892 011c 440E     		lsr	r4, r0, #25
 2893 011e 1C43     		orr	r4, r3
 2894 0120 4D16     		asr	r5, r1, #25
 2895              	.LVL327:
1468:.\bmp280.c    **** 			(pressure >> BMP280_SHIFT_BIT_POSITION_BY_13_BITS))
1469:.\bmp280.c    **** 	>> BMP280_SHIFT_BIT_POSITION_BY_25_BITS;
1470:.\bmp280.c    **** 	v_x2_s64r = (((s64)p_bmp280->calib_param.dig_P8) *
 2896              		.loc 1 1470 0
 2897 0122 4346     		mov	r3, r8
 2898 0124 1420     		mov	r0, #20
 2899 0126 185E     		ldrsh	r0, [r3, r0]
 2900 0128 C117     		asr	r1, r0, #31
 2901 012a 321C     		mov	r2, r6
 2902 012c 3B1C     		mov	r3, r7
 2903 012e FFF7FEFF 		bl	__aeabi_lmul
 2904              	.LVL328:
 2905 0132 4B03     		lsl	r3, r1, #13
 2906 0134 9946     		mov	r9, r3
 2907              	.LVL329:
 2908 0136 C20C     		lsr	r2, r0, #19
 2909 0138 4846     		mov	r0, r9
 2910 013a 0243     		orr	r2, r0
 2911 013c CB14     		asr	r3, r1, #19
 2912              	.LVL330:
1471:.\bmp280.c    **** 			pressure) >> BMP280_SHIFT_BIT_POSITION_BY_19_BITS;
1472:.\bmp280.c    **** 	/* calculate pressure*/
1473:.\bmp280.c    **** 	pressure = ((pressure + v_x1_s64r + v_x2_s64r)
 2913              		.loc 1 1473 0
 2914 013e A419     		add	r4, r4, r6
 2915 0140 7D41     		adc	r5, r5, r7
 2916              	.LVL331:
 2917 0142 1219     		add	r2, r2, r4
 2918 0144 6B41     		adc	r3, r3, r5
 2919              	.LVL332:
 2920 0146 111C     		mov	r1, r2
1474:.\bmp280.c    **** 			>> BMP280_SHIFT_BIT_POSITION_BY_08_BITS) +
 2921              		.loc 1 1474 0
 2922 0148 1B06     		lsl	r3, r3, #24
ARM GAS  C:\Users\Svilen\AppData\Local\Temp\ccFr0ira.s 			page 80


 2923 014a 080A     		lsr	r0, r1, #8
 2924 014c 1843     		orr	r0, r3
1475:.\bmp280.c    **** 	(((s64)p_bmp280->calib_param.dig_P7)
 2925              		.loc 1 1475 0
 2926 014e 4346     		mov	r3, r8
 2927 0150 1222     		mov	r2, #18
 2928 0152 9A5E     		ldrsh	r2, [r3, r2]
1476:.\bmp280.c    **** 			<< BMP280_SHIFT_BIT_POSITION_BY_04_BITS);
 2929              		.loc 1 1476 0
 2930 0154 1301     		lsl	r3, r2, #4
 2931              	.LVL333:
1477:.\bmp280.c    **** 	return (u32)pressure;
 2932              		.loc 1 1477 0
 2933 0156 C018     		add	r0, r0, r3
 2934 0158 00E0     		b	.L146
 2935              	.LVL334:
 2936              	.L148:
1465:.\bmp280.c    **** 	v_x1_s64r = (((s64)p_bmp280->calib_param.dig_P9) *
 2937              		.loc 1 1465 0
 2938 015a 0020     		mov	r0, #0
 2939              	.LVL335:
 2940              	.L146:
1478:.\bmp280.c    **** }
 2941              		.loc 1 1478 0
 2942 015c 04B0     		add	sp, sp, #16
 2943              		@ sp needed
 2944 015e 1CBC     		pop	{r2, r3, r4}
 2945 0160 9046     		mov	r8, r2
 2946 0162 9946     		mov	r9, r3
 2947 0164 A246     		mov	r10, r4
 2948 0166 F0BD     		pop	{r4, r5, r6, r7, pc}
 2949              	.L150:
 2950              		.align	2
 2951              	.L149:
 2952 0168 00000000 		.word	.LANCHOR0
 2953 016c 000CFEFF 		.word	-128000
 2954 0170 350C0000 		.word	3125
 2955              		.cfi_endproc
 2956              	.LFE27:
 2957              		.size	bmp280_compensate_pressure_int64, .-bmp280_compensate_pressure_int64
 2958              		.section	.text.bmp280_compute_wait_time,"ax",%progbits
 2959              		.align	2
 2960              		.global	bmp280_compute_wait_time
 2961              		.code	16
 2962              		.thumb_func
 2963              		.type	bmp280_compute_wait_time, %function
 2964              	bmp280_compute_wait_time:
 2965              	.LFB28:
1479:.\bmp280.c    **** #endif
1480:.\bmp280.c    **** /*!
1481:.\bmp280.c    ****  * @brief Computing waiting time for sensor data read
1482:.\bmp280.c    ****  *
1483:.\bmp280.c    ****  *
1484:.\bmp280.c    ****  *
1485:.\bmp280.c    ****  *
1486:.\bmp280.c    ****  *  @param v_delaytime_u8r: The value of delay time
1487:.\bmp280.c    ****  *
ARM GAS  C:\Users\Svilen\AppData\Local\Temp\ccFr0ira.s 			page 81


1488:.\bmp280.c    ****  *
1489:.\bmp280.c    ****  *  @return 0
1490:.\bmp280.c    ****  *
1491:.\bmp280.c    ****  *
1492:.\bmp280.c    ****  */
1493:.\bmp280.c    **** BMP280_RETURN_FUNCTION_TYPE bmp280_compute_wait_time(u8 *v_delaytime_u8r)
1494:.\bmp280.c    **** {
 2966              		.loc 1 1494 0
 2967              		.cfi_startproc
 2968              	.LVL336:
 2969 0000 10B5     		push	{r4, lr}
 2970              		.cfi_def_cfa_offset 8
 2971              		.cfi_offset 4, -8
 2972              		.cfi_offset 14, -4
 2973              	.LVL337:
1495:.\bmp280.c    **** 	/* variable used to return communication result*/
1496:.\bmp280.c    **** 	BMP280_RETURN_FUNCTION_TYPE com_rslt = SUCCESS;
1497:.\bmp280.c    **** 
1498:.\bmp280.c    **** 	*v_delaytime_u8r = (T_INIT_MAX + T_MEASURE_PER_OSRS_MAX * (((1
1499:.\bmp280.c    **** 			<< p_bmp280->oversamp_temperature)
 2974              		.loc 1 1499 0
 2975 0002 0F4B     		ldr	r3, .L154
 2976 0004 1968     		ldr	r1, [r3]
 2977 0006 8B7F     		ldrb	r3, [r1, #30]
 2978 0008 0122     		mov	r2, #1
 2979 000a 141C     		mov	r4, r2
 2980 000c 9C40     		lsl	r4, r4, r3
1500:.\bmp280.c    **** 			>> BMP280_SHIFT_BIT_POSITION_BY_01_BIT)
 2981              		.loc 1 1500 0
 2982 000e 6310     		asr	r3, r4, #1
1501:.\bmp280.c    **** 			+ ((1 << p_bmp280->oversamp_pressure)
 2983              		.loc 1 1501 0
 2984 0010 C97F     		ldrb	r1, [r1, #31]
 2985 0012 8A40     		lsl	r2, r2, r1
1502:.\bmp280.c    **** 			>> BMP280_SHIFT_BIT_POSITION_BY_01_BIT))
 2986              		.loc 1 1502 0
 2987 0014 5210     		asr	r2, r2, #1
1501:.\bmp280.c    **** 			+ ((1 << p_bmp280->oversamp_pressure)
 2988              		.loc 1 1501 0
 2989 0016 9B18     		add	r3, r3, r2
1498:.\bmp280.c    **** 			<< p_bmp280->oversamp_temperature)
 2990              		.loc 1 1498 0
 2991 0018 DA00     		lsl	r2, r3, #3
 2992 001a D218     		add	r2, r2, r3
 2993 001c 9200     		lsl	r2, r2, #2
 2994 001e D318     		add	r3, r2, r3
 2995 0020 1433     		add	r3, r3, #20
1503:.\bmp280.c    **** 			+ ((p_bmp280->oversamp_pressure > 0) ?
1504:.\bmp280.c    **** 			T_SETUP_PRESSURE_MAX : 0) + 15) / 16;
 2996              		.loc 1 1504 0
 2997 0022 0029     		cmp	r1, #0
 2998 0024 01D0     		beq	.L153
 2999 0026 0A22     		mov	r2, #10
 3000 0028 00E0     		b	.L152
 3001              	.L153:
 3002 002a 0022     		mov	r2, #0
 3003              	.L152:
ARM GAS  C:\Users\Svilen\AppData\Local\Temp\ccFr0ira.s 			page 82


1503:.\bmp280.c    **** 			+ ((p_bmp280->oversamp_pressure > 0) ?
 3004              		.loc 1 1503 0
 3005 002c 9B18     		add	r3, r3, r2
 3006              		.loc 1 1504 0
 3007 002e 0F33     		add	r3, r3, #15
 3008 0030 DA17     		asr	r2, r3, #31
 3009 0032 120F     		lsr	r2, r2, #28
 3010 0034 D318     		add	r3, r2, r3
 3011 0036 1B11     		asr	r3, r3, #4
1498:.\bmp280.c    **** 			<< p_bmp280->oversamp_temperature)
 3012              		.loc 1 1498 0
 3013 0038 0370     		strb	r3, [r0]
1505:.\bmp280.c    **** 	return com_rslt;
1506:.\bmp280.c    **** }
 3014              		.loc 1 1506 0
 3015 003a 0020     		mov	r0, #0
 3016              	.LVL338:
 3017              		@ sp needed
 3018 003c 10BD     		pop	{r4, pc}
 3019              	.L155:
 3020 003e C046     		.align	2
 3021              	.L154:
 3022 0040 00000000 		.word	.LANCHOR0
 3023              		.cfi_endproc
 3024              	.LFE28:
 3025              		.size	bmp280_compute_wait_time, .-bmp280_compute_wait_time
 3026              		.section	.text.bmp280_get_forced_uncomp_pressure_temperature,"ax",%progbits
 3027              		.align	2
 3028              		.global	bmp280_get_forced_uncomp_pressure_temperature
 3029              		.code	16
 3030              		.thumb_func
 3031              		.type	bmp280_get_forced_uncomp_pressure_temperature, %function
 3032              	bmp280_get_forced_uncomp_pressure_temperature:
 3033              	.LFB22:
1236:.\bmp280.c    **** 	/* variable used to return communication result*/
 3034              		.loc 1 1236 0
 3035              		.cfi_startproc
 3036              	.LVL339:
 3037 0000 F0B5     		push	{r4, r5, r6, r7, lr}
 3038              		.cfi_def_cfa_offset 20
 3039              		.cfi_offset 4, -20
 3040              		.cfi_offset 5, -16
 3041              		.cfi_offset 6, -12
 3042              		.cfi_offset 7, -8
 3043              		.cfi_offset 14, -4
 3044 0002 83B0     		sub	sp, sp, #12
 3045              		.cfi_def_cfa_offset 32
 3046              	.LVL340:
1239:.\bmp280.c    **** 	u8 v_waittime_u8 = BMP280_INIT_VALUE;
 3047              		.loc 1 1239 0
 3048 0004 0023     		mov	r3, #0
 3049 0006 6A46     		mov	r2, sp
 3050 0008 D371     		strb	r3, [r2, #7]
1240:.\bmp280.c    **** 	/* check the p_bmp280 structure pointer as NULL*/
 3051              		.loc 1 1240 0
 3052 000a 6A46     		mov	r2, sp
 3053 000c 9371     		strb	r3, [r2, #6]
ARM GAS  C:\Users\Svilen\AppData\Local\Temp\ccFr0ira.s 			page 83


1242:.\bmp280.c    **** 		com_rslt = E_BMP280_NULL_PTR;
 3054              		.loc 1 1242 0
 3055 000e 154B     		ldr	r3, .L159
 3056 0010 1C68     		ldr	r4, [r3]
 3057 0012 002C     		cmp	r4, #0
 3058 0014 21D0     		beq	.L158
 3059 0016 0D1C     		mov	r5, r1
 3060 0018 061C     		mov	r6, r0
1246:.\bmp280.c    **** 				<< BMP280_SHIFT_BIT_POSITION_BY_05_BITS)
 3061              		.loc 1 1246 0
 3062 001a A17F     		ldrb	r1, [r4, #30]
 3063              	.LVL341:
1248:.\bmp280.c    **** 				<< BMP280_SHIFT_BIT_POSITION_BY_02_BITS)
 3064              		.loc 1 1248 0
 3065 001c E37F     		ldrb	r3, [r4, #31]
1246:.\bmp280.c    **** 				<< BMP280_SHIFT_BIT_POSITION_BY_05_BITS)
 3066              		.loc 1 1246 0
 3067 001e 6A46     		mov	r2, sp
 3068 0020 0732     		add	r2, r2, #7
 3069 0022 4901     		lsl	r1, r1, #5
 3070 0024 9B00     		lsl	r3, r3, #2
 3071 0026 CB18     		add	r3, r1, r3
 3072 0028 0133     		add	r3, r3, #1
 3073 002a 1370     		strb	r3, [r2]
1251:.\bmp280.c    **** 				BMP280_CTRL_MEAS_REG, &v_data_u8,
 3074              		.loc 1 1251 0
 3075 002c 276A     		ldr	r7, [r4, #32]
 3076 002e 607F     		ldrb	r0, [r4, #29]
 3077              	.LVL342:
 3078 0030 F421     		mov	r1, #244
 3079 0032 0123     		mov	r3, #1
 3080 0034 B847     		blx	r7
 3081              	.LVL343:
 3082 0036 041C     		mov	r4, r0
 3083              	.LVL344:
1254:.\bmp280.c    **** 		p_bmp280->delay_msec(v_waittime_u8);
 3084              		.loc 1 1254 0
 3085 0038 6B46     		mov	r3, sp
 3086 003a 9F1D     		add	r7, r3, #6
 3087 003c 381C     		mov	r0, r7
 3088 003e FFF7FEFF 		bl	bmp280_compute_wait_time
 3089              	.LVL345:
1255:.\bmp280.c    **** 		com_rslt += bmp280_read_uncomp_pressure_temperature(
 3090              		.loc 1 1255 0
 3091 0042 084B     		ldr	r3, .L159
 3092 0044 1B68     		ldr	r3, [r3]
 3093 0046 9B6A     		ldr	r3, [r3, #40]
 3094 0048 3878     		ldrb	r0, [r7]
 3095 004a 9847     		blx	r3
 3096              	.LVL346:
1256:.\bmp280.c    **** 				v_uncomp_pressure_s32,
 3097              		.loc 1 1256 0
 3098 004c 301C     		mov	r0, r6
 3099 004e 291C     		mov	r1, r5
 3100 0050 FFF7FEFF 		bl	bmp280_read_uncomp_pressure_temperature
 3101              	.LVL347:
 3102 0054 0019     		add	r0, r0, r4
ARM GAS  C:\Users\Svilen\AppData\Local\Temp\ccFr0ira.s 			page 84


 3103 0056 C0B2     		uxtb	r0, r0
 3104              	.LVL348:
 3105 0058 00E0     		b	.L157
 3106              	.LVL349:
 3107              	.L158:
1243:.\bmp280.c    **** 	} else {
 3108              		.loc 1 1243 0
 3109 005a 8120     		mov	r0, #129
 3110              	.LVL350:
 3111              	.L157:
1260:.\bmp280.c    **** }
 3112              		.loc 1 1260 0
 3113 005c 40B2     		sxtb	r0, r0
1261:.\bmp280.c    **** /*!
 3114              		.loc 1 1261 0
 3115 005e 03B0     		add	sp, sp, #12
 3116              		@ sp needed
 3117 0060 F0BD     		pop	{r4, r5, r6, r7, pc}
 3118              	.L160:
 3119 0062 C046     		.align	2
 3120              	.L159:
 3121 0064 00000000 		.word	.LANCHOR0
 3122              		.cfi_endproc
 3123              	.LFE22:
 3124              		.size	bmp280_get_forced_uncomp_pressure_temperature, .-bmp280_get_forced_uncomp_pressure_temperatu
 3125              		.bss
 3126              		.align	2
 3127              		.set	.LANCHOR0,. + 0
 3128              		.type	p_bmp280, %object
 3129              		.size	p_bmp280, 4
 3130              	p_bmp280:
 3131 0000 00000000 		.space	4
 3132              		.text
 3133              	.Letext0:
 3134              		.file 2 ".\\bmp280.h"