ARM GAS  C:\Users\Svilen\AppData\Local\Temp\ccuaxGpF.s 			page 1


   1              		.cpu cortex-m0
   2              		.fpu softvfp
   3              		.eabi_attribute 20, 1
   4              		.eabi_attribute 21, 1
   5              		.eabi_attribute 23, 3
   6              		.eabi_attribute 24, 1
   7              		.eabi_attribute 25, 1
   8              		.eabi_attribute 26, 1
   9              		.eabi_attribute 30, 1
  10              		.eabi_attribute 34, 0
  11              		.eabi_attribute 18, 4
  12              		.code	16
  13              		.file	"main.c"
  14              		.text
  15              	.Ltext0:
  16              		.cfi_sections	.debug_frame
  17              		.section	.text.RainISR,"ax",%progbits
  18              		.align	2
  19              		.global	RainISR
  20              		.code	16
  21              		.thumb_func
  22              		.type	RainISR, %function
  23              	RainISR:
  24              	.LFB35:
  25              		.file 1 ".\\main.c"
   1:.\main.c      **** /* ========================================
   2:.\main.c      ****  *
   3:.\main.c      ****  * This program is 
   4:.\main.c      ****  *
   5:.\main.c      ****  * ========================================
   6:.\main.c      **** */
   7:.\main.c      **** #include <project.h>
   8:.\main.c      **** #include <stdio.h>
   9:.\main.c      **** #include <string.h>
  10:.\main.c      **** 
  11:.\main.c      **** #define READ_LINE_TIMEOUT 1000
  12:.\main.c      **** #define ESTABLISH_CONN_TIMEOUT 3000 //15000    - –∑–∞ –¢–°–†
  13:.\main.c      **** 
  14:.\main.c      **** #define SLEEP_TIME 20000    // WiFI –º–æ–¥—É–ª–∞ —Å–µ –ø—Ä–∏—Å–ø–∏–≤–∞ —Å–ª–µ–¥ –∫–∞—Ç–æ 
  15:.\main.c      ****                             // –∏–∑–ø—Ä–∞—Ç–∏ –¥–∞–Ω–Ω–∏—Ç–µ –∏ —Å–µ —Å—ä–±—É–∂–¥–∞ —Å–ª–µ–¥ —Ç–æ–≤
  16:.\main.c      **** #define WAKEUP_ADVANCE 5000 // —Å—ä–±—É–∂–¥–∞–Ω–µ—Ç–æ —Å—Ç–∞–≤–∞ –ø—Ä–µ–¥–≤–∞—Ä–∏—Ç–µ–ª–Ω–æ —Å —Ç–æ
  17:.\main.c      **** 
  18:.\main.c      **** #define BMP180_IS_PRESENT
  19:.\main.c      **** #define RAIN_ENABLED
  20:.\main.c      **** #define UBAT_ENABLED
  21:.\main.c      **** #define TX20_ENABLED
  22:.\main.c      **** 
  23:.\main.c      **** #define CHN_ADC_UBAT    0
  24:.\main.c      **** 
  25:.\main.c      **** //–†–∞–±–æ—Ç–∞ —Å WiFi –º–æ–¥—É–ª–∞
  26:.\main.c      **** //–í–∏–∂ –∫–æ–º–µ–Ω—Ç–∞—Ä–∞ –≤ SetTimeout()
  27:.\main.c      **** CY_ISR_PROTO(TimeoutISR);
  28:.\main.c      **** uint8 timeoutFlag;
  29:.\main.c      **** CY_ISR(TimeoutISR)
  30:.\main.c      **** {
  31:.\main.c      **** /* ISR Code here */
  32:.\main.c      ****     timeoutFlag=1;
ARM GAS  C:\Users\Svilen\AppData\Local\Temp\ccuaxGpF.s 			page 2


  33:.\main.c      ****     Timeout_ClearInterrupt(Timeout_INTR_MASK_CC_MATCH);
  34:.\main.c      **** }
  35:.\main.c      **** void SetTimeout(uint16 miliseconds);
  36:.\main.c      **** uint32 UartReadLine(char *line, uint16 timeout);
  37:.\main.c      **** 
  38:.\main.c      **** //–°–µ–Ω–∑–æ—Ä –∑–∞ –¥—ä–∂–¥
  39:.\main.c      **** CY_ISR_PROTO(RainISR);
  40:.\main.c      **** uint rainCounter;
  41:.\main.c      **** CY_ISR(RainISR)
  42:.\main.c      **** {
  26              		.loc 1 42 0
  27              		.cfi_startproc
  43:.\main.c      ****     rainCounter++;    
  28              		.loc 1 43 0
  29 0000 024A     		ldr	r2, .L2
  30 0002 1368     		ldr	r3, [r2]
  31 0004 0133     		add	r3, r3, #1
  32 0006 1360     		str	r3, [r2]
  44:.\main.c      **** }
  33              		.loc 1 44 0
  34              		@ sp needed
  35 0008 7047     		bx	lr
  36              	.L3:
  37 000a C046     		.align	2
  38              	.L2:
  39 000c 00000000 		.word	rainCounter
  40              		.cfi_endproc
  41              	.LFE35:
  42              		.size	RainISR, .-RainISR
  43              		.section	.text.TimeoutISR,"ax",%progbits
  44              		.align	2
  45              		.global	TimeoutISR
  46              		.code	16
  47              		.thumb_func
  48              		.type	TimeoutISR, %function
  49              	TimeoutISR:
  50              	.LFB34:
  30:.\main.c      **** /* ISR Code here */
  51              		.loc 1 30 0
  52              		.cfi_startproc
  53 0000 08B5     		push	{r3, lr}
  54              		.cfi_def_cfa_offset 8
  55              		.cfi_offset 3, -8
  56              		.cfi_offset 14, -4
  32:.\main.c      ****     Timeout_ClearInterrupt(Timeout_INTR_MASK_CC_MATCH);
  57              		.loc 1 32 0
  58 0002 0122     		mov	r2, #1
  59 0004 024B     		ldr	r3, .L5
  60 0006 1A70     		strb	r2, [r3]
  33:.\main.c      **** }
  61              		.loc 1 33 0
  62 0008 0220     		mov	r0, #2
  63 000a FFF7FEFF 		bl	Timeout_ClearInterrupt
  64              	.LVL0:
  34:.\main.c      **** void SetTimeout(uint16 miliseconds);
  65              		.loc 1 34 0
  66              		@ sp needed
ARM GAS  C:\Users\Svilen\AppData\Local\Temp\ccuaxGpF.s 			page 3


  67 000e 08BD     		pop	{r3, pc}
  68              	.L6:
  69              		.align	2
  70              	.L5:
  71 0010 00000000 		.word	timeoutFlag
  72              		.cfi_endproc
  73              	.LFE34:
  74              		.size	TimeoutISR, .-TimeoutISR
  75              		.section	.text.AM2302_Read,"ax",%progbits
  76              		.align	2
  77              		.global	AM2302_Read
  78              		.code	16
  79              		.thumb_func
  80              		.type	AM2302_Read, %function
  81              	AM2302_Read:
  82              	.LFB37:
  45:.\main.c      **** 
  46:.\main.c      **** //–§—É–Ω–∫—Ü–∏–∏ –∑–∞ –¥–æ—Å—Ç—ä–ø –¥–æ —Å–µ–Ω–∑–æ—Ä –∑–∞ –∞—Ç–º. –Ω–∞–ª—è–≥–∞–Ω–µ –∏ —Ç–µ–º–ø–µ—Ä–
  47:.\main.c      **** // Bosch BMP180. –ò–Ω—Ç–µ—Ä—Ñ–µ–π—Å–∞ –Ω–∞ —Å–µ–Ω–∑–æ—Ä–∞ –µ I2C
  48:.\main.c      **** void BMP180_ReadCalibrationCoefs();
  49:.\main.c      **** long BMP180_ReadTemperature();
  50:.\main.c      **** long BMP180_ReadPresure(long temperature, int oss);
  51:.\main.c      **** uint32 BMP180_ReadReg(uint32 reg);
  52:.\main.c      **** uint16 BMP180_ReadUInt(uint32 reg);
  53:.\main.c      **** int16 BMP180_ReadInt(uint32 reg);
  54:.\main.c      **** void BMP180_WriteByte(uint32 reg, uint32 b);
  55:.\main.c      **** //–ö–æ–µ—Ñ–∏—Ü–∏–µ–Ω—Ç–∏ –∑–∞ –∫–∞–ª–∏–±—Ä–∏—Ä–∞–Ω–µ –Ω–∞ BMP180. –°—Ç–æ–π–Ω–æ—Å—Ç–∏—Ç–µ –∏–º —Å–∞ 
  56:.\main.c      **** int16 AC1, AC2, AC3, B1, B2, MB, MC, MD;
  57:.\main.c      **** uint16 AC4, AC5, AC6;
  58:.\main.c      **** 
  59:.\main.c      **** //AM2302
  60:.\main.c      **** int AM2302_Read();
  61:.\main.c      **** int16 AM2302_Humidity;
  62:.\main.c      **** int16 AM2302_Temp;
  63:.\main.c      **** int8  AM2302_CRC;
  64:.\main.c      **** 
  65:.\main.c      **** //TX20
  66:.\main.c      **** uint16 windDirection; //0-15
  67:.\main.c      **** uint16 windSpeed; //0-511
  68:.\main.c      **** 
  69:.\main.c      **** uint8 TX20_Read();
  70:.\main.c      **** 
  71:.\main.c      **** int main()
  72:.\main.c      **** {
  73:.\main.c      ****     char rxbuf[64];
  74:.\main.c      ****     char line[64];
  75:.\main.c      ****     char macid[9];
  76:.\main.c      ****     uint32 n;
  77:.\main.c      ****     uint8 retry;
  78:.\main.c      ****     char txbuf[240];    
  79:.\main.c      ****     char str[32];
  80:.\main.c      ****     int result;
  81:.\main.c      ****     int16 mVolts;
  82:.\main.c      ****     uint16 adc;
  83:.\main.c      ****     uint16 uBat;
  84:.\main.c      **** 
  85:.\main.c      ****     CyGlobalIntEnable; /* Enable global interrupts. */
ARM GAS  C:\Users\Svilen\AppData\Local\Temp\ccuaxGpF.s 			page 4


  86:.\main.c      ****     ADC_Start();
  87:.\main.c      ****     ADC_IRQ_Disable();
  88:.\main.c      ****     I2C_Start();
  89:.\main.c      ****     UART_Start();
  90:.\main.c      ****     UART_ClearRxBuffer();
  91:.\main.c      ****     Timeout_Start();
  92:.\main.c      ****     isr_Timeout_StartEx(TimeoutISR);
  93:.\main.c      ****     isr_Rain_StartEx(RainISR);
  94:.\main.c      ****     PinWindCE_Write(1);
  95:.\main.c      ****     timeoutFlag=0;
  96:.\main.c      ****     LED_B_Write(1);
  97:.\main.c      ****     LED_R_Write(0);
  98:.\main.c      ****     LED_G_Write(1);
  99:.\main.c      ****     CyDelay(3000);
 100:.\main.c      ****     
 101:.\main.c      ****     memset(txbuf, 0x00, sizeof(txbuf));
 102:.\main.c      ****     rainCounter=0;
 103:.\main.c      ****        
 104:.\main.c      ****     
 105:.\main.c      ****     /* Place your initialization/startup code here (e.g. MyInst_Start()) */
 106:.\main.c      ****     //–í–ê–ñ–ù–û!!! –ê–∫–æ —Å–µ–Ω–∑–æ—Ä–∞ –Ω–µ —Ä–∞–±–æ—Ç–∏ –∏–ª–∏ –µ —Ä–∞–∑–∫–∞—á–µ–Ω –ø—Ä–æ–≥—Ä–∞
 107:.\main.c      **** #ifdef BMP180_IS_PRESENT    
 108:.\main.c      ****     BMP180_ReadCalibrationCoefs();    
 109:.\main.c      ****     long temp, pressure;
 110:.\main.c      **** #endif
 111:.\main.c      **** 
 112:.\main.c      ****     /*
 113:.\main.c      ****     char buf[32];    
 114:.\main.c      **** 
 115:.\main.c      ****     for(;;)
 116:.\main.c      ****     {        
 117:.\main.c      ****         temp =  BMP180_ReadTemperature();
 118:.\main.c      ****         pressure = BMP180_ReadPresure(temp,3);
 119:.\main.c      ****         sprintf(buf,"BMP180: T=%2.0ldC P=%4.0ldhPa\r\n", temp/10, pressure/100);
 120:.\main.c      ****         UART_UartPutString(buf);
 121:.\main.c      ****         
 122:.\main.c      ****         AM2302_Read();
 123:.\main.c      ****         sprintf(buf,"AM2302: T=%d Rh=%d\r\n", AM2302_Temp/10, AM2302_Humidity/10);
 124:.\main.c      ****         UART_UartPutString(buf);
 125:.\main.c      ****     }
 126:.\main.c      ****     */
 127:.\main.c      ****     
 128:.\main.c      **** 
 129:.\main.c      ****     for(;;)
 130:.\main.c      ****     {
 131:.\main.c      **** CheckAT:        
 132:.\main.c      ****         /* –ü—Ä–æ–≤–µ—Ä–∫–∞ –¥–∞–ª–∏ –º–æ–¥—É–ª–∞ –µ –¥–æ—Å—Ç—ä–ø–µ–Ω
 133:.\main.c      ****          * –ò–∑–ø—Ä–∞—â–∞ —Å–µ –ê–¢ –∫–æ–º–∞–Ω–¥–∞ –∏ —Å–µ –æ—á–∞–∫–≤–∞ –æ—Ç–≥–æ–≤–æ—Ä –û–ö.
 134:.\main.c      ****          * –ê–∫–æ –Ω—è–º–∞ —Ç–∞–∫—ä–≤ —Å–≤–µ—Ç–∏ —á–µ—Ä–≤–µ–Ω LED –º–∏–≥–∞ –¥–≤–∞ –ø—ä—Ç–∏ –∫—Ä–∞—Ç
 135:.\main.c      ****          * –ü–µ—Ä–∏–æ–¥–∏—á–Ω–æ –ø—Ä–µ–∑ –µ–¥–Ω–∞ —Å–µ–∫—É–Ω–¥–∞ —Ç–æ–∑–∏ –æ–ø–∏—Ç —Å–µ –ø–æ–≤—Ç–∞—
 136:.\main.c      ****          */ 
 137:.\main.c      ****         while(1)
 138:.\main.c      ****         {
 139:.\main.c      ****             UART_ClearRxBuffer();
 140:.\main.c      ****             UART_PutString("ATE0\r\n"); //–≤–º–µ—Å—Ç–æ –ê–¢ –∫–æ–º–∞–Ω–¥–∞ —Å–ø–∏—Ä–∞–º –µ—Ö–æ—Ç–æ
 141:.\main.c      ****             UartReadLine(rxbuf,READ_LINE_TIMEOUT);            
 142:.\main.c      ****             UartReadLine(rxbuf,READ_LINE_TIMEOUT);//OK,2
ARM GAS  C:\Users\Svilen\AppData\Local\Temp\ccuaxGpF.s 			page 5


 143:.\main.c      ****             if(strcmp(rxbuf, "OK")==0)
 144:.\main.c      ****             {
 145:.\main.c      ****                 LED_R_Write(1);
 146:.\main.c      ****                 break;
 147:.\main.c      ****             }
 148:.\main.c      ****             LED_R_Write(0);
 149:.\main.c      ****             CyDelay(250);
 150:.\main.c      ****             LED_R_Write(1);
 151:.\main.c      ****             CyDelay(250);
 152:.\main.c      ****             LED_R_Write(0);
 153:.\main.c      ****             CyDelay(250);
 154:.\main.c      ****             LED_R_Write(1);
 155:.\main.c      ****         }
 156:.\main.c      ****         
 157:.\main.c      ****         /* –ü—Ä–æ–≤–µ—Ä–∫–∞ –∑–∞ –≤—Ä—ä–∑–∫–∞ –∫—ä–º AccessPoint
 158:.\main.c      ****          * ESP8266 –µ –ø—Ä–µ–¥–≤–∞—Ä–∏—Ç–µ–ª–Ω–æ –∫–æ–Ω—Ñ–∏–≥—É—Ä–∏—Ä–∞–Ω –∏ —Å–µ —Å–≤—ä—Ä–∑–≤–∞ –∞
 159:.\main.c      ****          * –ê–∫–æ –º–æ–¥—É–ª–∞ –Ω–µ —É—Å–ø—è–≤–∞ –¥–∞ —Å–µ —Å–≤—ä—Ä–∂–µ —Å –ê–† —á–µ—Ä–≤–µ–Ω–∏—è —Å
 160:.\main.c      ****          */
 161:.\main.c      ****         retry=5;
 162:.\main.c      ****         while(1)
 163:.\main.c      ****         {
 164:.\main.c      ****             UART_ClearRxBuffer();
 165:.\main.c      ****             UART_PutString("AT+CWJAP?\r\n");
 166:.\main.c      ****             UartReadLine(rxbuf,READ_LINE_TIMEOUT);//+CWJAP:"Etherino","20:55:.........",11,-29     
 167:.\main.c      ****             if(strncmp(rxbuf, "+CWJAP:\"Etherino\"",17)==0)
 168:.\main.c      ****             {
 169:.\main.c      ****                 LED_R_Write(1);
 170:.\main.c      ****                 CyDelay(500);
 171:.\main.c      ****                 break;
 172:.\main.c      ****             }
 173:.\main.c      ****             LED_R_Write(0);
 174:.\main.c      ****             CyDelay(500);
 175:.\main.c      ****             LED_R_Write(1);
 176:.\main.c      ****             CyDelay(500);
 177:.\main.c      ****             retry--;
 178:.\main.c      ****             if(retry==0) goto CheckAT;
 179:.\main.c      ****         }
 180:.\main.c      ****         
 181:.\main.c      ****         //–î–æ —Ç—É–∫ –º–æ–¥—É–ª–∞ –≤–µ—á–µ —Å–µ –µ —Å–≤—ä—Ä–∑–∞–ª —Å –ê–†. –°–≤–µ—Ç–≤–∞ –∑–µ–ª–µ–Ω
 182:.\main.c      ****         //–ü—Ä–æ—á–∏—Ç–∞–º–µ IP –∏ MAC
 183:.\main.c      ****         LED_G_Write(0);
 184:.\main.c      ****         UART_ClearRxBuffer();
 185:.\main.c      ****         UART_PutString("AT+CIFSR\r\n");
 186:.\main.c      ****         UartReadLine(rxbuf,READ_LINE_TIMEOUT);
 187:.\main.c      ****         UartReadLine(rxbuf,READ_LINE_TIMEOUT);
 188:.\main.c      ****         if(strncmp(rxbuf,"+CIFSR:STAMAC",13)==0)
 189:.\main.c      ****         {
 190:.\main.c      ****             strncpy(macid,&rxbuf[24],8);
 191:.\main.c      ****             macid[8]=0;
 192:.\main.c      ****         }
 193:.\main.c      ****         else strcpy(macid,"00:00:00");
 194:.\main.c      ****         
 195:.\main.c      ****         while(1)
 196:.\main.c      ****         {
 197:.\main.c      ****             CyDelay(SLEEP_TIME + WAKEUP_ADVANCE);    
 198:.\main.c      ****             //–¢—É–∫ –æ—Ç–Ω–æ–≤–æ —Å–ø–∏—Ä–∞–º –µ—Ö–æ—Ç–æ —Ç.–∫. —Å–ª–µ–¥ DEEP SLEEP —Å–µ –∞–∫—Ç–∏–
 199:.\main.c      ****             UART_ClearRxBuffer();
ARM GAS  C:\Users\Svilen\AppData\Local\Temp\ccuaxGpF.s 			page 6


 200:.\main.c      ****             UART_PutString("ATE0\r\n"); //–≤–º–µ—Å—Ç–æ –ê–¢ –∫–æ–º–∞–Ω–¥–∞ —Å–ø–∏—Ä–∞–º –µ—Ö–æ—Ç–æ
 201:.\main.c      ****             UartReadLine(rxbuf,READ_LINE_TIMEOUT);            
 202:.\main.c      ****             UartReadLine(rxbuf,READ_LINE_TIMEOUT);//OK,2
 203:.\main.c      ****             CyDelay(200);
 204:.\main.c      ****             //–û—Ç–≤–∞—Ä—è–Ω–µ –Ω–∞ TCP/UDP –∫–æ–Ω–µ–∫—Ü–∏—è
 205:.\main.c      ****             retry=3;
 206:.\main.c      **** EstablishConnection:            
 207:.\main.c      ****             UART_ClearRxBuffer();
 208:.\main.c      ****             /* 
 209:.\main.c      ****                 192.168.1.1 - —Ä—É—Ç–µ—Ä
 210:.\main.c      ****                 192.168.1.10 - –∫–æ–Ω—Ü–µ–Ω—Ç—Ä–∞—Ç–æ—Ä, —Å—Ç–∞—Ç–∏—á–µ–Ω IP
 211:.\main.c      ****                 192.168.1.100 - .254 - —É—Å—Ç—Ä–æ–π—Å—Ç–≤–∞, DHCP
 212:.\main.c      ****             */
 213:.\main.c      ****             //UART_PutString("AT+CIPSTART=\"TCP\",\"192.168.1.10\",8888\r\n"); //TCP
 214:.\main.c      ****             UART_PutString("AT+CIPSTART=\"UDP\",\"224.0.0.120\",8888\r\n");
 215:.\main.c      ****             n=3;
 216:.\main.c      ****             LED_G_Write(1);
 217:.\main.c      ****             while(UartReadLine(rxbuf,ESTABLISH_CONN_TIMEOUT)==0)
 218:.\main.c      ****             {
 219:.\main.c      ****                 n--;
 220:.\main.c      ****                 if(n==0)
 221:.\main.c      ****                 {
 222:.\main.c      ****                     LED_G_Write(1);
 223:.\main.c      ****                     LED_B_Write(1);
 224:.\main.c      ****                     LED_R_Write(0);
 225:.\main.c      ****                     goto CheckAT;
 226:.\main.c      ****                 }
 227:.\main.c      ****             }
 228:.\main.c      ****             //CONNECT,7  –∏–ª–∏ ALREADY CONNECTED,17 –∏–ª–∏ no ip,5 –∏–ª–∏ 0 –∞–∫–æ –Ω–µ –º–æ–∂–µ –
 229:.\main.c      ****             
 230:.\main.c      ****             //CONNECT,7 - –≤—Ä—ä–∑–∫–∞—Ç–∞ –µ –∏–∑–≥—Ä–∞–¥–µ–Ω–∞. –û–±–º–µ–Ω—è—Ç —Å–µ –¥–∞–Ω–Ω–∏—Ç–
 231:.\main.c      ****             if(strncmp(rxbuf,"CONNECT",7)==0)
 232:.\main.c      ****             {
 233:.\main.c      ****                 UartReadLine(rxbuf,READ_LINE_TIMEOUT); //–ø—Ä–∞–∑–µ–Ω —Ä–µ–¥
 234:.\main.c      ****                 UartReadLine(rxbuf,READ_LINE_TIMEOUT); //–û–ö
 235:.\main.c      ****                 LED_G_Write(1); //–ü–æ –≤—Ä–µ–º–µ –Ω–∞ –æ–±–º–µ–Ω —Å–≤–µ—Ç–∏ —Å–∏–Ω LED
 236:.\main.c      ****                 LED_R_Write(1);
 237:.\main.c      ****                 LED_B_Write(0);
 238:.\main.c      ****                 //–ò–ó–ü–†–ê–©–ê–ù–ï –ù–ê –î–ê–ù–ù–ò –ö–™–ú –ö–û–ù–¶–ï–ù–¢–†–ê–¢–û–†–ê
 239:.\main.c      ****                 sprintf(txbuf,"MAC=%s\r\n",macid);
 240:.\main.c      ****                 //BMP180
 241:.\main.c      **** #ifdef BMP180_IS_PRESENT                
 242:.\main.c      ****                 temp =  BMP180_ReadTemperature();
 243:.\main.c      ****                 pressure = BMP180_ReadPresure(temp,3);
 244:.\main.c      ****                 sprintf(str,"BMP180: T=%2.0ld P=%4.0ldhPa\r\n", temp/10, pressure/100);            
 245:.\main.c      ****                 strcat(txbuf,str);                
 246:.\main.c      **** #endif                
 247:.\main.c      ****                 //AM2302
 248:.\main.c      ****                 result = AM2302_Read();
 249:.\main.c      ****                 if(result!=0)
 250:.\main.c      ****                 {
 251:.\main.c      ****                     AM2302_Temp  = -1000;
 252:.\main.c      ****                     AM2302_Humidity = -1000;
 253:.\main.c      ****                 }
 254:.\main.c      ****                 sprintf(str,"AM2302: T=%d Rh=%d\r\n", AM2302_Temp/10, AM2302_Humidity/10);
 255:.\main.c      ****                 strcat(txbuf, str);                
 256:.\main.c      ****                 //TX20 - –≤—è—Ç—ä—Ä
ARM GAS  C:\Users\Svilen\AppData\Local\Temp\ccuaxGpF.s 			page 7


 257:.\main.c      **** #ifdef TX20_ENABLED                
 258:.\main.c      ****                 result = TX20_Read();
 259:.\main.c      ****                 if(result==0)  sprintf(str,"TX20: Dir=%d Speed=%d\r\n", windDirection, windSpeed);
 260:.\main.c      ****                 else strcpy(str,"TX20: Dir=ERR Speed=ERR\r\n");
 261:.\main.c      ****                 strcat(txbuf, str);                
 262:.\main.c      **** #endif                
 263:.\main.c      ****                 //–°—Ç–æ–π–Ω–æ—Å—Ç–∞ –Ω–∞ –±—Ä–æ—è—á–∞ –∑–∞ –¥—ä—â–¥ —Å–µ –ø—Ä–∞—â–∞ –∏ —Å–µ –Ω—É–ª
 264:.\main.c      **** #ifdef RAIN_ENABLED                
 265:.\main.c      ****                 sprintf(str,"RAIN: %d\r\n",rainCounter);
 266:.\main.c      ****                 strcat(txbuf, str);
 267:.\main.c      ****                 rainCounter=0;
 268:.\main.c      **** #endif                
 269:.\main.c      ****                 //–ù–∞–ø—Ä–µ–∂–µ–Ω–∏–µ –Ω–∞ –±–∞—Ç–µ—Ä–∏—è—Ç–∞
 270:.\main.c      **** #ifdef UBAT_ENABLED
 271:.\main.c      ****                 ADC_StartConvert();
 272:.\main.c      ****                 ADC_IsEndConversion(ADC_WAIT_FOR_RESULT);
 273:.\main.c      ****                 adc = ADC_GetResult16(CHN_ADC_UBAT );
 274:.\main.c      ****                 mVolts = ADC_CountsTo_mVolts(CHN_ADC_UBAT, adc);
 275:.\main.c      ****                 uBat = mVolts * 16.0;
 276:.\main.c      ****                 sprintf(str,"Ubat: %d.%d V\r\n", uBat/1000, uBat%1000);                
 277:.\main.c      ****                 strcat(txbuf,str);                
 278:.\main.c      **** #endif                
 279:.\main.c      ****                 //–ò–∑–ø—Ä–∞—â–∞–Ω–µ –Ω–∞ –¥–∞–Ω–Ω–∏—Ç–µ
 280:.\main.c      ****                 strcat(txbuf,"END\r\n");
 281:.\main.c      ****                 UART_ClearRxBuffer();
 282:.\main.c      ****                 sprintf(line,"AT+CIPSEND=%d\r\n",strlen(txbuf));
 283:.\main.c      ****                 UART_PutString(line);
 284:.\main.c      ****                 UartReadLine(rxbuf,READ_LINE_TIMEOUT); //–ø—Ä–∞–∑–µ–Ω —Ä–µ–¥
 285:.\main.c      ****                 UartReadLine(rxbuf,READ_LINE_TIMEOUT); //–û–ö
 286:.\main.c      ****                 UartReadLine(rxbuf,READ_LINE_TIMEOUT); // > (–∫—É—Ä—Å–æ—Ä)
 287:.\main.c      ****                 UART_PutString(txbuf);
 288:.\main.c      ****                 CyDelay(200);
 289:.\main.c      ****                
 290:.\main.c      ****                 //–ü—Ä–µ–∫—Ä–∞—Ç—è–≤–∞–Ω–µ –Ω–∞ TCP –∫–æ–Ω–µ–∫—Ü–∏—è
 291:.\main.c      ****                 UART_ClearRxBuffer();
 292:.\main.c      ****                 UART_PutString("AT+CIPCLOSE\r\n");
 293:.\main.c      ****                 UartReadLine(rxbuf,READ_LINE_TIMEOUT); //–ø—Ä–∞–∑–µ–Ω —Ä–µ–¥
 294:.\main.c      ****                 UartReadLine(rxbuf,READ_LINE_TIMEOUT); // > (–∫—É—Ä—Å–æ—Ä)
 295:.\main.c      ****                 //–ü—Ä–∏—Å–ø–∏–≤–∞–Ω–µ –Ω–∞ WIFI –º–æ–¥—É–ª–∞
 296:.\main.c      ****                 //!–í–ê–ñ–ù–û –ó–∞ –¥–∞ —Å–µ –∏–∑–ø—ä–ª–Ω–∏ —Ç–∞–∑–∏ –∫–æ–º–∞–Ω–¥–∞ —Ç—Ä—è–±–≤–∞ –¥
 297:.\main.c      ****                 UART_ClearRxBuffer();
 298:.\main.c      ****                 sprintf(txbuf,"AT+GSLP=%d\r\n",SLEEP_TIME);
 299:.\main.c      ****                 UART_PutString(txbuf);
 300:.\main.c      ****                 UartReadLine(rxbuf,READ_LINE_TIMEOUT); //–ø—Ä–∞–∑–µ–Ω —Ä–µ–¥
 301:.\main.c      ****                 UartReadLine(rxbuf,READ_LINE_TIMEOUT); // > (–∫—É—Ä—Å–æ—Ä)
 302:.\main.c      ****                         
 303:.\main.c      ****                 LED_G_Write(0);
 304:.\main.c      ****                 LED_B_Write(1);
 305:.\main.c      ****                 continue;
 306:.\main.c      ****             }
 307:.\main.c      ****             
 308:.\main.c      ****             //ALREADY CONNECTED,17 - –≤–µ—á–µ –∏–º–∞ –∏–∑–≥—Ä–∞–¥–µ–Ω–∞ –≤—Ä—ä–∑–∫–∞. –¢–æ–≤–∞ –Ω–µ
 309:.\main.c      ****             if(strncmp(rxbuf,"ALREADY CONNECTED",17)==0) 
 310:.\main.c      ****             {//–ó–∞—Ç–æ–≤–∞ —Å–µ –∑–∞—Ç–≤–∞—Ä—è –∏ –∏–∑–≥—Ä–∞–∂–¥–∞ –Ω–∞–Ω–æ–≤–æ
 311:.\main.c      ****                 CyDelay(400);
 312:.\main.c      ****                 UART_ClearRxBuffer();
 313:.\main.c      ****                 UART_PutString("AT+CIPCLOSE\r\n");
ARM GAS  C:\Users\Svilen\AppData\Local\Temp\ccuaxGpF.s 			page 8


 314:.\main.c      ****                 CyDelay(400);
 315:.\main.c      ****                 goto EstablishConnection;
 316:.\main.c      ****             }
 317:.\main.c      ****             //no ip - –Ω—è–º–∞ –≤—Ä—ä–∑–∫–∞ —Å –ê–†
 318:.\main.c      ****             if(strncmp(rxbuf,"no ip",5)==0)
 319:.\main.c      ****             {
 320:.\main.c      ****                 for(n=10 ; n!=0 ; n--)
 321:.\main.c      ****                 {
 322:.\main.c      ****                     LED_R_Write(0);
 323:.\main.c      ****                     CyDelay(100);                        
 324:.\main.c      ****                     LED_R_Write(1);
 325:.\main.c      ****                     CyDelay(100);                                                
 326:.\main.c      ****                 }
 327:.\main.c      ****                 LED_G_Write(1);
 328:.\main.c      ****                 goto CheckAT;
 329:.\main.c      ****             }
 330:.\main.c      **** 
 331:.\main.c      ****             /* ESP8266 —Å–µ –æ–ø–∏—Ç–≤–∞ –¥–∞ –∏–∑–≥—Ä–∞–¥–∏ TCP –≤—Ä—ä–∑–∫–∞ —Å—ä—Å –∫–æ–Ω—Ü–µ–Ω—Ç
 332:.\main.c      ****              * –ü–æ –≤—Ä–µ–º–µ –Ω–∞ –∏–∑–≥—Ä–∞–∂–¥–∞–Ω–µ –Ω–∞ –≤—Ä—ä–∑–∫–∞—Ç–∞, —Å–≤–µ—Ç–≤–∞ –∏ —á–
 333:.\main.c      ****              */
 334:.\main.c      ****             LED_R_Write(0);
 335:.\main.c      ****             if(strncmp(rxbuf,"ERROR",5)==0)
 336:.\main.c      ****             {   //–û–ø–∏—Ç–∞ –¥–∞ —Å–µ –∏–∑–≥—Ä–∞–¥–∏ TCP –≤—Ä—ä–∑–∫–∞ –µ –Ω–µ—É—Å–ø–µ—à–µ–Ω.
 337:.\main.c      ****                 //–ú–∏–≥–∞ –±—ä—Ä–∑–æ 10 –ø—ä—Ç–∏ 
 338:.\main.c      ****                 for(n=10 ; n!=0 ; n--)
 339:.\main.c      ****                 {
 340:.\main.c      ****                     LED_R_Write(0);
 341:.\main.c      ****                     CyDelay(100);                        
 342:.\main.c      ****                     LED_R_Write(1);
 343:.\main.c      ****                     CyDelay(100);                                                
 344:.\main.c      ****                 }
 345:.\main.c      ****                 retry--;
 346:.\main.c      ****                 if(retry==0) 
 347:.\main.c      ****                 {// –ø—Ä–æ–≤–µ—Ä–∫–∞ –¥–∞–ª–∏ –æ—Ç–≥–æ–≤–∞—Ä—è –Ω–∞ –ê–¢ –∫–æ–º–∞–Ω–¥–∞
 348:.\main.c      **** 
 349:.\main.c      ****                     LED_G_Write(1);
 350:.\main.c      ****                     goto CheckAT;            
 351:.\main.c      ****                 }
 352:.\main.c      ****                 goto EstablishConnection;
 353:.\main.c      ****             }
 354:.\main.c      ****         }
 355:.\main.c      ****     }    
 356:.\main.c      **** }
 357:.\main.c      **** 
 358:.\main.c      **** 
 359:.\main.c      **** int AM2302_Read()
 360:.\main.c      **** {
  83              		.loc 1 360 0
  84              		.cfi_startproc
  85 0000 F0B5     		push	{r4, r5, r6, r7, lr}
  86              		.cfi_def_cfa_offset 20
  87              		.cfi_offset 4, -20
  88              		.cfi_offset 5, -16
  89              		.cfi_offset 6, -12
  90              		.cfi_offset 7, -8
  91              		.cfi_offset 14, -4
  92 0002 4746     		mov	r7, r8
ARM GAS  C:\Users\Svilen\AppData\Local\Temp\ccuaxGpF.s 			page 9


  93 0004 80B4     		push	{r7}
  94              		.cfi_def_cfa_offset 24
  95              		.cfi_offset 8, -24
 361:.\main.c      ****     int i;
 362:.\main.c      ****     int timer;
 363:.\main.c      ****     uint16 mask;
 364:.\main.c      ****     uint16 humidity, temperature;
 365:.\main.c      ****     
 366:.\main.c      ****     //–°—Ç–∞—Ä—Ç–∏—Ä–∞ —Å–µ –∑–∞–ø–∏—Ç–≤–∞–Ω–µ –∫—ä–º —Å–µ–Ω–∑–æ—Ä–∞
 367:.\main.c      ****     HUM_Write(0);
  96              		.loc 1 367 0
  97 0006 0020     		mov	r0, #0
  98 0008 FFF7FEFF 		bl	HUM_Write
  99              	.LVL1:
 368:.\main.c      ****     CyDelay(10);
 100              		.loc 1 368 0
 101 000c 0A20     		mov	r0, #10
 102 000e FFF7FEFF 		bl	CyDelay
 103              	.LVL2:
 369:.\main.c      ****     HUM_Write(1);
 104              		.loc 1 369 0
 105 0012 0120     		mov	r0, #1
 106 0014 FFF7FEFF 		bl	HUM_Write
 107              	.LVL3:
 370:.\main.c      ****     
 371:.\main.c      ****     timer = 0;
 108              		.loc 1 371 0
 109 0018 0024     		mov	r4, #0
 372:.\main.c      ****     //–õ–∏–Ω–∏—è—Ç–∞ –µ –≤ 1. –ß–∞–∫–∞–º–µ 20-40–º—Å —Å–µ–Ω–∑–æ—Ä–∞ –¥–∞ —Å–≤–∞–ª–∏ 0
 373:.\main.c      ****     while(HUM_Read()==1)
 110              		.loc 1 373 0
 111 001a 02E0     		b	.L8
 112              	.LVL4:
 113              	.L10:
 374:.\main.c      ****     {
 375:.\main.c      ****         timer++;
 114              		.loc 1 375 0
 115 001c 0134     		add	r4, r4, #1
 116              	.LVL5:
 376:.\main.c      ****         if(timer>200) return 1; // –°–µ–Ω–∑–æ—Ä–∞ –Ω–µ –æ—Ç–≥–æ–≤–∞—Ä—è.
 117              		.loc 1 376 0
 118 001e C82C     		cmp	r4, #200
 119 0020 5BDC     		bgt	.L27
 120              	.LVL6:
 121              	.L8:
 373:.\main.c      ****     {
 122              		.loc 1 373 0
 123 0022 FFF7FEFF 		bl	HUM_Read
 124              	.LVL7:
 125 0026 0128     		cmp	r0, #1
 126 0028 F8D0     		beq	.L10
 127 002a 0024     		mov	r4, #0
 128              	.LVL8:
 129 002c 02E0     		b	.L11
 130              	.LVL9:
 131              	.L12:
 377:.\main.c      ****     }
ARM GAS  C:\Users\Svilen\AppData\Local\Temp\ccuaxGpF.s 			page 10


 378:.\main.c      ****     //–õ–∏–Ω–∏—è—Ç–∞ –µ –≤ 0. –ß–∞–∫–∞–º–µ —Å–µ–Ω–∑–æ—Ä–∞ –¥–∞ –∫–∞—á–∏ 1 –∑–∞ 80 –º—Å
 379:.\main.c      ****     timer=0;
 380:.\main.c      ****     while(HUM_Read()==0)
 381:.\main.c      ****     {
 382:.\main.c      ****         timer++;
 132              		.loc 1 382 0
 133 002e 0134     		add	r4, r4, #1
 134              	.LVL10:
 383:.\main.c      ****         if(timer>200) return 1; // –°–µ–Ω–∑–æ—Ä–∞ –Ω–µ –æ—Ç–≥–æ–≤–∞—Ä—è.
 135              		.loc 1 383 0
 136 0030 C82C     		cmp	r4, #200
 137 0032 54DC     		bgt	.L28
 138              	.LVL11:
 139              	.L11:
 380:.\main.c      ****     {
 140              		.loc 1 380 0
 141 0034 FFF7FEFF 		bl	HUM_Read
 142              	.LVL12:
 143 0038 0028     		cmp	r0, #0
 144 003a F8D0     		beq	.L12
 145 003c 0024     		mov	r4, #0
 146              	.LVL13:
 147 003e 02E0     		b	.L13
 148              	.LVL14:
 149              	.L14:
 384:.\main.c      ****     }
 385:.\main.c      ****     //–õ–∏–Ω–∏—è—Ç–∞ –µ –≤ 1. –ß–∞–∫–∞–º–µ —Å–µ–Ω–∑–æ—Ä–∞ –¥–∞ –∑–∞–ø–æ—á–Ω–µ –ø—Ä–µ–¥–∞–≤–∞–Ω–µ
 386:.\main.c      ****     timer=0;
 387:.\main.c      ****     while(HUM_Read()==1)            //–°–µ–Ω–∑–æ—Ä–∞ —Å–≤–∞–ª—è –ª–∏–Ω–∏—è—Ç–∞ –∑–∞ 50 us
 388:.\main.c      ****     {
 389:.\main.c      ****         timer++;
 150              		.loc 1 389 0
 151 0040 0134     		add	r4, r4, #1
 152              	.LVL15:
 390:.\main.c      ****         if(timer>200) return 1;
 153              		.loc 1 390 0
 154 0042 C82C     		cmp	r4, #200
 155 0044 4DDC     		bgt	.L29
 156              	.LVL16:
 157              	.L13:
 387:.\main.c      ****     {
 158              		.loc 1 387 0
 159 0046 FFF7FEFF 		bl	HUM_Read
 160              	.LVL17:
 161 004a 0128     		cmp	r0, #1
 162 004c F8D0     		beq	.L14
 163 004e 0025     		mov	r5, #0
 164 0050 8027     		mov	r7, #128
 165 0052 3F02     		lsl	r7, r7, #8
 166 0054 0026     		mov	r6, #0
 167 0056 16E0     		b	.L15
 168              	.LVL18:
 169              	.L16:
 391:.\main.c      ****     }
 392:.\main.c      ****     //–ü—Ä–æ—á–∏—Ç–∞–Ω–µ –Ω–∞ –≤–ª–∞–∂–Ω–æ—Å—Ç
 393:.\main.c      ****     humidity=0;
 394:.\main.c      ****     mask=0x8000;
ARM GAS  C:\Users\Svilen\AppData\Local\Temp\ccuaxGpF.s 			page 11


 395:.\main.c      ****     for(i=0; i!=16 ; i++)
 396:.\main.c      ****     {
 397:.\main.c      ****         //–ß–∞–∫–∞–º –¥–∞ —Å–µ –≤–¥–∏–≥–Ω–µ –≤ 1 - –¥–∞ –∑–∞–ø–æ—á–Ω–µ –ø—Ä–µ–¥–¥–∞–≤–∞–Ω–µ –Ω–∞ –±
 398:.\main.c      ****         timer=0;
 399:.\main.c      ****         while(HUM_Read()==0)
 400:.\main.c      ****         {
 401:.\main.c      ****             timer++;
 170              		.loc 1 401 0
 171 0058 0134     		add	r4, r4, #1
 172              	.LVL19:
 402:.\main.c      ****             if(timer==200) return 1;
 173              		.loc 1 402 0
 174 005a C82C     		cmp	r4, #200
 175 005c 01D1     		bne	.L20
 176 005e 42E0     		b	.L30
 177              	.L32:
 178 0060 0024     		mov	r4, #0
 179              	.LVL20:
 180              	.L20:
 399:.\main.c      ****         {
 181              		.loc 1 399 0
 182 0062 FFF7FEFF 		bl	HUM_Read
 183              	.LVL21:
 184 0066 0028     		cmp	r0, #0
 185 0068 F6D0     		beq	.L16
 186 006a 0024     		mov	r4, #0
 187              	.LVL22:
 188 006c 02E0     		b	.L17
 189              	.LVL23:
 190              	.L18:
 403:.\main.c      ****         }
 404:.\main.c      ****         //–ü—Ä–æ—á–∏—Ç–∞–Ω–µ –Ω–∞ –±–∏—Ç. –°—Ç–æ–π–Ω–æ—Å—Ç 0 –µ –∑–∞–¥—ä—Ä–∂–∞–Ω–µ –∑–∞ 26-28 –º—Å.
 405:.\main.c      ****         timer=0;       
 406:.\main.c      ****         while(HUM_Read()==1)
 407:.\main.c      ****         {
 408:.\main.c      ****             timer++;
 191              		.loc 1 408 0
 192 006e 0134     		add	r4, r4, #1
 193              	.LVL24:
 409:.\main.c      ****             if(timer>200) return 1;
 194              		.loc 1 409 0
 195 0070 C82C     		cmp	r4, #200
 196 0072 3ADC     		bgt	.L31
 197              	.LVL25:
 198              	.L17:
 406:.\main.c      ****         {
 199              		.loc 1 406 0
 200 0074 FFF7FEFF 		bl	HUM_Read
 201              	.LVL26:
 202 0078 0128     		cmp	r0, #1
 203 007a F8D0     		beq	.L18
 410:.\main.c      ****         }
 411:.\main.c      ****         if(timer>55) humidity |= mask;
 204              		.loc 1 411 0
 205 007c 372C     		cmp	r4, #55
 206 007e 00DD     		ble	.L19
 207              		.loc 1 411 0 is_stmt 0 discriminator 1
ARM GAS  C:\Users\Svilen\AppData\Local\Temp\ccuaxGpF.s 			page 12


 208 0080 3D43     		orr	r5, r7
 209              	.LVL27:
 210              	.L19:
 412:.\main.c      ****         mask = mask>>1;
 211              		.loc 1 412 0 is_stmt 1 discriminator 2
 212 0082 7F08     		lsr	r7, r7, #1
 213              	.LVL28:
 395:.\main.c      ****     {
 214              		.loc 1 395 0 discriminator 2
 215 0084 0136     		add	r6, r6, #1
 216              	.LVL29:
 217              	.L15:
 395:.\main.c      ****     {
 218              		.loc 1 395 0 is_stmt 0 discriminator 1
 219 0086 102E     		cmp	r6, #16
 220 0088 EAD1     		bne	.L32
 221 008a 0023     		mov	r3, #0
 222 008c 9846     		mov	r8, r3
 223 008e 8027     		mov	r7, #128
 224              	.LVL30:
 225 0090 3F02     		lsl	r7, r7, #8
 226 0092 0026     		mov	r6, #0
 227              	.LVL31:
 228 0094 18E0     		b	.L21
 229              	.LVL32:
 230              	.L22:
 413:.\main.c      ****     }    
 414:.\main.c      ****     //–ü—Ä–æ—á–∏—Ç–∞–Ω–µ –Ω–∞ —Ç–µ–º–ø–µ—Ä–∞—Ç—É—Ä–∞
 415:.\main.c      ****     temperature=0;
 416:.\main.c      ****     mask=0x8000;
 417:.\main.c      ****     for(i=0; i!=16 ; i++)
 418:.\main.c      ****     {
 419:.\main.c      ****         //–ß–∞–∫–∞–º –¥–∞ —Å–µ –≤–¥–∏–≥–Ω–µ –≤ 1 - –¥–∞ –∑–∞–ø–æ—á–Ω–µ –ø—Ä–µ–¥–¥–∞–≤–∞–Ω–µ –Ω–∞ –±
 420:.\main.c      ****         timer=0;
 421:.\main.c      ****         while(HUM_Read()==0)
 422:.\main.c      ****         {
 423:.\main.c      ****             timer++;
 231              		.loc 1 423 0 is_stmt 1
 232 0096 0134     		add	r4, r4, #1
 233              	.LVL33:
 424:.\main.c      ****             if(timer==200) return 1;
 234              		.loc 1 424 0
 235 0098 C82C     		cmp	r4, #200
 236 009a 01D1     		bne	.L26
 237 009c 27E0     		b	.L33
 238              	.L35:
 239 009e 0024     		mov	r4, #0
 240              	.LVL34:
 241              	.L26:
 421:.\main.c      ****         {
 242              		.loc 1 421 0
 243 00a0 FFF7FEFF 		bl	HUM_Read
 244              	.LVL35:
 245 00a4 0028     		cmp	r0, #0
 246 00a6 F6D0     		beq	.L22
 247 00a8 0024     		mov	r4, #0
 248              	.LVL36:
ARM GAS  C:\Users\Svilen\AppData\Local\Temp\ccuaxGpF.s 			page 13


 249 00aa 02E0     		b	.L23
 250              	.LVL37:
 251              	.L24:
 425:.\main.c      ****         }
 426:.\main.c      ****         //–ü—Ä–æ—á–∏—Ç–∞–Ω–µ –Ω–∞ –±–∏—Ç. –°—Ç–æ–π–Ω–æ—Å—Ç 0 –µ –∑–∞–¥—ä—Ä–∂–∞–Ω–µ –∑–∞ 26-28 –º—Å.
 427:.\main.c      ****         timer=0;       
 428:.\main.c      ****         while(HUM_Read()==1)
 429:.\main.c      ****         {
 430:.\main.c      ****             timer++;
 252              		.loc 1 430 0
 253 00ac 0134     		add	r4, r4, #1
 254              	.LVL38:
 431:.\main.c      ****             if(timer>200) return 1;
 255              		.loc 1 431 0
 256 00ae C82C     		cmp	r4, #200
 257 00b0 1FDC     		bgt	.L34
 258              	.LVL39:
 259              	.L23:
 428:.\main.c      ****         {
 260              		.loc 1 428 0
 261 00b2 FFF7FEFF 		bl	HUM_Read
 262              	.LVL40:
 263 00b6 0128     		cmp	r0, #1
 264 00b8 F8D0     		beq	.L24
 432:.\main.c      ****         }
 433:.\main.c      ****         if(timer>55) temperature |= mask;
 265              		.loc 1 433 0
 266 00ba 372C     		cmp	r4, #55
 267 00bc 02DD     		ble	.L25
 268              		.loc 1 433 0 is_stmt 0 discriminator 1
 269 00be 4346     		mov	r3, r8
 270 00c0 3B43     		orr	r3, r7
 271 00c2 9846     		mov	r8, r3
 272              	.LVL41:
 273              	.L25:
 434:.\main.c      ****         mask = mask>>1;
 274              		.loc 1 434 0 is_stmt 1 discriminator 2
 275 00c4 7F08     		lsr	r7, r7, #1
 276              	.LVL42:
 417:.\main.c      ****     {
 277              		.loc 1 417 0 discriminator 2
 278 00c6 0136     		add	r6, r6, #1
 279              	.LVL43:
 280              	.L21:
 417:.\main.c      ****     {
 281              		.loc 1 417 0 is_stmt 0 discriminator 1
 282 00c8 102E     		cmp	r6, #16
 283 00ca E8D1     		bne	.L35
 435:.\main.c      ****     }    
 436:.\main.c      **** 
 437:.\main.c      ****     AM2302_Humidity = humidity;
 284              		.loc 1 437 0 is_stmt 1
 285 00cc 0B4B     		ldr	r3, .L36
 286 00ce 1D80     		strh	r5, [r3]
 438:.\main.c      ****     AM2302_Temp = temperature;
 287              		.loc 1 438 0
 288 00d0 0B4B     		ldr	r3, .L36+4
ARM GAS  C:\Users\Svilen\AppData\Local\Temp\ccuaxGpF.s 			page 14


 289 00d2 4246     		mov	r2, r8
 290 00d4 1A80     		strh	r2, [r3]
 439:.\main.c      ****     return 0;
 291              		.loc 1 439 0
 292 00d6 0020     		mov	r0, #0
 293 00d8 0CE0     		b	.L9
 294              	.LVL44:
 295              	.L27:
 376:.\main.c      ****     }
 296              		.loc 1 376 0
 297 00da 0120     		mov	r0, #1
 298 00dc 0AE0     		b	.L9
 299              	.L28:
 383:.\main.c      ****     }
 300              		.loc 1 383 0
 301 00de 0120     		mov	r0, #1
 302 00e0 08E0     		b	.L9
 303              	.L29:
 390:.\main.c      ****     }
 304              		.loc 1 390 0
 305 00e2 0120     		mov	r0, #1
 306 00e4 06E0     		b	.L9
 307              	.LVL45:
 308              	.L30:
 402:.\main.c      ****         }
 309              		.loc 1 402 0
 310 00e6 0120     		mov	r0, #1
 311 00e8 04E0     		b	.L9
 312              	.L31:
 409:.\main.c      ****         }
 313              		.loc 1 409 0
 314 00ea 0120     		mov	r0, #1
 315 00ec 02E0     		b	.L9
 316              	.LVL46:
 317              	.L33:
 424:.\main.c      ****         }
 318              		.loc 1 424 0
 319 00ee 0120     		mov	r0, #1
 320 00f0 00E0     		b	.L9
 321              	.L34:
 431:.\main.c      ****         }
 322              		.loc 1 431 0
 323 00f2 0120     		mov	r0, #1
 324              	.LVL47:
 325              	.L9:
 440:.\main.c      **** }
 326              		.loc 1 440 0
 327              		@ sp needed
 328              	.LVL48:
 329 00f4 04BC     		pop	{r2}
 330 00f6 9046     		mov	r8, r2
 331 00f8 F0BD     		pop	{r4, r5, r6, r7, pc}
 332              	.L37:
 333 00fa C046     		.align	2
 334              	.L36:
 335 00fc 00000000 		.word	AM2302_Humidity
 336 0100 00000000 		.word	AM2302_Temp
ARM GAS  C:\Users\Svilen\AppData\Local\Temp\ccuaxGpF.s 			page 15


 337              		.cfi_endproc
 338              	.LFE37:
 339              		.size	AM2302_Read, .-AM2302_Read
 340              		.section	.text.BMP180_ReadReg,"ax",%progbits
 341              		.align	2
 342              		.global	BMP180_ReadReg
 343              		.code	16
 344              		.thumb_func
 345              		.type	BMP180_ReadReg, %function
 346              	BMP180_ReadReg:
 347              	.LFB38:
 441:.\main.c      **** 
 442:.\main.c      **** uint32 BMP180_ReadReg(uint32 reg)
 443:.\main.c      **** {
 348              		.loc 1 443 0
 349              		.cfi_startproc
 350              	.LVL49:
 351 0000 10B5     		push	{r4, lr}
 352              		.cfi_def_cfa_offset 8
 353              		.cfi_offset 4, -8
 354              		.cfi_offset 14, -4
 355 0002 041C     		mov	r4, r0
 444:.\main.c      ****     //–ü—Ä–æ—á–∏—Ç–∞ –µ–¥–∏–Ω —Ä–µ–≥–∏—Å—Ç—ä—Ä –æ—Ç –í–ú–†180 —Å–µ–Ω–∑–æ—Ä–∞ –∑–∞ —Ç–µ–º–ø–µ—Ä–∞—Ç—
 445:.\main.c      ****     //–ó–∞ –¥–∞ —Ä–∞–±–æ—Ç–∏ i2c —Ç—Ä—è–±–≤–∞ –≥–ª–æ–±–∞–ª–Ω–æ –¥–∞ –µ —Ä–∞–∑—Ä–µ—à–µ–Ω–æ –ø—Ä–µ–∫—
 446:.\main.c      ****     uint32 res;
 447:.\main.c      ****     I2C_I2CMasterClearStatus(); /* Clear any previous status */
 356              		.loc 1 447 0
 357 0004 FFF7FEFF 		bl	I2C_I2CMasterClearStatus
 358              	.LVL50:
 448:.\main.c      ****     I2C_I2CMasterSendStart(0x77,I2C_I2C_WRITE_XFER_MODE); //0x77 –µ i2c –∞–¥—Ä–µ—Å–∞ –Ω–∞ —Å–µ–Ω–∑–
 359              		.loc 1 448 0
 360 0008 7720     		mov	r0, #119
 361 000a 0021     		mov	r1, #0
 362 000c FFF7FEFF 		bl	I2C_I2CMasterSendStart
 363              	.LVL51:
 449:.\main.c      ****     I2C_I2CMasterWriteByte(reg);//To–≤–∞ –µ –∞–¥—Ä–µ—Å–∞ –Ω–∞ —Ä–µ–≥–∏—Å—Ç—ä—Ä–∞ –∫–æ–π—Ç–æ –¥–∞ –±
 364              		.loc 1 449 0
 365 0010 201C     		mov	r0, r4
 366 0012 FFF7FEFF 		bl	I2C_I2CMasterWriteByte
 367              	.LVL52:
 450:.\main.c      ****     I2C_I2CMasterSendRestart(0x77,I2C_I2C_READ_XFER_MODE);
 368              		.loc 1 450 0
 369 0016 7720     		mov	r0, #119
 370 0018 0121     		mov	r1, #1
 371 001a FFF7FEFF 		bl	I2C_I2CMasterSendRestart
 372              	.LVL53:
 451:.\main.c      ****     res = I2C_I2CMasterReadByte(I2C_I2C_NAK_DATA);
 373              		.loc 1 451 0
 374 001e 0120     		mov	r0, #1
 375 0020 FFF7FEFF 		bl	I2C_I2CMasterReadByte
 376              	.LVL54:
 377 0024 041C     		mov	r4, r0
 378              	.LVL55:
 452:.\main.c      ****     I2C_I2CMasterSendStop();
 379              		.loc 1 452 0
 380 0026 FFF7FEFF 		bl	I2C_I2CMasterSendStop
 381              	.LVL56:
ARM GAS  C:\Users\Svilen\AppData\Local\Temp\ccuaxGpF.s 			page 16


 453:.\main.c      ****     return res;
 454:.\main.c      **** }
 382              		.loc 1 454 0
 383 002a 201C     		mov	r0, r4
 384              		@ sp needed
 385              	.LVL57:
 386 002c 10BD     		pop	{r4, pc}
 387              		.cfi_endproc
 388              	.LFE38:
 389              		.size	BMP180_ReadReg, .-BMP180_ReadReg
 390 002e C046     		.section	.text.BMP180_ReadInt,"ax",%progbits
 391              		.align	2
 392              		.global	BMP180_ReadInt
 393              		.code	16
 394              		.thumb_func
 395              		.type	BMP180_ReadInt, %function
 396              	BMP180_ReadInt:
 397              	.LFB39:
 455:.\main.c      **** 
 456:.\main.c      **** int16 BMP180_ReadInt(uint32 reg)
 457:.\main.c      **** {
 398              		.loc 1 457 0
 399              		.cfi_startproc
 400              	.LVL58:
 401 0000 38B5     		push	{r3, r4, r5, lr}
 402              		.cfi_def_cfa_offset 16
 403              		.cfi_offset 3, -16
 404              		.cfi_offset 4, -12
 405              		.cfi_offset 5, -8
 406              		.cfi_offset 14, -4
 407 0002 051C     		mov	r5, r0
 458:.\main.c      ****     //–ü—Ä–æ—á–∏—Ç–∞ —Ü—è–ª–æ —á–∏—Å–ª–æ —Å—ä—Å –∑–Ω–∞–∫ –ø—Ä–æ—á–∏—Ç–∞–π–∫–∏ 2 —Ä–µ–≥–∏—Å—Ç—ä—Ä–∞ 
 459:.\main.c      ****     int16 value;
 460:.\main.c      ****     uint16 msb,lsb;
 461:.\main.c      **** 
 462:.\main.c      ****     msb = (uint16) BMP180_ReadReg(reg);
 408              		.loc 1 462 0
 409 0004 FFF7FEFF 		bl	BMP180_ReadReg
 410              	.LVL59:
 411 0008 041C     		mov	r4, r0
 412              	.LVL60:
 463:.\main.c      ****     lsb = (uint16) BMP180_ReadReg(reg+1);
 413              		.loc 1 463 0
 414 000a 681C     		add	r0, r5, #1
 415 000c FFF7FEFF 		bl	BMP180_ReadReg
 416              	.LVL61:
 417 0010 2404     		lsl	r4, r4, #16
 418              	.LVL62:
 464:.\main.c      ****     value = (msb << 8) | lsb;
 419              		.loc 1 464 0
 420 0012 240A     		lsr	r4, r4, #8
 421 0014 2043     		orr	r0, r4
 422              	.LVL63:
 465:.\main.c      ****     return value;
 423              		.loc 1 465 0
 424 0016 00B2     		sxth	r0, r0
 466:.\main.c      **** }
ARM GAS  C:\Users\Svilen\AppData\Local\Temp\ccuaxGpF.s 			page 17


 425              		.loc 1 466 0
 426              		@ sp needed
 427              	.LVL64:
 428 0018 38BD     		pop	{r3, r4, r5, pc}
 429              		.cfi_endproc
 430              	.LFE39:
 431              		.size	BMP180_ReadInt, .-BMP180_ReadInt
 432 001a C046     		.section	.text.BMP180_ReadUInt,"ax",%progbits
 433              		.align	2
 434              		.global	BMP180_ReadUInt
 435              		.code	16
 436              		.thumb_func
 437              		.type	BMP180_ReadUInt, %function
 438              	BMP180_ReadUInt:
 439              	.LFB40:
 467:.\main.c      **** 
 468:.\main.c      **** uint16 BMP180_ReadUInt(uint32 reg)
 469:.\main.c      **** {
 440              		.loc 1 469 0
 441              		.cfi_startproc
 442              	.LVL65:
 443 0000 38B5     		push	{r3, r4, r5, lr}
 444              		.cfi_def_cfa_offset 16
 445              		.cfi_offset 3, -16
 446              		.cfi_offset 4, -12
 447              		.cfi_offset 5, -8
 448              		.cfi_offset 14, -4
 449 0002 051C     		mov	r5, r0
 470:.\main.c      ****     //–ü—Ä–æ—á–∏—Ç–∞ —Ü—è–ª–æ —á–∏—Å–ª–æ —Å—ä—Å –∑–Ω–∞–∫ –ø—Ä–æ—á–∏—Ç–∞–π–∫–∏ 2 —Ä–µ–≥–∏—Å—Ç—ä—Ä–∞ 
 471:.\main.c      ****     uint16 value;
 472:.\main.c      ****     uint16 msb,lsb;
 473:.\main.c      **** 
 474:.\main.c      ****     msb = (uint16) BMP180_ReadReg(reg);
 450              		.loc 1 474 0
 451 0004 FFF7FEFF 		bl	BMP180_ReadReg
 452              	.LVL66:
 453 0008 041C     		mov	r4, r0
 454              	.LVL67:
 475:.\main.c      ****     lsb = (uint16) BMP180_ReadReg(reg+1);
 455              		.loc 1 475 0
 456 000a 681C     		add	r0, r5, #1
 457 000c FFF7FEFF 		bl	BMP180_ReadReg
 458              	.LVL68:
 459 0010 2404     		lsl	r4, r4, #16
 460              	.LVL69:
 476:.\main.c      ****     value = (msb << 8) | lsb;
 461              		.loc 1 476 0
 462 0012 240A     		lsr	r4, r4, #8
 463 0014 2043     		orr	r0, r4
 464              	.LVL70:
 465 0016 80B2     		uxth	r0, r0
 466              	.LVL71:
 477:.\main.c      ****     return value;
 478:.\main.c      **** }
 467              		.loc 1 478 0
 468              		@ sp needed
 469              	.LVL72:
ARM GAS  C:\Users\Svilen\AppData\Local\Temp\ccuaxGpF.s 			page 18


 470 0018 38BD     		pop	{r3, r4, r5, pc}
 471              		.cfi_endproc
 472              	.LFE40:
 473              		.size	BMP180_ReadUInt, .-BMP180_ReadUInt
 474 001a C046     		.section	.text.BMP180_WriteByte,"ax",%progbits
 475              		.align	2
 476              		.global	BMP180_WriteByte
 477              		.code	16
 478              		.thumb_func
 479              		.type	BMP180_WriteByte, %function
 480              	BMP180_WriteByte:
 481              	.LFB41:
 479:.\main.c      **** 
 480:.\main.c      **** void BMP180_WriteByte(uint32 reg, uint32 b)
 481:.\main.c      **** {
 482              		.loc 1 481 0
 483              		.cfi_startproc
 484              	.LVL73:
 485 0000 38B5     		push	{r3, r4, r5, lr}
 486              		.cfi_def_cfa_offset 16
 487              		.cfi_offset 3, -16
 488              		.cfi_offset 4, -12
 489              		.cfi_offset 5, -8
 490              		.cfi_offset 14, -4
 491 0002 051C     		mov	r5, r0
 492 0004 0C1C     		mov	r4, r1
 482:.\main.c      ****     I2C_I2CMasterClearStatus(); /* Clear any previous status */
 493              		.loc 1 482 0
 494 0006 FFF7FEFF 		bl	I2C_I2CMasterClearStatus
 495              	.LVL74:
 483:.\main.c      ****     I2C_I2CMasterSendStart(0x77,I2C_I2C_WRITE_XFER_MODE); //0x77 –µ i2c –∞–¥—Ä–µ—Å–∞ –Ω–∞ —Å–µ–Ω–∑–
 496              		.loc 1 483 0
 497 000a 7720     		mov	r0, #119
 498 000c 0021     		mov	r1, #0
 499 000e FFF7FEFF 		bl	I2C_I2CMasterSendStart
 500              	.LVL75:
 484:.\main.c      ****     I2C_I2CMasterWriteByte(reg);//To–≤–∞ –µ –∞–¥—Ä–µ—Å–∞ –Ω–∞ —Ä–µ–≥–∏—Å—Ç—ä—Ä–∞ –∫–æ–π—Ç–æ –¥–∞ –±
 501              		.loc 1 484 0
 502 0012 281C     		mov	r0, r5
 503 0014 FFF7FEFF 		bl	I2C_I2CMasterWriteByte
 504              	.LVL76:
 485:.\main.c      ****     I2C_I2CMasterWriteByte(b);
 505              		.loc 1 485 0
 506 0018 201C     		mov	r0, r4
 507 001a FFF7FEFF 		bl	I2C_I2CMasterWriteByte
 508              	.LVL77:
 486:.\main.c      ****     I2C_I2CMasterSendStop();
 509              		.loc 1 486 0
 510 001e FFF7FEFF 		bl	I2C_I2CMasterSendStop
 511              	.LVL78:
 487:.\main.c      **** }
 512              		.loc 1 487 0
 513              		@ sp needed
 514              	.LVL79:
 515              	.LVL80:
 516 0022 38BD     		pop	{r3, r4, r5, pc}
 517              		.cfi_endproc
ARM GAS  C:\Users\Svilen\AppData\Local\Temp\ccuaxGpF.s 			page 19


 518              	.LFE41:
 519              		.size	BMP180_WriteByte, .-BMP180_WriteByte
 520              		.global	__aeabi_idiv
 521              		.section	.text.BMP180_ReadTemperature,"ax",%progbits
 522              		.align	2
 523              		.global	BMP180_ReadTemperature
 524              		.code	16
 525              		.thumb_func
 526              		.type	BMP180_ReadTemperature, %function
 527              	BMP180_ReadTemperature:
 528              	.LFB42:
 488:.\main.c      **** 
 489:.\main.c      **** long BMP180_ReadTemperature()
 490:.\main.c      **** {
 529              		.loc 1 490 0
 530              		.cfi_startproc
 531 0000 10B5     		push	{r4, lr}
 532              		.cfi_def_cfa_offset 8
 533              		.cfi_offset 4, -8
 534              		.cfi_offset 14, -4
 491:.\main.c      ****     //–í—Ä—ä—â–∞ –∫–æ–º–ø–µ–Ω—Å–∏—Ä–∞–Ω–∞ —Ç–µ–º–ø–µ—Ä–∞—Ç—É—Ä–∞ –≤ 0.1–°
 492:.\main.c      ****     int16 adc;
 493:.\main.c      ****     BMP180_WriteByte(0xf4, 0x2e);
 535              		.loc 1 493 0
 536 0002 F420     		mov	r0, #244
 537 0004 2E21     		mov	r1, #46
 538 0006 FFF7FEFF 		bl	BMP180_WriteByte
 539              	.LVL81:
 494:.\main.c      ****     CyDelay(6);
 540              		.loc 1 494 0
 541 000a 0620     		mov	r0, #6
 542 000c FFF7FEFF 		bl	CyDelay
 543              	.LVL82:
 495:.\main.c      ****     adc = BMP180_ReadInt(0xF6);
 544              		.loc 1 495 0
 545 0010 F620     		mov	r0, #246
 546 0012 FFF7FEFF 		bl	BMP180_ReadInt
 547              	.LVL83:
 496:.\main.c      ****     
 497:.\main.c      ****     long X1 = ((long)AC5 * ((long)adc - (long)AC6))/32768;
 548              		.loc 1 497 0
 549 0016 0D4B     		ldr	r3, .L43
 550 0018 1C88     		ldrh	r4, [r3]
 551 001a 0D4B     		ldr	r3, .L43+4
 552 001c 1B88     		ldrh	r3, [r3]
 553 001e C01A     		sub	r0, r0, r3
 554              	.LVL84:
 555 0020 6043     		mul	r0, r4
 556 0022 C417     		asr	r4, r0, #31
 557 0024 640C     		lsr	r4, r4, #17
 558 0026 2418     		add	r4, r4, r0
 559 0028 E413     		asr	r4, r4, #15
 560              	.LVL85:
 498:.\main.c      ****     long X2 = ((long)MC * 2048)/(X1 + (long)MD);
 561              		.loc 1 498 0
 562 002a 0A4B     		ldr	r3, .L43+8
 563 002c 0020     		mov	r0, #0
ARM GAS  C:\Users\Svilen\AppData\Local\Temp\ccuaxGpF.s 			page 20


 564 002e 185E     		ldrsh	r0, [r3, r0]
 565 0030 C002     		lsl	r0, r0, #11
 566 0032 094B     		ldr	r3, .L43+12
 567 0034 0021     		mov	r1, #0
 568 0036 595E     		ldrsh	r1, [r3, r1]
 569 0038 0919     		add	r1, r1, r4
 570 003a FFF7FEFF 		bl	__aeabi_idiv
 571              	.LVL86:
 499:.\main.c      ****     long T = (X1+X2+8)/16;
 572              		.loc 1 499 0
 573 003e 2418     		add	r4, r4, r0
 574              	.LVL87:
 575 0040 0834     		add	r4, r4, #8
 576 0042 E017     		asr	r0, r4, #31
 577              	.LVL88:
 578 0044 000F     		lsr	r0, r0, #28
 579 0046 0019     		add	r0, r0, r4
 580 0048 0011     		asr	r0, r0, #4
 581              	.LVL89:
 500:.\main.c      ****     return T;
 501:.\main.c      **** }
 582              		.loc 1 501 0
 583              		@ sp needed
 584 004a 10BD     		pop	{r4, pc}
 585              	.L44:
 586              		.align	2
 587              	.L43:
 588 004c 00000000 		.word	AC5
 589 0050 00000000 		.word	AC6
 590 0054 00000000 		.word	MC
 591 0058 00000000 		.word	MD
 592              		.cfi_endproc
 593              	.LFE42:
 594              		.size	BMP180_ReadTemperature, .-BMP180_ReadTemperature
 595              		.global	__aeabi_uidiv
 596              		.section	.text.BMP180_ReadPresure,"ax",%progbits
 597              		.align	2
 598              		.global	BMP180_ReadPresure
 599              		.code	16
 600              		.thumb_func
 601              		.type	BMP180_ReadPresure, %function
 602              	BMP180_ReadPresure:
 603              	.LFB43:
 502:.\main.c      **** 
 503:.\main.c      **** long BMP180_ReadPresure(long temperature, int oss)
 504:.\main.c      **** {
 604              		.loc 1 504 0
 605              		.cfi_startproc
 606              	.LVL90:
 607 0000 F8B5     		push	{r3, r4, r5, r6, r7, lr}
 608              		.cfi_def_cfa_offset 24
 609              		.cfi_offset 3, -24
 610              		.cfi_offset 4, -20
 611              		.cfi_offset 5, -16
 612              		.cfi_offset 6, -12
 613              		.cfi_offset 7, -8
 614              		.cfi_offset 14, -4
ARM GAS  C:\Users\Svilen\AppData\Local\Temp\ccuaxGpF.s 			page 21


 615 0002 051C     		mov	r5, r0
 616 0004 0C1E     		sub	r4, r1, #0
 505:.\main.c      ****     uint32 msb, lsb, xlsb;
 506:.\main.c      ****     long up;
 507:.\main.c      **** 
 508:.\main.c      ****     uint32 delay;
 509:.\main.c      ****     
 510:.\main.c      ****     switch (oss)
 617              		.loc 1 510 0
 618 0006 012C     		cmp	r4, #1
 619 0008 11D0     		beq	.L54
 620 000a 0129     		cmp	r1, #1
 621 000c 02DC     		bgt	.L48
 622 000e 0029     		cmp	r1, #0
 623 0010 05D0     		beq	.L49
 624 0012 0AE0     		b	.L46
 625              	.L48:
 626 0014 0229     		cmp	r1, #2
 627 0016 04D0     		beq	.L50
 628 0018 0329     		cmp	r1, #3
 629 001a 04D0     		beq	.L51
 630 001c 05E0     		b	.L46
 631              	.L49:
 511:.\main.c      ****     {
 512:.\main.c      ****     case 0:
 513:.\main.c      ****         delay=6; //ultra low power, 4.5ms
 632              		.loc 1 513 0
 633 001e 0626     		mov	r6, #6
 634 0020 06E0     		b	.L47
 635              	.L50:
 636              	.LVL91:
 514:.\main.c      ****         break;
 515:.\main.c      ****     case 1:
 516:.\main.c      ****         delay=9; //standart, 7.5ms
 517:.\main.c      ****         break;
 518:.\main.c      ****     case 2:
 519:.\main.c      ****         delay=15; //high resolution, 13.5ms
 637              		.loc 1 519 0
 638 0022 0F26     		mov	r6, #15
 520:.\main.c      ****         break;
 639              		.loc 1 520 0
 640 0024 04E0     		b	.L47
 641              	.LVL92:
 642              	.L51:
 521:.\main.c      ****     case 3:
 522:.\main.c      ****         delay=27; //ultra high resolution, 25.5ms
 643              		.loc 1 522 0
 644 0026 1B26     		mov	r6, #27
 523:.\main.c      ****         break;        
 645              		.loc 1 523 0
 646 0028 02E0     		b	.L47
 647              	.LVL93:
 648              	.L46:
 524:.\main.c      ****     default:
 525:.\main.c      ****         delay=32;
 649              		.loc 1 525 0
 650 002a 2026     		mov	r6, #32
ARM GAS  C:\Users\Svilen\AppData\Local\Temp\ccuaxGpF.s 			page 22


 651 002c 00E0     		b	.L47
 652              	.LVL94:
 653              	.L54:
 516:.\main.c      ****         break;
 654              		.loc 1 516 0
 655 002e 0926     		mov	r6, #9
 656              	.L47:
 657              	.LVL95:
 526:.\main.c      ****     }
 527:.\main.c      ****     //–ó–∞–ø–∏—Å–≤–∞ 0x74 –≤ —Ä–µ–≥–∏—Å—Ç—ä—Ä 0xf4
 528:.\main.c      ****     BMP180_WriteByte(0xf4, 0x34+(oss<<6)); //oss=1 0 standart oversample
 658              		.loc 1 528 0
 659 0030 A101     		lsl	r1, r4, #6
 660              	.LVL96:
 661 0032 3431     		add	r1, r1, #52
 662 0034 F420     		mov	r0, #244
 663              	.LVL97:
 664 0036 FFF7FEFF 		bl	BMP180_WriteByte
 665              	.LVL98:
 529:.\main.c      ****     CyDelay(delay);
 666              		.loc 1 529 0
 667 003a 301C     		mov	r0, r6
 668 003c FFF7FEFF 		bl	CyDelay
 669              	.LVL99:
 530:.\main.c      ****     msb = BMP180_ReadReg(0xF6);
 670              		.loc 1 530 0
 671 0040 F620     		mov	r0, #246
 672 0042 FFF7FEFF 		bl	BMP180_ReadReg
 673              	.LVL100:
 674 0046 061C     		mov	r6, r0
 675              	.LVL101:
 531:.\main.c      ****     lsb = BMP180_ReadReg(0xF7);
 676              		.loc 1 531 0
 677 0048 F720     		mov	r0, #247
 678              	.LVL102:
 679 004a FFF7FEFF 		bl	BMP180_ReadReg
 680              	.LVL103:
 681 004e 071C     		mov	r7, r0
 682              	.LVL104:
 532:.\main.c      ****     xlsb = BMP180_ReadReg(0xF8);
 683              		.loc 1 532 0
 684 0050 F820     		mov	r0, #248
 685              	.LVL105:
 686 0052 FFF7FEFF 		bl	BMP180_ReadReg
 687              	.LVL106:
 533:.\main.c      ****     up = (long)(((msb<<16) + (lsb<<8) + xlsb)>>(8-oss));
 688              		.loc 1 533 0
 689 0056 3604     		lsl	r6, r6, #16
 690              	.LVL107:
 691 0058 3F02     		lsl	r7, r7, #8
 692              	.LVL108:
 693 005a F719     		add	r7, r6, r7
 694 005c 3F18     		add	r7, r7, r0
 695 005e 0822     		mov	r2, #8
 696 0060 121B     		sub	r2, r2, r4
 697 0062 3E1C     		mov	r6, r7
 698 0064 D640     		lsr	r6, r6, r2
ARM GAS  C:\Users\Svilen\AppData\Local\Temp\ccuaxGpF.s 			page 23


 699              	.LVL109:
 534:.\main.c      ****     
 535:.\main.c      ****     long B5 = (temperature * 16) - 8; 
 700              		.loc 1 535 0
 701 0066 2D01     		lsl	r5, r5, #4
 702              	.LVL110:
 536:.\main.c      ****     long B6 = B5-4000;
 703              		.loc 1 536 0
 704 0068 294B     		ldr	r3, .L55
 705 006a EA18     		add	r2, r5, r3
 706              	.LVL111:
 537:.\main.c      ****     long X1 = ((long)B2 * ((B6*B6)/4096))/2048;
 707              		.loc 1 537 0
 708 006c 294B     		ldr	r3, .L55+4
 709 006e 0021     		mov	r1, #0
 710 0070 595E     		ldrsh	r1, [r3, r1]
 711 0072 151C     		mov	r5, r2
 712              	.LVL112:
 713 0074 5543     		mul	r5, r2
 714 0076 EB17     		asr	r3, r5, #31
 715 0078 1B0D     		lsr	r3, r3, #20
 716 007a 5D19     		add	r5, r3, r5
 717 007c 2D13     		asr	r5, r5, #12
 718 007e 6943     		mul	r1, r5
 719 0080 CB17     		asr	r3, r1, #31
 720 0082 5B0D     		lsr	r3, r3, #21
 721 0084 5918     		add	r1, r3, r1
 722 0086 C912     		asr	r1, r1, #11
 723              	.LVL113:
 538:.\main.c      ****     long X2 = ((long)AC2*B6)/2048;
 724              		.loc 1 538 0
 725 0088 234B     		ldr	r3, .L55+8
 726 008a 0020     		mov	r0, #0
 727 008c 1B5E     		ldrsh	r3, [r3, r0]
 728              	.LVL114:
 729 008e 5A43     		mul	r2, r3
 730              	.LVL115:
 731 0090 D317     		asr	r3, r2, #31
 732 0092 5B0D     		lsr	r3, r3, #21
 733 0094 9A18     		add	r2, r3, r2
 734 0096 D212     		asr	r2, r2, #11
 735              	.LVL116:
 539:.\main.c      ****     long X3 = (X1+X2);
 736              		.loc 1 539 0
 737 0098 8A18     		add	r2, r1, r2
 738              	.LVL117:
 540:.\main.c      ****     long B3 = ((((long)AC1*4+X3)<<oss)+2)/4;
 739              		.loc 1 540 0
 740 009a 204B     		ldr	r3, .L55+12
 741              	.LVL118:
 742 009c 0021     		mov	r1, #0
 743 009e 5B5E     		ldrsh	r3, [r3, r1]
 744              	.LVL119:
 745 00a0 9B00     		lsl	r3, r3, #2
 746 00a2 9B18     		add	r3, r3, r2
 747 00a4 A340     		lsl	r3, r3, r4
 748 00a6 0233     		add	r3, r3, #2
ARM GAS  C:\Users\Svilen\AppData\Local\Temp\ccuaxGpF.s 			page 24


 749 00a8 D817     		asr	r0, r3, #31
 750 00aa 800F     		lsr	r0, r0, #30
 751 00ac C318     		add	r3, r0, r3
 752 00ae 9B10     		asr	r3, r3, #2
 753              	.LVL120:
 541:.\main.c      ****     unsigned long B4 = (unsigned long)AC4 * (unsigned long)(X3+32768)/32768;
 754              		.loc 1 541 0
 755 00b0 1B49     		ldr	r1, .L55+16
 756 00b2 0988     		ldrh	r1, [r1]
 757 00b4 8020     		mov	r0, #128
 758 00b6 0002     		lsl	r0, r0, #8
 759 00b8 8446     		mov	ip, r0
 760 00ba 6244     		add	r2, r2, ip
 761              	.LVL121:
 762 00bc 5143     		mul	r1, r2
 763 00be C90B     		lsr	r1, r1, #15
 764              	.LVL122:
 542:.\main.c      ****     unsigned long B7 = ((unsigned long)up-B3)*(50000>>oss);
 765              		.loc 1 542 0
 766 00c0 F01A     		sub	r0, r6, r3
 767 00c2 184A     		ldr	r2, .L55+20
 768              	.LVL123:
 769 00c4 2241     		asr	r2, r2, r4
 770 00c6 5043     		mul	r0, r2
 771              	.LVL124:
 543:.\main.c      ****     long p;
 544:.\main.c      ****     if(B7<0x80000000) p=(B7*2)/B4;
 772              		.loc 1 544 0
 773 00c8 0028     		cmp	r0, #0
 774 00ca 03DB     		blt	.L52
 775              		.loc 1 544 0 is_stmt 0 discriminator 1
 776 00cc 4000     		lsl	r0, r0, #1
 777              	.LVL125:
 778 00ce FFF7FEFF 		bl	__aeabi_uidiv
 779              	.LVL126:
 780 00d2 02E0     		b	.L53
 781              	.LVL127:
 782              	.L52:
 545:.\main.c      ****     else p = (B7/B4)*2;
 783              		.loc 1 545 0 is_stmt 1
 784 00d4 FFF7FEFF 		bl	__aeabi_uidiv
 785              	.LVL128:
 786 00d8 4000     		lsl	r0, r0, #1
 787              	.LVL129:
 788              	.L53:
 546:.\main.c      ****     X1 = (p/256)*(p/256);
 789              		.loc 1 546 0
 790 00da C217     		asr	r2, r0, #31
 791 00dc 120E     		lsr	r2, r2, #24
 792 00de 1218     		add	r2, r2, r0
 793 00e0 1212     		asr	r2, r2, #8
 794 00e2 5243     		mul	r2, r2
 795              	.LVL130:
 547:.\main.c      ****     X1 = (X1* 3038)/65536;
 796              		.loc 1 547 0
 797 00e4 104B     		ldr	r3, .L55+24
 798 00e6 5A43     		mul	r2, r3
ARM GAS  C:\Users\Svilen\AppData\Local\Temp\ccuaxGpF.s 			page 25


 799              	.LVL131:
 800 00e8 D317     		asr	r3, r2, #31
 801 00ea 1B0C     		lsr	r3, r3, #16
 802 00ec 9B18     		add	r3, r3, r2
 803 00ee 1B14     		asr	r3, r3, #16
 804              	.LVL132:
 548:.\main.c      ****     X2 = (-7357*p)/65536;
 805              		.loc 1 548 0
 806 00f0 0E4A     		ldr	r2, .L55+28
 807 00f2 4243     		mul	r2, r0
 808 00f4 D117     		asr	r1, r2, #31
 809 00f6 090C     		lsr	r1, r1, #16
 810 00f8 8A18     		add	r2, r1, r2
 811 00fa 1214     		asr	r2, r2, #16
 812              	.LVL133:
 549:.\main.c      ****     p=p+(X1+X2+3791)/16;
 813              		.loc 1 549 0
 814 00fc 9B18     		add	r3, r3, r2
 815              	.LVL134:
 816 00fe 0C4A     		ldr	r2, .L55+32
 817              	.LVL135:
 818 0100 9446     		mov	ip, r2
 819 0102 6344     		add	r3, r3, ip
 820 0104 DA17     		asr	r2, r3, #31
 821 0106 120F     		lsr	r2, r2, #28
 822 0108 D318     		add	r3, r2, r3
 823 010a 1B11     		asr	r3, r3, #4
 824 010c 1818     		add	r0, r3, r0
 825              	.LVL136:
 550:.\main.c      ****     
 551:.\main.c      ****     return p;
 552:.\main.c      **** }
 826              		.loc 1 552 0
 827              		@ sp needed
 828              	.LVL137:
 829              	.LVL138:
 830              	.LVL139:
 831 010e F8BD     		pop	{r3, r4, r5, r6, r7, pc}
 832              	.L56:
 833              		.align	2
 834              	.L55:
 835 0110 58F0FFFF 		.word	-4008
 836 0114 00000000 		.word	B2
 837 0118 00000000 		.word	AC2
 838 011c 00000000 		.word	AC1
 839 0120 00000000 		.word	AC4
 840 0124 50C30000 		.word	50000
 841 0128 DE0B0000 		.word	3038
 842 012c 43E3FFFF 		.word	-7357
 843 0130 CF0E0000 		.word	3791
 844              		.cfi_endproc
 845              	.LFE43:
 846              		.size	BMP180_ReadPresure, .-BMP180_ReadPresure
 847              		.section	.text.BMP180_ReadCalibrationCoefs,"ax",%progbits
 848              		.align	2
 849              		.global	BMP180_ReadCalibrationCoefs
 850              		.code	16
ARM GAS  C:\Users\Svilen\AppData\Local\Temp\ccuaxGpF.s 			page 26


 851              		.thumb_func
 852              		.type	BMP180_ReadCalibrationCoefs, %function
 853              	BMP180_ReadCalibrationCoefs:
 854              	.LFB44:
 553:.\main.c      **** 
 554:.\main.c      **** void BMP180_ReadCalibrationCoefs()
 555:.\main.c      **** {
 855              		.loc 1 555 0
 856              		.cfi_startproc
 857 0000 08B5     		push	{r3, lr}
 858              		.cfi_def_cfa_offset 8
 859              		.cfi_offset 3, -8
 860              		.cfi_offset 14, -4
 556:.\main.c      ****     AC1 = BMP180_ReadInt(0xAA);
 861              		.loc 1 556 0
 862 0002 AA20     		mov	r0, #170
 863 0004 FFF7FEFF 		bl	BMP180_ReadInt
 864              	.LVL140:
 865 0008 1A4B     		ldr	r3, .L58
 866 000a 1880     		strh	r0, [r3]
 557:.\main.c      ****     AC2 = BMP180_ReadInt(0xAC);
 867              		.loc 1 557 0
 868 000c AC20     		mov	r0, #172
 869 000e FFF7FEFF 		bl	BMP180_ReadInt
 870              	.LVL141:
 871 0012 194B     		ldr	r3, .L58+4
 872 0014 1880     		strh	r0, [r3]
 558:.\main.c      ****     AC3 = BMP180_ReadInt(0xAE);
 873              		.loc 1 558 0
 874 0016 AE20     		mov	r0, #174
 875 0018 FFF7FEFF 		bl	BMP180_ReadInt
 876              	.LVL142:
 877 001c 174B     		ldr	r3, .L58+8
 878 001e 1880     		strh	r0, [r3]
 559:.\main.c      ****     AC4 = BMP180_ReadUInt(0xB0);
 879              		.loc 1 559 0
 880 0020 B020     		mov	r0, #176
 881 0022 FFF7FEFF 		bl	BMP180_ReadUInt
 882              	.LVL143:
 883 0026 164B     		ldr	r3, .L58+12
 884 0028 1880     		strh	r0, [r3]
 560:.\main.c      ****     AC5 = BMP180_ReadUInt(0xB2);
 885              		.loc 1 560 0
 886 002a B220     		mov	r0, #178
 887 002c FFF7FEFF 		bl	BMP180_ReadUInt
 888              	.LVL144:
 889 0030 144B     		ldr	r3, .L58+16
 890 0032 1880     		strh	r0, [r3]
 561:.\main.c      ****     AC6 = BMP180_ReadUInt(0xB4);
 891              		.loc 1 561 0
 892 0034 B420     		mov	r0, #180
 893 0036 FFF7FEFF 		bl	BMP180_ReadUInt
 894              	.LVL145:
 895 003a 134B     		ldr	r3, .L58+20
 896 003c 1880     		strh	r0, [r3]
 562:.\main.c      ****     B1 = BMP180_ReadInt(0xB6);
 897              		.loc 1 562 0
ARM GAS  C:\Users\Svilen\AppData\Local\Temp\ccuaxGpF.s 			page 27


 898 003e B620     		mov	r0, #182
 899 0040 FFF7FEFF 		bl	BMP180_ReadInt
 900              	.LVL146:
 901 0044 114B     		ldr	r3, .L58+24
 902 0046 1880     		strh	r0, [r3]
 563:.\main.c      ****     B2 = BMP180_ReadInt(0xB8);
 903              		.loc 1 563 0
 904 0048 B820     		mov	r0, #184
 905 004a FFF7FEFF 		bl	BMP180_ReadInt
 906              	.LVL147:
 907 004e 104B     		ldr	r3, .L58+28
 908 0050 1880     		strh	r0, [r3]
 564:.\main.c      ****     MB = BMP180_ReadInt(0xBA);
 909              		.loc 1 564 0
 910 0052 BA20     		mov	r0, #186
 911 0054 FFF7FEFF 		bl	BMP180_ReadInt
 912              	.LVL148:
 913 0058 0E4B     		ldr	r3, .L58+32
 914 005a 1880     		strh	r0, [r3]
 565:.\main.c      ****     MC = BMP180_ReadInt(0xBC);
 915              		.loc 1 565 0
 916 005c BC20     		mov	r0, #188
 917 005e FFF7FEFF 		bl	BMP180_ReadInt
 918              	.LVL149:
 919 0062 0D4B     		ldr	r3, .L58+36
 920 0064 1880     		strh	r0, [r3]
 566:.\main.c      ****     MD = BMP180_ReadInt(0xBE);
 921              		.loc 1 566 0
 922 0066 BE20     		mov	r0, #190
 923 0068 FFF7FEFF 		bl	BMP180_ReadInt
 924              	.LVL150:
 925 006c 0B4B     		ldr	r3, .L58+40
 926 006e 1880     		strh	r0, [r3]
 567:.\main.c      **** }
 927              		.loc 1 567 0
 928              		@ sp needed
 929 0070 08BD     		pop	{r3, pc}
 930              	.L59:
 931 0072 C046     		.align	2
 932              	.L58:
 933 0074 00000000 		.word	AC1
 934 0078 00000000 		.word	AC2
 935 007c 00000000 		.word	AC3
 936 0080 00000000 		.word	AC4
 937 0084 00000000 		.word	AC5
 938 0088 00000000 		.word	AC6
 939 008c 00000000 		.word	B1
 940 0090 00000000 		.word	B2
 941 0094 00000000 		.word	MB
 942 0098 00000000 		.word	MC
 943 009c 00000000 		.word	MD
 944              		.cfi_endproc
 945              	.LFE44:
 946              		.size	BMP180_ReadCalibrationCoefs, .-BMP180_ReadCalibrationCoefs
 947              		.section	.text.SetTimeout,"ax",%progbits
 948              		.align	2
 949              		.global	SetTimeout
ARM GAS  C:\Users\Svilen\AppData\Local\Temp\ccuaxGpF.s 			page 28


 950              		.code	16
 951              		.thumb_func
 952              		.type	SetTimeout, %function
 953              	SetTimeout:
 954              	.LFB45:
 568:.\main.c      **** 
 569:.\main.c      **** void SetTimeout(uint16 miliseconds)
 570:.\main.c      **** {
 955              		.loc 1 570 0
 956              		.cfi_startproc
 957              	.LVL151:
 958 0000 10B5     		push	{r4, lr}
 959              		.cfi_def_cfa_offset 8
 960              		.cfi_offset 4, -8
 961              		.cfi_offset 14, -4
 962 0002 041C     		mov	r4, r0
 571:.\main.c      ****     /*
 572:.\main.c      ****      * –¢–∞–π–º–µ—Ä–∞-–±—Ä–æ—è—á Timeout —Å–µ –∏–Ω–∫—Ä–µ–º–µ–Ω—Ç–∏—Ä–∞ –≤—Å—è–∫–∞ –º–∏–ª–∏—Å–µ–∫—É–
 573:.\main.c      ****      * –ø—Ä–µ–∫—ä—Å–≤–∞–Ω–µ –∫–æ–µ—Ç–æ —Å–µ –æ—Ç—Ä–∞–±–æ—Ç–≤–∞ –≤ TimeoutISR .  –¢–∞–º —Ñ–ª–∞–≥–∞ t
 574:.\main.c      ****      */
 575:.\main.c      ****         Timeout_Stop();
 963              		.loc 1 575 0
 964 0004 FFF7FEFF 		bl	Timeout_Stop
 965              	.LVL152:
 576:.\main.c      ****         timeoutFlag=0;
 966              		.loc 1 576 0
 967 0008 0022     		mov	r2, #0
 968 000a 054B     		ldr	r3, .L61
 969 000c 1A70     		strb	r2, [r3]
 577:.\main.c      ****         Timeout_WriteCompare(miliseconds);
 970              		.loc 1 577 0
 971 000e 201C     		mov	r0, r4
 972 0010 FFF7FEFF 		bl	Timeout_WriteCompare
 973              	.LVL153:
 578:.\main.c      ****         Timeout_WriteCounter(0);
 974              		.loc 1 578 0
 975 0014 0020     		mov	r0, #0
 976 0016 FFF7FEFF 		bl	Timeout_WriteCounter
 977              	.LVL154:
 579:.\main.c      ****         Timeout_Start();
 978              		.loc 1 579 0
 979 001a FFF7FEFF 		bl	Timeout_Start
 980              	.LVL155:
 580:.\main.c      **** }
 981              		.loc 1 580 0
 982              		@ sp needed
 983 001e 10BD     		pop	{r4, pc}
 984              	.L62:
 985              		.align	2
 986              	.L61:
 987 0020 00000000 		.word	timeoutFlag
 988              		.cfi_endproc
 989              	.LFE45:
 990              		.size	SetTimeout, .-SetTimeout
 991              		.section	.text.UartReadLine,"ax",%progbits
 992              		.align	2
 993              		.global	UartReadLine
ARM GAS  C:\Users\Svilen\AppData\Local\Temp\ccuaxGpF.s 			page 29


 994              		.code	16
 995              		.thumb_func
 996              		.type	UartReadLine, %function
 997              	UartReadLine:
 998              	.LFB46:
 581:.\main.c      **** 
 582:.\main.c      **** uint32 UartReadLine(char *line, uint16 timeout)
 583:.\main.c      **** {
 999              		.loc 1 583 0
 1000              		.cfi_startproc
 1001              	.LVL156:
 1002 0000 38B5     		push	{r3, r4, r5, lr}
 1003              		.cfi_def_cfa_offset 16
 1004              		.cfi_offset 3, -16
 1005              		.cfi_offset 4, -12
 1006              		.cfi_offset 5, -8
 1007              		.cfi_offset 14, -4
 1008 0002 041C     		mov	r4, r0
 1009              	.LVL157:
 584:.\main.c      ****     uint32 rxcounter=0;
 585:.\main.c      ****     uint8 c;
 586:.\main.c      ****     
 587:.\main.c      ****     SetTimeout(timeout);
 1010              		.loc 1 587 0
 1011 0004 081C     		mov	r0, r1
 1012              	.LVL158:
 1013 0006 FFF7FEFF 		bl	SetTimeout
 1014              	.LVL159:
 584:.\main.c      ****     uint32 rxcounter=0;
 1015              		.loc 1 584 0
 1016 000a 0025     		mov	r5, #0
 1017              	.LVL160:
 1018              	.L64:
 588:.\main.c      ****     //CyGlobalIntEnable;
 589:.\main.c      ****     while(1)
 590:.\main.c      ****     {
 591:.\main.c      ****         c = UART_GetChar();
 1019              		.loc 1 591 0
 1020 000c FFF7FEFF 		bl	UART_GetChar
 1021              	.LVL161:
 592:.\main.c      ****         if(timeoutFlag) break;
 1022              		.loc 1 592 0
 1023 0010 084A     		ldr	r2, .L67
 1024 0012 1278     		ldrb	r2, [r2]
 1025 0014 002A     		cmp	r2, #0
 1026 0016 09D1     		bne	.L65
 593:.\main.c      ****         
 594:.\main.c      ****         if(c==0) continue;
 1027              		.loc 1 594 0
 1028 0018 0028     		cmp	r0, #0
 1029 001a F7D0     		beq	.L64
 595:.\main.c      ****         if(c=='\n') break;
 1030              		.loc 1 595 0
 1031 001c 0A28     		cmp	r0, #10
 1032 001e 05D0     		beq	.L65
 596:.\main.c      ****         if(c=='\r') continue;
 1033              		.loc 1 596 0
ARM GAS  C:\Users\Svilen\AppData\Local\Temp\ccuaxGpF.s 			page 30


 1034 0020 0D28     		cmp	r0, #13
 1035 0022 F3D0     		beq	.L64
 597:.\main.c      ****         
 598:.\main.c      ****         *line = c;
 1036              		.loc 1 598 0
 1037 0024 2070     		strb	r0, [r4]
 599:.\main.c      ****         line++;
 1038              		.loc 1 599 0
 1039 0026 0134     		add	r4, r4, #1
 1040              	.LVL162:
 600:.\main.c      ****         rxcounter++;
 1041              		.loc 1 600 0
 1042 0028 0135     		add	r5, r5, #1
 1043              	.LVL163:
 1044 002a EFE7     		b	.L64
 1045              	.L65:
 601:.\main.c      ****     }
 602:.\main.c      ****     *line = 0;
 1046              		.loc 1 602 0
 1047 002c 0023     		mov	r3, #0
 1048 002e 2370     		strb	r3, [r4]
 603:.\main.c      ****     //CyGlobalIntDisable;
 604:.\main.c      ****     return rxcounter;
 605:.\main.c      **** }
 1049              		.loc 1 605 0
 1050 0030 281C     		mov	r0, r5
 1051              	.LVL164:
 1052              		@ sp needed
 1053              	.LVL165:
 1054              	.LVL166:
 1055 0032 38BD     		pop	{r3, r4, r5, pc}
 1056              	.L68:
 1057              		.align	2
 1058              	.L67:
 1059 0034 00000000 		.word	timeoutFlag
 1060              		.cfi_endproc
 1061              	.LFE46:
 1062              		.size	UartReadLine, .-UartReadLine
 1063              		.section	.text.TX20_Read,"ax",%progbits
 1064              		.align	2
 1065              		.global	TX20_Read
 1066              		.code	16
 1067              		.thumb_func
 1068              		.type	TX20_Read, %function
 1069              	TX20_Read:
 1070              	.LFB47:
 606:.\main.c      **** 
 607:.\main.c      **** uint8 TX20_Read()
 608:.\main.c      **** {
 1071              		.loc 1 608 0
 1072              		.cfi_startproc
 1073 0000 F0B5     		push	{r4, r5, r6, r7, lr}
 1074              		.cfi_def_cfa_offset 20
 1075              		.cfi_offset 4, -20
 1076              		.cfi_offset 5, -16
 1077              		.cfi_offset 6, -12
 1078              		.cfi_offset 7, -8
ARM GAS  C:\Users\Svilen\AppData\Local\Temp\ccuaxGpF.s 			page 31


 1079              		.cfi_offset 14, -4
 1080 0002 5F46     		mov	r7, fp
 1081 0004 5646     		mov	r6, r10
 1082 0006 4D46     		mov	r5, r9
 1083 0008 4446     		mov	r4, r8
 1084 000a F0B4     		push	{r4, r5, r6, r7}
 1085              		.cfi_def_cfa_offset 36
 1086              		.cfi_offset 8, -36
 1087              		.cfi_offset 9, -32
 1088              		.cfi_offset 10, -28
 1089              		.cfi_offset 11, -24
 1090 000c 83B0     		sub	sp, sp, #12
 1091              		.cfi_def_cfa_offset 48
 609:.\main.c      ****     /*
 610:.\main.c      ****     –ü—Ä–æ—á–∏—Ç–∞ —Å–µ–Ω–∑–æ—Ä–∞ –∑–∞ —Å–∏–ª–∞ –∏ –ø–æ—Å–æ–∫–∞ –Ω–∞ –≤—è—Ç—ä—Ä–∞. –°–µ–Ω–∑–æ—Ä–∞ –
 611:.\main.c      ****     –í—Ä–µ–º–µ—Ç–æ –∑–∞ –µ–¥–∏–Ω –±–∏—Ç –µ 1.22ms . –ë–∏—Ç–æ–≤–µ—Ç–µ —Å–∞ –∏–Ω–≤–µ—Ä—Ç–∏—Ä–∞–Ω–∏. –
 612:.\main.c      ****     https://www.esp8266.com/viewtopic.php?f=32&t=10246
 613:.\main.c      ****     https://www.john.geek.nz/2011/07/la-crosse-tx20-anemometer-communication-protocol/ !!!!!
 614:.\main.c      ****     http://blog.bubux.de/windsensor-tx20-mit-esp8266/    
 615:.\main.c      ****     
 616:.\main.c      ****     —Ñ—É–Ω–∫—Ü–∏—è—Ç–∞ –≤—Ä—ä—â–∞ 0 –∞–∫–æ –µ –æ–∫. –¢–æ–≥–∞–≤–∞ –ø—Ä–æ—á–µ—Ç–µ–Ω–∏—Ç–µ —Å—Ç–æ–π–Ω–
 617:.\main.c      ****     –≤—Ä—ä—â–∞ 1 –∞–∫–æ –Ω—è–º–∞ –æ—Ç–≥–æ–≤–æ—Ä –æ—Ç —Å–µ–Ω–∑–æ—Ä–∞
 618:.\main.c      ****     –≤—Ä—ä—â–∞ 2 –∞–∫–æ –ª–∏–Ω–∏—è—Ç–∞ –∑–∞ –¥–∞–Ω–Ω–∏ –µ –≤ 1 –ø—Ä–µ–¥–∏ –¥–∞ –µ –ø–æ–¥–∞–¥–µ–Ω Ch
 619:.\main.c      ****     –≤—Ä—ä—â–∞ 3 –ø—Ä–∏ –≥—Ä–µ—à–∫–∞ –≤ –¥–∞–Ω–Ω–∏—Ç–µ - start of frame, –∏–Ω–≤–µ—Ä—Ç–∏—Ä–∞–Ω–∏ —Å—
 620:.\main.c      ****     –≤—Ä—ä—â–∞ 4 –ø—Ä–∏  –∫–æ–Ω—Ç—Ä–æ–ª–∞–Ω–∞ —Å—É–º–∞
 621:.\main.c      ****     */    
 622:.\main.c      ****     uint16 divFor1kHz, speed1, speed2, mask16;
 623:.\main.c      ****     uint8 frameStart, dir1, dir2, chkSum, chkSumCalc,  n, mask8;
 624:.\main.c      **** 
 625:.\main.c      ****     //–ß–∞–∫–∞ —Å–µ –Ω–∞—á–∞–ª–æ –Ω–∞ –¥–∞–Ω–Ω–∏ –æ—Ç –≤–µ—Ç—Ä–æ–º–µ—Ä–∞ (–ø—Ä–µ–¥–µ–Ω —Ñ—Ä–æ–Ω—Ç)
 626:.\main.c      ****     if(PinWindRX_Read()) return 2; //–ì–†–ï–®–ö–ê - –ª–∏–Ω–∏—è—Ç–∞ –µ –≤ 1 –ø—Ä–µ–¥–∏ Chip Enable
 1092              		.loc 1 626 0
 1093 000e FFF7FEFF 		bl	PinWindRX_Read
 1094              	.LVL167:
 1095 0012 041E     		sub	r4, r0, #0
 1096 0014 00D0     		beq	.LCB1091
 1097 0016 D1E0     		b	.L97	@long jump
 1098              	.LCB1091:
 627:.\main.c      ****     //–ü—Ä–∏ –ª–∏–ø—Å–∞ –Ω–∞ —Ç–∞–π–º–∞—É—Ç –¥–∞ —Å–µ –∏–∑–ª–∏–∑–∞ —Å –≥—Ä–µ—à–∫–∞ –∑–∞ –≤—Ä—ä–∑–∫–
 628:.\main.c      ****     SetTimeout(7000);
 1099              		.loc 1 628 0
 1100 0018 6F48     		ldr	r0, .L100
 1101 001a FFF7FEFF 		bl	SetTimeout
 1102              	.LVL168:
 629:.\main.c      ****     PinWindCE_Write(0);
 1103              		.loc 1 629 0
 1104 001e 0020     		mov	r0, #0
 1105 0020 FFF7FEFF 		bl	PinWindCE_Write
 1106              	.LVL169:
 630:.\main.c      ****     //CyGlobalIntEnable;        
 631:.\main.c      ****     while(PinWindRX_Read()==0)
 1107              		.loc 1 631 0
 1108 0024 08E0     		b	.L71
 1109              	.L72:
 632:.\main.c      ****     {
 633:.\main.c      ****         if(timeoutFlag)
 1110              		.loc 1 633 0
ARM GAS  C:\Users\Svilen\AppData\Local\Temp\ccuaxGpF.s 			page 32


 1111 0026 6D4B     		ldr	r3, .L100+4
 1112 0028 1B78     		ldrb	r3, [r3]
 1113 002a 002B     		cmp	r3, #0
 1114 002c 04D0     		beq	.L71
 634:.\main.c      ****         {
 635:.\main.c      ****             //–°–µ–Ω–∑–æ—Ä–∞ –Ω–µ –≤—Ä—ä—â–∞ –¥–∞–Ω–Ω–∏ - –≤—Ä—ä—â–∞ 1
 636:.\main.c      ****             PinWindCE_Write(1);
 1115              		.loc 1 636 0
 1116 002e 0120     		mov	r0, #1
 1117 0030 FFF7FEFF 		bl	PinWindCE_Write
 1118              	.LVL170:
 637:.\main.c      ****             return 1;
 1119              		.loc 1 637 0
 1120 0034 0124     		mov	r4, #1
 1121 0036 C6E0     		b	.L70
 1122              	.L71:
 631:.\main.c      ****     {
 1123              		.loc 1 631 0
 1124 0038 FFF7FEFF 		bl	PinWindRX_Read
 1125              	.LVL171:
 1126 003c 0028     		cmp	r0, #0
 1127 003e F2D0     		beq	.L72
 638:.\main.c      ****         }
 639:.\main.c      ****     }
 640:.\main.c      ****     //–ò–º–∞–º–µ –ø—Ä–µ–¥–µ–Ω —Ñ—Ä–æ–Ω—Ç
 641:.\main.c      ****     //–ü—Ä–æ–º–µ–Ω—è —Å–µ —á–µ—Å—Ç–æ—Ç–∞—Ç–∞ –Ω–∞ ClockTO –æ—Ç 1kHz (–¢=1mS) –Ω–∞ 1MHz(T=1uS)
 642:.\main.c      ****     divFor1kHz = ClockTO_GetDividerRegister();
 1128              		.loc 1 642 0
 1129 0040 FFF7FEFF 		bl	ClockTO_GetDividerRegister
 1130              	.LVL172:
 1131 0044 0190     		str	r0, [sp, #4]
 1132              	.LVL173:
 643:.\main.c      ****     ClockTO_SetDivider(23);
 1133              		.loc 1 643 0
 1134 0046 1720     		mov	r0, #23
 1135 0048 0021     		mov	r1, #0
 1136 004a FFF7FEFF 		bl	ClockTO_SetFractionalDividerRegister
 1137              	.LVL174:
 644:.\main.c      **** 
 645:.\main.c      ****     //–ò–∑—á–∞–∫–≤–∞ —Å–µ 0.61–º—Å –∑–∞ –¥–∞ —Å–º–µ –Ω–∞ —Å—Ä–µ–¥–∞—Ç–∞ –Ω–∞ –ø—ä—Ä–≤–∏—è –±–∏—Ç.
 646:.\main.c      ****     SetTimeout(600); // 0.61 ms
 1138              		.loc 1 646 0
 1139 004e 9620     		mov	r0, #150
 1140 0050 8000     		lsl	r0, r0, #2
 1141 0052 FFF7FEFF 		bl	SetTimeout
 1142              	.LVL175:
 1143              	.L73:
 647:.\main.c      ****     while(timeoutFlag==0);
 1144              		.loc 1 647 0 discriminator 1
 1145 0056 614B     		ldr	r3, .L100+4
 1146 0058 1B78     		ldrb	r3, [r3]
 1147 005a 002B     		cmp	r3, #0
 1148 005c FBD0     		beq	.L73
 1149 005e 0025     		mov	r5, #0
 1150 0060 0BE0     		b	.L74
 1151              	.LVL176:
 1152              	.L76:
ARM GAS  C:\Users\Svilen\AppData\Local\Temp\ccuaxGpF.s 			page 33


 648:.\main.c      ****     //–ü—Ä–∏–µ–º–∞—Ç —Å–µ –ø—ä—Ä–≤–∏—Ç–µ 5 –±–∏—Ç–∞ - Start of Frame. –í–∏–Ω–∞–≥–∏ —Å–∞ 00100
 649:.\main.c      ****     mask8=1;
 650:.\main.c      ****     frameStart=0;
 651:.\main.c      ****     for(n=0; n!=5 ; n++)
 652:.\main.c      ****     {
 653:.\main.c      ****         if(PinWindRX_Read()==0)   frameStart |= mask8;
 1153              		.loc 1 653 0
 1154 0062 FFF7FEFF 		bl	PinWindRX_Read
 1155              	.LVL177:
 654:.\main.c      ****         mask8=mask8<<1;
 655:.\main.c      ****         SetTimeout(1200); // 1.22 ms
 1156              		.loc 1 655 0
 1157 0066 9620     		mov	r0, #150
 1158 0068 C000     		lsl	r0, r0, #3
 1159 006a FFF7FEFF 		bl	SetTimeout
 1160              	.LVL178:
 1161              	.L75:
 656:.\main.c      ****         while(timeoutFlag==0);        
 1162              		.loc 1 656 0 discriminator 1
 1163 006e 5B4B     		ldr	r3, .L100+4
 1164 0070 1B78     		ldrb	r3, [r3]
 1165 0072 002B     		cmp	r3, #0
 1166 0074 FBD0     		beq	.L75
 651:.\main.c      ****     {
 1167              		.loc 1 651 0 discriminator 2
 1168 0076 0135     		add	r5, r5, #1
 1169              	.LVL179:
 1170 0078 EDB2     		uxtb	r5, r5
 1171              	.LVL180:
 1172              	.L74:
 651:.\main.c      ****     {
 1173              		.loc 1 651 0 is_stmt 0 discriminator 1
 1174 007a 052D     		cmp	r5, #5
 1175 007c F1D1     		bne	.L76
 1176 007e 0126     		mov	r6, #1
 1177 0080 0025     		mov	r5, #0
 1178              	.LVL181:
 1179 0082 0023     		mov	r3, #0
 1180 0084 9946     		mov	r9, r3
 1181 0086 12E0     		b	.L77
 1182              	.LVL182:
 1183              	.L80:
 657:.\main.c      ****     }
 658:.\main.c      ****     // –ü—Ä–∏–µ–º–∞—Ç —Å–µ 4 –±–∏—Ç–∞ –∑–∞ –ø–æ—Å–æ–∫–∞ –Ω—è –≤—è—Ç—ä—Ä–∞. –ü—ä—Ä–≤–æ –ø—Ä–∏—Å—Ç–∏–
 659:.\main.c      ****     mask8=1;
 660:.\main.c      ****     dir1=0;
 661:.\main.c      ****     for(n=0; n!=4 ; n++)
 662:.\main.c      ****     {
 663:.\main.c      ****         if(PinWindRX_Read()==0)   dir1 |= mask8;
 1184              		.loc 1 663 0 is_stmt 1
 1185 0088 FFF7FEFF 		bl	PinWindRX_Read
 1186              	.LVL183:
 1187 008c 0028     		cmp	r0, #0
 1188 008e 02D1     		bne	.L78
 1189              		.loc 1 663 0 is_stmt 0 discriminator 1
 1190 0090 4B46     		mov	r3, r9
 1191 0092 3343     		orr	r3, r6
ARM GAS  C:\Users\Svilen\AppData\Local\Temp\ccuaxGpF.s 			page 34


 1192 0094 9946     		mov	r9, r3
 1193              	.LVL184:
 1194              	.L78:
 664:.\main.c      ****         mask8=mask8<<1;
 1195              		.loc 1 664 0 is_stmt 1
 1196 0096 7600     		lsl	r6, r6, #1
 1197              	.LVL185:
 1198 0098 F6B2     		uxtb	r6, r6
 1199              	.LVL186:
 665:.\main.c      ****         SetTimeout(1200); // 1.22 ms
 1200              		.loc 1 665 0
 1201 009a 9620     		mov	r0, #150
 1202 009c C000     		lsl	r0, r0, #3
 1203 009e FFF7FEFF 		bl	SetTimeout
 1204              	.LVL187:
 1205              	.L79:
 666:.\main.c      ****         while(timeoutFlag==0);        
 1206              		.loc 1 666 0 discriminator 1
 1207 00a2 4E4B     		ldr	r3, .L100+4
 1208 00a4 1B78     		ldrb	r3, [r3]
 1209 00a6 002B     		cmp	r3, #0
 1210 00a8 FBD0     		beq	.L79
 661:.\main.c      ****     {
 1211              		.loc 1 661 0 discriminator 2
 1212 00aa 0135     		add	r5, r5, #1
 1213              	.LVL188:
 1214 00ac EDB2     		uxtb	r5, r5
 1215              	.LVL189:
 1216              	.L77:
 661:.\main.c      ****     {
 1217              		.loc 1 661 0 is_stmt 0 discriminator 1
 1218 00ae 042D     		cmp	r5, #4
 1219 00b0 EAD1     		bne	.L80
 1220 00b2 0025     		mov	r5, #0
 1221              	.LVL190:
 1222 00b4 0126     		mov	r6, #1
 1223              	.LVL191:
 1224 00b6 0027     		mov	r7, #0
 1225 00b8 10E0     		b	.L81
 1226              	.LVL192:
 1227              	.L84:
 667:.\main.c      ****     }
 668:.\main.c      ****     //–ü—Ä–∏–µ–º–∞—Ç —Å–µ 12 –±–∏—Ç–∞ –∑–∞ —Å–∫–æ—Ä–æ—Å—Ç –Ω–∞ –≤—è—Ç—ä—Ä–∞.
 669:.\main.c      ****     //–°—Ç–∞—Ä—à–∏—Ç–µ 3 –±–∏—Ç–∞ —Å–∞ –≤–∏–Ω–∞–≥–∏ 0. –ü—Ä–∏–µ—Ç–∞—Ç–∞ —Å—Ç–æ–π–Ω–æ—Å—Ç –µ –≤ 0.1 
 670:.\main.c      ****     mask16=1;
 671:.\main.c      ****     speed1=0;
 672:.\main.c      ****     for(n=0; n!=12 ; n++)
 673:.\main.c      ****     {
 674:.\main.c      ****         if(PinWindRX_Read()==0)   speed1 |= mask16;
 1228              		.loc 1 674 0 is_stmt 1
 1229 00ba FFF7FEFF 		bl	PinWindRX_Read
 1230              	.LVL193:
 1231 00be 0028     		cmp	r0, #0
 1232 00c0 00D1     		bne	.L82
 1233              		.loc 1 674 0 is_stmt 0 discriminator 1
 1234 00c2 3743     		orr	r7, r6
 1235              	.LVL194:
ARM GAS  C:\Users\Svilen\AppData\Local\Temp\ccuaxGpF.s 			page 35


 1236              	.L82:
 675:.\main.c      ****         mask16=mask16<<1;
 1237              		.loc 1 675 0 is_stmt 1
 1238 00c4 7600     		lsl	r6, r6, #1
 1239              	.LVL195:
 1240 00c6 B6B2     		uxth	r6, r6
 1241              	.LVL196:
 676:.\main.c      ****         SetTimeout(1200); // 1.22 ms
 1242              		.loc 1 676 0
 1243 00c8 9620     		mov	r0, #150
 1244 00ca C000     		lsl	r0, r0, #3
 1245 00cc FFF7FEFF 		bl	SetTimeout
 1246              	.LVL197:
 1247              	.L83:
 677:.\main.c      ****         while(timeoutFlag==0);        
 1248              		.loc 1 677 0 discriminator 1
 1249 00d0 424B     		ldr	r3, .L100+4
 1250 00d2 1B78     		ldrb	r3, [r3]
 1251 00d4 002B     		cmp	r3, #0
 1252 00d6 FBD0     		beq	.L83
 672:.\main.c      ****     {
 1253              		.loc 1 672 0 discriminator 2
 1254 00d8 0135     		add	r5, r5, #1
 1255              	.LVL198:
 1256 00da EDB2     		uxtb	r5, r5
 1257              	.LVL199:
 1258              	.L81:
 672:.\main.c      ****     {
 1259              		.loc 1 672 0 is_stmt 0 discriminator 1
 1260 00dc 0C2D     		cmp	r5, #12
 1261 00de ECD1     		bne	.L84
 1262 00e0 0126     		mov	r6, #1
 1263              	.LVL200:
 1264 00e2 0025     		mov	r5, #0
 1265              	.LVL201:
 1266 00e4 0023     		mov	r3, #0
 1267 00e6 9A46     		mov	r10, r3
 1268 00e8 12E0     		b	.L85
 1269              	.LVL202:
 1270              	.L88:
 678:.\main.c      ****     }
 679:.\main.c      ****     // –ü—Ä–∏–µ–º–∞—Ç —Å–µ 4 –±–∏—Ç–∞ –∑–∞ –∫–æ–Ω—Ç—Ä–æ–ª–Ω–∞ —Å—É–º–∞. 
 680:.\main.c      ****     mask8=1;
 681:.\main.c      ****     chkSum=0;
 682:.\main.c      ****     for(n=0; n!=4 ; n++)
 683:.\main.c      ****     {
 684:.\main.c      ****         if(PinWindRX_Read()==0)   chkSum |= mask8;
 1271              		.loc 1 684 0 is_stmt 1
 1272 00ea FFF7FEFF 		bl	PinWindRX_Read
 1273              	.LVL203:
 1274 00ee 0028     		cmp	r0, #0
 1275 00f0 02D1     		bne	.L86
 1276              		.loc 1 684 0 is_stmt 0 discriminator 1
 1277 00f2 5346     		mov	r3, r10
 1278 00f4 3343     		orr	r3, r6
 1279 00f6 9A46     		mov	r10, r3
 1280              	.LVL204:
ARM GAS  C:\Users\Svilen\AppData\Local\Temp\ccuaxGpF.s 			page 36


 1281              	.L86:
 685:.\main.c      ****         mask8=mask8<<1;
 1282              		.loc 1 685 0 is_stmt 1
 1283 00f8 7600     		lsl	r6, r6, #1
 1284              	.LVL205:
 1285 00fa F6B2     		uxtb	r6, r6
 1286              	.LVL206:
 686:.\main.c      ****         SetTimeout(1200); // 1.22 ms
 1287              		.loc 1 686 0
 1288 00fc 9620     		mov	r0, #150
 1289 00fe C000     		lsl	r0, r0, #3
 1290 0100 FFF7FEFF 		bl	SetTimeout
 1291              	.LVL207:
 1292              	.L87:
 687:.\main.c      ****         while(timeoutFlag==0);        
 1293              		.loc 1 687 0 discriminator 1
 1294 0104 354B     		ldr	r3, .L100+4
 1295 0106 1B78     		ldrb	r3, [r3]
 1296 0108 002B     		cmp	r3, #0
 1297 010a FBD0     		beq	.L87
 682:.\main.c      ****     {
 1298              		.loc 1 682 0 discriminator 2
 1299 010c 0135     		add	r5, r5, #1
 1300              	.LVL208:
 1301 010e EDB2     		uxtb	r5, r5
 1302              	.LVL209:
 1303              	.L85:
 682:.\main.c      ****     {
 1304              		.loc 1 682 0 is_stmt 0 discriminator 1
 1305 0110 042D     		cmp	r5, #4
 1306 0112 EAD1     		bne	.L88
 1307 0114 0126     		mov	r6, #1
 1308              	.LVL210:
 1309 0116 0025     		mov	r5, #0
 1310              	.LVL211:
 1311 0118 0023     		mov	r3, #0
 1312 011a 9B46     		mov	fp, r3
 1313 011c 12E0     		b	.L89
 1314              	.LVL212:
 1315              	.L92:
 688:.\main.c      ****     }
 689:.\main.c      ****     // –ü—Ä–∏–µ–º–∞—Ç —Å–µ 4 –±–∏—Ç–∞ –∑–∞ –ø–æ—Å–æ–∫–∞ –Ω—è –≤—è—Ç—ä—Ä–∞, –∏–Ω–≤–µ—Ä—Ç–∏—Ç–∞–Ω–∏. 
 690:.\main.c      ****     mask8=1;
 691:.\main.c      ****     dir2=0;
 692:.\main.c      ****     for(n=0; n!=4 ; n++)
 693:.\main.c      ****     {
 694:.\main.c      ****         if(PinWindRX_Read()==1)   dir2 |= mask8;
 1316              		.loc 1 694 0 is_stmt 1
 1317 011e FFF7FEFF 		bl	PinWindRX_Read
 1318              	.LVL213:
 1319 0122 0128     		cmp	r0, #1
 1320 0124 02D1     		bne	.L90
 1321              		.loc 1 694 0 is_stmt 0 discriminator 1
 1322 0126 5B46     		mov	r3, fp
 1323 0128 3343     		orr	r3, r6
 1324 012a 9B46     		mov	fp, r3
 1325              	.LVL214:
ARM GAS  C:\Users\Svilen\AppData\Local\Temp\ccuaxGpF.s 			page 37


 1326              	.L90:
 695:.\main.c      ****         mask8=mask8<<1;
 1327              		.loc 1 695 0 is_stmt 1
 1328 012c 7600     		lsl	r6, r6, #1
 1329              	.LVL215:
 1330 012e F6B2     		uxtb	r6, r6
 1331              	.LVL216:
 696:.\main.c      ****         SetTimeout(1200); // 1.22 ms
 1332              		.loc 1 696 0
 1333 0130 9620     		mov	r0, #150
 1334 0132 C000     		lsl	r0, r0, #3
 1335 0134 FFF7FEFF 		bl	SetTimeout
 1336              	.LVL217:
 1337              	.L91:
 697:.\main.c      ****         while(timeoutFlag==0);        
 1338              		.loc 1 697 0 discriminator 1
 1339 0138 284B     		ldr	r3, .L100+4
 1340 013a 1B78     		ldrb	r3, [r3]
 1341 013c 002B     		cmp	r3, #0
 1342 013e FBD0     		beq	.L91
 692:.\main.c      ****     {
 1343              		.loc 1 692 0 discriminator 2
 1344 0140 0135     		add	r5, r5, #1
 1345              	.LVL218:
 1346 0142 EDB2     		uxtb	r5, r5
 1347              	.LVL219:
 1348              	.L89:
 692:.\main.c      ****     {
 1349              		.loc 1 692 0 is_stmt 0 discriminator 1
 1350 0144 042D     		cmp	r5, #4
 1351 0146 EAD1     		bne	.L92
 1352 0148 0025     		mov	r5, #0
 1353              	.LVL220:
 1354 014a 0126     		mov	r6, #1
 1355              	.LVL221:
 1356 014c 0023     		mov	r3, #0
 1357 014e 9846     		mov	r8, r3
 1358 0150 12E0     		b	.L93
 1359              	.LVL222:
 1360              	.L96:
 698:.\main.c      ****     }    
 699:.\main.c      ****     //–ü—Ä–∏–µ–º–∞—Ç —Å–µ 12 –±–∏—Ç–∞ –∑–∞ —Å–∫–æ—Ä–æ—Å—Ç –Ω–∞ –≤—è—Ç—ä—Ä–∞. –ü—ä—Ä–≤–æ –µ –Ω–∞–π-—
 700:.\main.c      ****     //–°—Ç–∞—Ä—à–∏—Ç–µ 3 –±–∏—Ç–∞ —Å–∞ –≤–∏–Ω–∞–≥–∏ 0. –ü—Ä–∏–µ—Ç–∞—Ç–∞ —Å—Ç–æ–π–Ω–æ—Å—Ç –µ –≤ 0.1 
 701:.\main.c      ****     mask16=1;
 702:.\main.c      ****     speed2=0;
 703:.\main.c      ****     for(n=0; n!=12 ; n++)
 704:.\main.c      ****     {
 705:.\main.c      ****         if(PinWindRX_Read()==1)   speed2 |= mask16;
 1361              		.loc 1 705 0 is_stmt 1
 1362 0152 FFF7FEFF 		bl	PinWindRX_Read
 1363              	.LVL223:
 1364 0156 0128     		cmp	r0, #1
 1365 0158 02D1     		bne	.L94
 1366              		.loc 1 705 0 is_stmt 0 discriminator 1
 1367 015a 4346     		mov	r3, r8
 1368 015c 3343     		orr	r3, r6
 1369 015e 9846     		mov	r8, r3
ARM GAS  C:\Users\Svilen\AppData\Local\Temp\ccuaxGpF.s 			page 38


 1370              	.LVL224:
 1371              	.L94:
 706:.\main.c      ****         mask16=mask16<<1;
 1372              		.loc 1 706 0 is_stmt 1
 1373 0160 7600     		lsl	r6, r6, #1
 1374              	.LVL225:
 1375 0162 B6B2     		uxth	r6, r6
 1376              	.LVL226:
 707:.\main.c      ****         SetTimeout(1200); // 1.22 ms
 1377              		.loc 1 707 0
 1378 0164 9620     		mov	r0, #150
 1379 0166 C000     		lsl	r0, r0, #3
 1380 0168 FFF7FEFF 		bl	SetTimeout
 1381              	.LVL227:
 1382              	.L95:
 708:.\main.c      ****         while(timeoutFlag==0);        
 1383              		.loc 1 708 0 discriminator 1
 1384 016c 1B4B     		ldr	r3, .L100+4
 1385 016e 1B78     		ldrb	r3, [r3]
 1386 0170 002B     		cmp	r3, #0
 1387 0172 FBD0     		beq	.L95
 703:.\main.c      ****     {
 1388              		.loc 1 703 0 discriminator 2
 1389 0174 0135     		add	r5, r5, #1
 1390              	.LVL228:
 1391 0176 EDB2     		uxtb	r5, r5
 1392              	.LVL229:
 1393              	.L93:
 703:.\main.c      ****     {
 1394              		.loc 1 703 0 is_stmt 0 discriminator 1
 1395 0178 0C2D     		cmp	r5, #12
 1396 017a EAD1     		bne	.L96
 709:.\main.c      ****     }
 710:.\main.c      ****     
 711:.\main.c      ****     //CyGlobalIntDisable;
 712:.\main.c      ****     PinWindCE_Write(1);
 1397              		.loc 1 712 0 is_stmt 1
 1398 017c 0120     		mov	r0, #1
 1399 017e FFF7FEFF 		bl	PinWindCE_Write
 1400              	.LVL230:
 713:.\main.c      ****     windDirection = dir1;
 1401              		.loc 1 713 0
 1402 0182 174B     		ldr	r3, .L100+8
 1403 0184 4A46     		mov	r2, r9
 1404 0186 1A80     		strh	r2, [r3]
 714:.\main.c      ****     windSpeed = speed1;    
 1405              		.loc 1 714 0
 1406 0188 164B     		ldr	r3, .L100+12
 1407 018a 1F80     		strh	r7, [r3]
 715:.\main.c      ****     //–í—Ä—ä—â–∞ —Å–µ —á–µ—Å—Ç–æ—Ç–∞—Ç–∞ –Ω–∞ 1kHZ
 716:.\main.c      ****     ClockTO_SetDivider(divFor1kHz);    
 1408              		.loc 1 716 0
 1409 018c 0198     		ldr	r0, [sp, #4]
 1410 018e 0021     		mov	r1, #0
 1411 0190 FFF7FEFF 		bl	ClockTO_SetFractionalDividerRegister
 1412              	.LVL231:
 717:.\main.c      ****     //–ü—Ä–æ–≤–µ—Ä–∫–∏    
ARM GAS  C:\Users\Svilen\AppData\Local\Temp\ccuaxGpF.s 			page 39


 718:.\main.c      ****     if((dir1!=dir2) || (speed1!=speed2)) return 3;
 1413              		.loc 1 718 0
 1414 0194 D945     		cmp	r9, fp
 1415 0196 13D1     		bne	.L98
 1416              		.loc 1 718 0 is_stmt 0 discriminator 2
 1417 0198 4745     		cmp	r7, r8
 1418 019a 13D1     		bne	.L99
 719:.\main.c      ****     chkSumCalc = dir1 + (speed1&0x0F) + ((speed1>>4)&0x0F) + ((speed1>>8)&0x0F);
 1419              		.loc 1 719 0 is_stmt 1
 1420 019c 0F22     		mov	r2, #15
 1421 019e 131C     		mov	r3, r2
 1422 01a0 3B40     		and	r3, r7
 1423 01a2 4B44     		add	r3, r3, r9
 1424 01a4 191C     		mov	r1, r3
 1425 01a6 3B09     		lsr	r3, r7, #4
 1426 01a8 1340     		and	r3, r2
 1427 01aa CB18     		add	r3, r1, r3
 1428 01ac 3F0A     		lsr	r7, r7, #8
 1429              	.LVL232:
 1430 01ae 1740     		and	r7, r2
 1431 01b0 DB19     		add	r3, r3, r7
 1432              	.LVL233:
 720:.\main.c      ****     chkSumCalc &= 0x0F;
 1433              		.loc 1 720 0
 1434 01b2 1340     		and	r3, r2
 1435              	.LVL234:
 721:.\main.c      ****     if(chkSum!=chkSumCalc) return 4;
 1436              		.loc 1 721 0
 1437 01b4 9A45     		cmp	r10, r3
 1438 01b6 06D0     		beq	.L70
 1439 01b8 0424     		mov	r4, #4
 1440 01ba 04E0     		b	.L70
 1441              	.LVL235:
 1442              	.L97:
 626:.\main.c      ****     //–ü—Ä–∏ –ª–∏–ø—Å–∞ –Ω–∞ —Ç–∞–π–º–∞—É—Ç –¥–∞ —Å–µ –∏–∑–ª–∏–∑–∞ —Å –≥—Ä–µ—à–∫–∞ –∑–∞ –≤—Ä—ä–∑–∫–
 1443              		.loc 1 626 0
 1444 01bc 0224     		mov	r4, #2
 1445 01be 02E0     		b	.L70
 1446              	.LVL236:
 1447              	.L98:
 718:.\main.c      ****     chkSumCalc = dir1 + (speed1&0x0F) + ((speed1>>4)&0x0F) + ((speed1>>8)&0x0F);
 1448              		.loc 1 718 0
 1449 01c0 0324     		mov	r4, #3
 1450 01c2 00E0     		b	.L70
 1451              	.L99:
 1452 01c4 0324     		mov	r4, #3
 1453              	.LVL237:
 1454              	.L70:
 722:.\main.c      ****     
 723:.\main.c      ****     return 0;
 724:.\main.c      **** }
 1455              		.loc 1 724 0
 1456 01c6 201C     		mov	r0, r4
 1457 01c8 03B0     		add	sp, sp, #12
 1458              		@ sp needed
 1459 01ca 3CBC     		pop	{r2, r3, r4, r5}
 1460 01cc 9046     		mov	r8, r2
ARM GAS  C:\Users\Svilen\AppData\Local\Temp\ccuaxGpF.s 			page 40


 1461 01ce 9946     		mov	r9, r3
 1462 01d0 A246     		mov	r10, r4
 1463 01d2 AB46     		mov	fp, r5
 1464 01d4 F0BD     		pop	{r4, r5, r6, r7, pc}
 1465              	.L101:
 1466 01d6 C046     		.align	2
 1467              	.L100:
 1468 01d8 581B0000 		.word	7000
 1469 01dc 00000000 		.word	timeoutFlag
 1470 01e0 00000000 		.word	windDirection
 1471 01e4 00000000 		.word	windSpeed
 1472              		.cfi_endproc
 1473              	.LFE47:
 1474              		.size	TX20_Read, .-TX20_Read
 1475              		.global	__aeabi_i2d
 1476              		.global	__aeabi_dmul
 1477              		.global	__aeabi_d2uiz
 1478              		.global	__aeabi_uidivmod
 1479              		.section	.text.main,"ax",%progbits
 1480              		.align	2
 1481              		.global	main
 1482              		.code	16
 1483              		.thumb_func
 1484              		.type	main, %function
 1485              	main:
 1486              	.LFB36:
  72:.\main.c      ****     char rxbuf[64];
 1487              		.loc 1 72 0
 1488              		.cfi_startproc
 1489 0000 30B5     		push	{r4, r5, lr}
 1490              		.cfi_def_cfa_offset 12
 1491              		.cfi_offset 4, -12
 1492              		.cfi_offset 5, -8
 1493              		.cfi_offset 14, -4
 1494 0002 E9B0     		sub	sp, sp, #420
 1495              		.cfi_def_cfa_offset 432
  85:.\main.c      ****     ADC_Start();
 1496              		.loc 1 85 0
 1497              	@ 85 ".\main.c" 1
 1498 0004 62B6     		CPSIE   i
 1499              	@ 0 "" 2
  86:.\main.c      ****     ADC_IRQ_Disable();
 1500              		.loc 1 86 0
 1501              		.code	16
 1502 0006 FFF7FEFF 		bl	ADC_Start
 1503              	.LVL238:
  87:.\main.c      ****     I2C_Start();
 1504              		.loc 1 87 0
 1505 000a FFF7FEFF 		bl	ADC_IRQ_Disable
 1506              	.LVL239:
  88:.\main.c      ****     UART_Start();
 1507              		.loc 1 88 0
 1508 000e FFF7FEFF 		bl	I2C_Start
 1509              	.LVL240:
  89:.\main.c      ****     UART_ClearRxBuffer();
 1510              		.loc 1 89 0
 1511 0012 FFF7FEFF 		bl	UART_Start
ARM GAS  C:\Users\Svilen\AppData\Local\Temp\ccuaxGpF.s 			page 41


 1512              	.LVL241:
  90:.\main.c      ****     Timeout_Start();
 1513              		.loc 1 90 0
 1514 0016 FFF7FEFF 		bl	UART_ClearRxBuffer
 1515              	.LVL242:
  91:.\main.c      ****     isr_Timeout_StartEx(TimeoutISR);
 1516              		.loc 1 91 0
 1517 001a FFF7FEFF 		bl	Timeout_Start
 1518              	.LVL243:
  92:.\main.c      ****     isr_Rain_StartEx(RainISR);
 1519              		.loc 1 92 0
 1520 001e EA48     		ldr	r0, .L131
 1521 0020 FFF7FEFF 		bl	isr_Timeout_StartEx
 1522              	.LVL244:
  93:.\main.c      ****     PinWindCE_Write(1);
 1523              		.loc 1 93 0
 1524 0024 E948     		ldr	r0, .L131+4
 1525 0026 FFF7FEFF 		bl	isr_Rain_StartEx
 1526              	.LVL245:
  94:.\main.c      ****     timeoutFlag=0;
 1527              		.loc 1 94 0
 1528 002a 0120     		mov	r0, #1
 1529 002c FFF7FEFF 		bl	PinWindCE_Write
 1530              	.LVL246:
  95:.\main.c      ****     LED_B_Write(1);
 1531              		.loc 1 95 0
 1532 0030 0024     		mov	r4, #0
 1533 0032 E74B     		ldr	r3, .L131+8
 1534 0034 1C70     		strb	r4, [r3]
  96:.\main.c      ****     LED_R_Write(0);
 1535              		.loc 1 96 0
 1536 0036 0120     		mov	r0, #1
 1537 0038 FFF7FEFF 		bl	LED_B_Write
 1538              	.LVL247:
  97:.\main.c      ****     LED_G_Write(1);
 1539              		.loc 1 97 0
 1540 003c 0020     		mov	r0, #0
 1541 003e FFF7FEFF 		bl	LED_R_Write
 1542              	.LVL248:
  98:.\main.c      ****     CyDelay(3000);
 1543              		.loc 1 98 0
 1544 0042 0120     		mov	r0, #1
 1545 0044 FFF7FEFF 		bl	LED_G_Write
 1546              	.LVL249:
  99:.\main.c      ****     
 1547              		.loc 1 99 0
 1548 0048 E248     		ldr	r0, .L131+12
 1549 004a FFF7FEFF 		bl	CyDelay
 1550              	.LVL250:
 101:.\main.c      ****     rainCounter=0;
 1551              		.loc 1 101 0
 1552 004e 09A8     		add	r0, sp, #36
 1553 0050 0021     		mov	r1, #0
 1554 0052 F022     		mov	r2, #240
 1555 0054 FFF7FEFF 		bl	memset
 1556              	.LVL251:
 102:.\main.c      ****        
ARM GAS  C:\Users\Svilen\AppData\Local\Temp\ccuaxGpF.s 			page 42


 1557              		.loc 1 102 0
 1558 0058 DF4B     		ldr	r3, .L131+16
 1559 005a 1C60     		str	r4, [r3]
 108:.\main.c      ****     long temp, pressure;
 1560              		.loc 1 108 0
 1561 005c FFF7FEFF 		bl	BMP180_ReadCalibrationCoefs
 1562              	.LVL252:
 1563              	.L103:
 139:.\main.c      ****             UART_PutString("ATE0\r\n"); //–≤–º–µ—Å—Ç–æ –ê–¢ –∫–æ–º–∞–Ω–¥–∞ —Å–ø–∏—Ä–∞–º –µ—Ö–æ—Ç–æ
 1564              		.loc 1 139 0
 1565 0060 FFF7FEFF 		bl	UART_ClearRxBuffer
 1566              	.LVL253:
 140:.\main.c      ****             UartReadLine(rxbuf,READ_LINE_TIMEOUT);            
 1567              		.loc 1 140 0
 1568 0064 DD48     		ldr	r0, .L131+20
 1569 0066 FFF7FEFF 		bl	UART_PutString
 1570              	.LVL254:
 141:.\main.c      ****             UartReadLine(rxbuf,READ_LINE_TIMEOUT);//OK,2
 1571              		.loc 1 141 0
 1572 006a FA24     		mov	r4, #250
 1573 006c A400     		lsl	r4, r4, #2
 1574 006e 58A8     		add	r0, sp, #352
 1575 0070 211C     		mov	r1, r4
 1576 0072 FFF7FEFF 		bl	UartReadLine
 1577              	.LVL255:
 142:.\main.c      ****             if(strcmp(rxbuf, "OK")==0)
 1578              		.loc 1 142 0
 1579 0076 58A8     		add	r0, sp, #352
 1580 0078 211C     		mov	r1, r4
 1581 007a FFF7FEFF 		bl	UartReadLine
 1582              	.LVL256:
 143:.\main.c      ****             {
 1583              		.loc 1 143 0
 1584 007e 58A8     		add	r0, sp, #352
 1585 0080 D749     		ldr	r1, .L131+24
 1586 0082 FFF7FEFF 		bl	strcmp
 1587              	.LVL257:
 1588 0086 0028     		cmp	r0, #0
 1589 0088 04D1     		bne	.L105
 145:.\main.c      ****                 break;
 1590              		.loc 1 145 0
 1591 008a 0130     		add	r0, r0, #1
 1592 008c FFF7FEFF 		bl	LED_R_Write
 1593              	.LVL258:
 161:.\main.c      ****         while(1)
 1594              		.loc 1 161 0
 1595 0090 0524     		mov	r4, #5
 1596 0092 15E0     		b	.L106
 1597              	.LVL259:
 1598              	.L105:
 148:.\main.c      ****             CyDelay(250);
 1599              		.loc 1 148 0
 1600 0094 0020     		mov	r0, #0
 1601 0096 FFF7FEFF 		bl	LED_R_Write
 1602              	.LVL260:
 149:.\main.c      ****             LED_R_Write(1);
 1603              		.loc 1 149 0
ARM GAS  C:\Users\Svilen\AppData\Local\Temp\ccuaxGpF.s 			page 43


 1604 009a FA20     		mov	r0, #250
 1605 009c FFF7FEFF 		bl	CyDelay
 1606              	.LVL261:
 150:.\main.c      ****             CyDelay(250);
 1607              		.loc 1 150 0
 1608 00a0 0120     		mov	r0, #1
 1609 00a2 FFF7FEFF 		bl	LED_R_Write
 1610              	.LVL262:
 151:.\main.c      ****             LED_R_Write(0);
 1611              		.loc 1 151 0
 1612 00a6 FA20     		mov	r0, #250
 1613 00a8 FFF7FEFF 		bl	CyDelay
 1614              	.LVL263:
 152:.\main.c      ****             CyDelay(250);
 1615              		.loc 1 152 0
 1616 00ac 0020     		mov	r0, #0
 1617 00ae FFF7FEFF 		bl	LED_R_Write
 1618              	.LVL264:
 153:.\main.c      ****             LED_R_Write(1);
 1619              		.loc 1 153 0
 1620 00b2 FA20     		mov	r0, #250
 1621 00b4 FFF7FEFF 		bl	CyDelay
 1622              	.LVL265:
 154:.\main.c      ****         }
 1623              		.loc 1 154 0
 1624 00b8 0120     		mov	r0, #1
 1625 00ba FFF7FEFF 		bl	LED_R_Write
 1626              	.LVL266:
 155:.\main.c      ****         
 1627              		.loc 1 155 0
 1628 00be CFE7     		b	.L103
 1629              	.L106:
 1630              	.LVL267:
 164:.\main.c      ****             UART_PutString("AT+CWJAP?\r\n");
 1631              		.loc 1 164 0
 1632 00c0 FFF7FEFF 		bl	UART_ClearRxBuffer
 1633              	.LVL268:
 165:.\main.c      ****             UartReadLine(rxbuf,READ_LINE_TIMEOUT);//+CWJAP:"Etherino","20:55:.........",11,-29     
 1634              		.loc 1 165 0
 1635 00c4 C748     		ldr	r0, .L131+28
 1636 00c6 FFF7FEFF 		bl	UART_PutString
 1637              	.LVL269:
 166:.\main.c      ****             if(strncmp(rxbuf, "+CWJAP:\"Etherino\"",17)==0)
 1638              		.loc 1 166 0
 1639 00ca 58A8     		add	r0, sp, #352
 1640 00cc FA21     		mov	r1, #250
 1641 00ce 8900     		lsl	r1, r1, #2
 1642 00d0 FFF7FEFF 		bl	UartReadLine
 1643              	.LVL270:
 167:.\main.c      ****             {
 1644              		.loc 1 167 0
 1645 00d4 58A8     		add	r0, sp, #352
 1646 00d6 C449     		ldr	r1, .L131+32
 1647 00d8 1122     		mov	r2, #17
 1648 00da FFF7FEFF 		bl	strncmp
 1649              	.LVL271:
 1650 00de 0028     		cmp	r0, #0
ARM GAS  C:\Users\Svilen\AppData\Local\Temp\ccuaxGpF.s 			page 44


 1651 00e0 20D1     		bne	.L107
 169:.\main.c      ****                 CyDelay(500);
 1652              		.loc 1 169 0
 1653 00e2 0130     		add	r0, r0, #1
 1654 00e4 FFF7FEFF 		bl	LED_R_Write
 1655              	.LVL272:
 170:.\main.c      ****                 break;
 1656              		.loc 1 170 0
 1657 00e8 FA20     		mov	r0, #250
 1658 00ea 4000     		lsl	r0, r0, #1
 1659 00ec FFF7FEFF 		bl	CyDelay
 1660              	.LVL273:
 183:.\main.c      ****         UART_ClearRxBuffer();
 1661              		.loc 1 183 0
 1662 00f0 0020     		mov	r0, #0
 1663 00f2 FFF7FEFF 		bl	LED_G_Write
 1664              	.LVL274:
 184:.\main.c      ****         UART_PutString("AT+CIFSR\r\n");
 1665              		.loc 1 184 0
 1666 00f6 FFF7FEFF 		bl	UART_ClearRxBuffer
 1667              	.LVL275:
 185:.\main.c      ****         UartReadLine(rxbuf,READ_LINE_TIMEOUT);
 1668              		.loc 1 185 0
 1669 00fa BC48     		ldr	r0, .L131+36
 1670 00fc FFF7FEFF 		bl	UART_PutString
 1671              	.LVL276:
 186:.\main.c      ****         UartReadLine(rxbuf,READ_LINE_TIMEOUT);
 1672              		.loc 1 186 0
 1673 0100 FA24     		mov	r4, #250
 1674              	.LVL277:
 1675 0102 A400     		lsl	r4, r4, #2
 1676 0104 58A8     		add	r0, sp, #352
 1677 0106 211C     		mov	r1, r4
 1678 0108 FFF7FEFF 		bl	UartReadLine
 1679              	.LVL278:
 187:.\main.c      ****         if(strncmp(rxbuf,"+CIFSR:STAMAC",13)==0)
 1680              		.loc 1 187 0
 1681 010c 58A8     		add	r0, sp, #352
 1682 010e 211C     		mov	r1, r4
 1683 0110 FFF7FEFF 		bl	UartReadLine
 1684              	.LVL279:
 188:.\main.c      ****         {
 1685              		.loc 1 188 0
 1686 0114 58A8     		add	r0, sp, #352
 1687 0116 B649     		ldr	r1, .L131+40
 1688 0118 0D22     		mov	r2, #13
 1689 011a FFF7FEFF 		bl	strncmp
 1690              	.LVL280:
 1691 011e 0028     		cmp	r0, #0
 1692 0120 1CD1     		bne	.L129
 1693 0122 12E0     		b	.L108
 1694              	.LVL281:
 1695              	.L107:
 173:.\main.c      ****             CyDelay(500);
 1696              		.loc 1 173 0
 1697 0124 0020     		mov	r0, #0
 1698 0126 FFF7FEFF 		bl	LED_R_Write
ARM GAS  C:\Users\Svilen\AppData\Local\Temp\ccuaxGpF.s 			page 45


 1699              	.LVL282:
 174:.\main.c      ****             LED_R_Write(1);
 1700              		.loc 1 174 0
 1701 012a FA25     		mov	r5, #250
 1702 012c 6D00     		lsl	r5, r5, #1
 1703 012e 281C     		mov	r0, r5
 1704 0130 FFF7FEFF 		bl	CyDelay
 1705              	.LVL283:
 175:.\main.c      ****             CyDelay(500);
 1706              		.loc 1 175 0
 1707 0134 0120     		mov	r0, #1
 1708 0136 FFF7FEFF 		bl	LED_R_Write
 1709              	.LVL284:
 176:.\main.c      ****             retry--;
 1710              		.loc 1 176 0
 1711 013a 281C     		mov	r0, r5
 1712 013c FFF7FEFF 		bl	CyDelay
 1713              	.LVL285:
 177:.\main.c      ****             if(retry==0) goto CheckAT;
 1714              		.loc 1 177 0
 1715 0140 013C     		sub	r4, r4, #1
 1716              	.LVL286:
 1717 0142 E4B2     		uxtb	r4, r4
 1718              	.LVL287:
 178:.\main.c      ****         }
 1719              		.loc 1 178 0
 1720 0144 002C     		cmp	r4, #0
 1721 0146 BBD1     		bne	.L106
 1722 0148 8AE7     		b	.L103
 1723              	.LVL288:
 1724              	.L108:
 190:.\main.c      ****             macid[8]=0;
 1725              		.loc 1 190 0
 1726 014a 45AC     		add	r4, sp, #276
 1727 014c 201C     		mov	r0, r4
 1728 014e 5EA9     		add	r1, sp, #376
 1729 0150 0822     		mov	r2, #8
 1730 0152 FFF7FEFF 		bl	strncpy
 1731              	.LVL289:
 191:.\main.c      ****         }
 1732              		.loc 1 191 0
 1733 0156 0023     		mov	r3, #0
 1734 0158 2372     		strb	r3, [r4, #8]
 1735 015a 06E0     		b	.L111
 1736              	.L129:
 193:.\main.c      ****         
 1737              		.loc 1 193 0
 1738 015c 45AB     		add	r3, sp, #276
 1739 015e A54A     		ldr	r2, .L131+44
 1740 0160 03CA     		ldmia	r2!, {r0, r1}
 1741 0162 03C3     		stmia	r3!, {r0, r1}
 1742 0164 191C     		mov	r1, r3
 1743 0166 1378     		ldrb	r3, [r2]
 1744 0168 0B70     		strb	r3, [r1]
 1745              	.L111:
 197:.\main.c      ****             //–¢—É–∫ –æ—Ç–Ω–æ–≤–æ —Å–ø–∏—Ä–∞–º –µ—Ö–æ—Ç–æ —Ç.–∫. —Å–ª–µ–¥ DEEP SLEEP —Å–µ –∞–∫—Ç–∏–
 1746              		.loc 1 197 0
ARM GAS  C:\Users\Svilen\AppData\Local\Temp\ccuaxGpF.s 			page 46


 1747 016a A348     		ldr	r0, .L131+48
 1748 016c FFF7FEFF 		bl	CyDelay
 1749              	.LVL290:
 199:.\main.c      ****             UART_PutString("ATE0\r\n"); //–≤–º–µ—Å—Ç–æ –ê–¢ –∫–æ–º–∞–Ω–¥–∞ —Å–ø–∏—Ä–∞–º –µ—Ö–æ—Ç–æ
 1750              		.loc 1 199 0
 1751 0170 FFF7FEFF 		bl	UART_ClearRxBuffer
 1752              	.LVL291:
 200:.\main.c      ****             UartReadLine(rxbuf,READ_LINE_TIMEOUT);            
 1753              		.loc 1 200 0
 1754 0174 9948     		ldr	r0, .L131+20
 1755 0176 FFF7FEFF 		bl	UART_PutString
 1756              	.LVL292:
 201:.\main.c      ****             UartReadLine(rxbuf,READ_LINE_TIMEOUT);//OK,2
 1757              		.loc 1 201 0
 1758 017a FA24     		mov	r4, #250
 1759 017c A400     		lsl	r4, r4, #2
 1760 017e 58A8     		add	r0, sp, #352
 1761 0180 211C     		mov	r1, r4
 1762 0182 FFF7FEFF 		bl	UartReadLine
 1763              	.LVL293:
 202:.\main.c      ****             CyDelay(200);
 1764              		.loc 1 202 0
 1765 0186 58A8     		add	r0, sp, #352
 1766 0188 211C     		mov	r1, r4
 1767 018a FFF7FEFF 		bl	UartReadLine
 1768              	.LVL294:
 203:.\main.c      ****             //–û—Ç–≤–∞—Ä—è–Ω–µ –Ω–∞ TCP/UDP –∫–æ–Ω–µ–∫—Ü–∏—è
 1769              		.loc 1 203 0
 1770 018e C820     		mov	r0, #200
 1771 0190 FFF7FEFF 		bl	CyDelay
 1772              	.LVL295:
 205:.\main.c      **** EstablishConnection:            
 1773              		.loc 1 205 0
 1774 0194 0325     		mov	r5, #3
 1775              	.L113:
 1776              	.LVL296:
 1777              	.L112:
 207:.\main.c      ****             /* 
 1778              		.loc 1 207 0
 1779 0196 FFF7FEFF 		bl	UART_ClearRxBuffer
 1780              	.LVL297:
 214:.\main.c      ****             n=3;
 1781              		.loc 1 214 0
 1782 019a 9848     		ldr	r0, .L131+52
 1783 019c FFF7FEFF 		bl	UART_PutString
 1784              	.LVL298:
 216:.\main.c      ****             while(UartReadLine(rxbuf,ESTABLISH_CONN_TIMEOUT)==0)
 1785              		.loc 1 216 0
 1786 01a0 0120     		mov	r0, #1
 1787 01a2 FFF7FEFF 		bl	LED_G_Write
 1788              	.LVL299:
 215:.\main.c      ****             LED_G_Write(1);
 1789              		.loc 1 215 0
 1790 01a6 0324     		mov	r4, #3
 217:.\main.c      ****             {
 1791              		.loc 1 217 0
 1792 01a8 0CE0     		b	.L114
ARM GAS  C:\Users\Svilen\AppData\Local\Temp\ccuaxGpF.s 			page 47


 1793              	.LVL300:
 1794              	.L115:
 219:.\main.c      ****                 if(n==0)
 1795              		.loc 1 219 0
 1796 01aa 013C     		sub	r4, r4, #1
 1797              	.LVL301:
 220:.\main.c      ****                 {
 1798              		.loc 1 220 0
 1799 01ac 002C     		cmp	r4, #0
 1800 01ae 09D1     		bne	.L114
 222:.\main.c      ****                     LED_B_Write(1);
 1801              		.loc 1 222 0
 1802 01b0 0120     		mov	r0, #1
 1803 01b2 FFF7FEFF 		bl	LED_G_Write
 1804              	.LVL302:
 223:.\main.c      ****                     LED_R_Write(0);
 1805              		.loc 1 223 0
 1806 01b6 0120     		mov	r0, #1
 1807 01b8 FFF7FEFF 		bl	LED_B_Write
 1808              	.LVL303:
 224:.\main.c      ****                     goto CheckAT;
 1809              		.loc 1 224 0
 1810 01bc 0020     		mov	r0, #0
 1811 01be FFF7FEFF 		bl	LED_R_Write
 1812              	.LVL304:
 225:.\main.c      ****                 }
 1813              		.loc 1 225 0
 1814 01c2 4DE7     		b	.L103
 1815              	.LVL305:
 1816              	.L114:
 217:.\main.c      ****             {
 1817              		.loc 1 217 0
 1818 01c4 58A8     		add	r0, sp, #352
 1819 01c6 8349     		ldr	r1, .L131+12
 1820 01c8 FFF7FEFF 		bl	UartReadLine
 1821              	.LVL306:
 1822 01cc 0028     		cmp	r0, #0
 1823 01ce ECD0     		beq	.L115
 231:.\main.c      ****             {
 1824              		.loc 1 231 0
 1825 01d0 58A8     		add	r0, sp, #352
 1826 01d2 8B49     		ldr	r1, .L131+56
 1827 01d4 0722     		mov	r2, #7
 1828 01d6 FFF7FEFF 		bl	strncmp
 1829              	.LVL307:
 1830 01da 0028     		cmp	r0, #0
 1831 01dc 00D0     		beq	.LCB1844
 1832 01de 35E1     		b	.L116	@long jump
 1833              	.LCB1844:
 233:.\main.c      ****                 UartReadLine(rxbuf,READ_LINE_TIMEOUT); //–û–ö
 1834              		.loc 1 233 0
 1835 01e0 FA24     		mov	r4, #250
 1836              	.LVL308:
 1837 01e2 A400     		lsl	r4, r4, #2
 1838 01e4 58A8     		add	r0, sp, #352
 1839 01e6 211C     		mov	r1, r4
 1840 01e8 FFF7FEFF 		bl	UartReadLine
ARM GAS  C:\Users\Svilen\AppData\Local\Temp\ccuaxGpF.s 			page 48


 1841              	.LVL309:
 234:.\main.c      ****                 LED_G_Write(1); //–ü–æ –≤—Ä–µ–º–µ –Ω–∞ –æ–±–º–µ–Ω —Å–≤–µ—Ç–∏ —Å–∏–Ω LED
 1842              		.loc 1 234 0
 1843 01ec 58A8     		add	r0, sp, #352
 1844 01ee 211C     		mov	r1, r4
 1845 01f0 FFF7FEFF 		bl	UartReadLine
 1846              	.LVL310:
 235:.\main.c      ****                 LED_R_Write(1);
 1847              		.loc 1 235 0
 1848 01f4 0120     		mov	r0, #1
 1849 01f6 FFF7FEFF 		bl	LED_G_Write
 1850              	.LVL311:
 236:.\main.c      ****                 LED_B_Write(0);
 1851              		.loc 1 236 0
 1852 01fa 0120     		mov	r0, #1
 1853 01fc FFF7FEFF 		bl	LED_R_Write
 1854              	.LVL312:
 237:.\main.c      ****                 //–ò–ó–ü–†–ê–©–ê–ù–ï –ù–ê –î–ê–ù–ù–ò –ö–™–ú –ö–û–ù–¶–ï–ù–¢–†–ê–¢–û–†–ê
 1855              		.loc 1 237 0
 1856 0200 0020     		mov	r0, #0
 1857 0202 FFF7FEFF 		bl	LED_B_Write
 1858              	.LVL313:
 239:.\main.c      ****                 //BMP180
 1859              		.loc 1 239 0
 1860 0206 09A8     		add	r0, sp, #36
 1861 0208 7E49     		ldr	r1, .L131+60
 1862 020a 45AA     		add	r2, sp, #276
 1863 020c FFF7FEFF 		bl	sprintf
 1864              	.LVL314:
 242:.\main.c      ****                 pressure = BMP180_ReadPresure(temp,3);
 1865              		.loc 1 242 0
 1866 0210 FFF7FEFF 		bl	BMP180_ReadTemperature
 1867              	.LVL315:
 1868 0214 041C     		mov	r4, r0
 1869              	.LVL316:
 243:.\main.c      ****                 sprintf(str,"BMP180: T=%2.0ld P=%4.0ldhPa\r\n", temp/10, pressure/100);            
 1870              		.loc 1 243 0
 1871 0216 0321     		mov	r1, #3
 1872 0218 FFF7FEFF 		bl	BMP180_ReadPresure
 1873              	.LVL317:
 1874 021c 051C     		mov	r5, r0
 1875              	.LVL318:
 244:.\main.c      ****                 strcat(txbuf,str);                
 1876              		.loc 1 244 0
 1877 021e 201C     		mov	r0, r4
 1878              	.LVL319:
 1879 0220 0A21     		mov	r1, #10
 1880 0222 FFF7FEFF 		bl	__aeabi_idiv
 1881              	.LVL320:
 1882 0226 041C     		mov	r4, r0
 1883              	.LVL321:
 1884 0228 281C     		mov	r0, r5
 1885 022a 6421     		mov	r1, #100
 1886 022c FFF7FEFF 		bl	__aeabi_idiv
 1887              	.LVL322:
 1888 0230 031C     		mov	r3, r0
 1889 0232 01A8     		add	r0, sp, #4
ARM GAS  C:\Users\Svilen\AppData\Local\Temp\ccuaxGpF.s 			page 49


 1890 0234 7449     		ldr	r1, .L131+64
 1891 0236 221C     		mov	r2, r4
 1892 0238 FFF7FEFF 		bl	sprintf
 1893              	.LVL323:
 245:.\main.c      **** #endif                
 1894              		.loc 1 245 0
 1895 023c 09A8     		add	r0, sp, #36
 1896 023e 01A9     		add	r1, sp, #4
 1897 0240 FFF7FEFF 		bl	strcat
 1898              	.LVL324:
 248:.\main.c      ****                 if(result!=0)
 1899              		.loc 1 248 0
 1900 0244 FFF7FEFF 		bl	AM2302_Read
 1901              	.LVL325:
 249:.\main.c      ****                 {
 1902              		.loc 1 249 0
 1903 0248 0028     		cmp	r0, #0
 1904 024a 04D0     		beq	.L117
 251:.\main.c      ****                     AM2302_Humidity = -1000;
 1905              		.loc 1 251 0
 1906 024c 6F4B     		ldr	r3, .L131+68
 1907 024e 704A     		ldr	r2, .L131+72
 1908 0250 1380     		strh	r3, [r2]
 252:.\main.c      ****                 }
 1909              		.loc 1 252 0
 1910 0252 704A     		ldr	r2, .L131+76
 1911 0254 1380     		strh	r3, [r2]
 1912              	.L117:
 254:.\main.c      ****                 strcat(txbuf, str);                
 1913              		.loc 1 254 0
 1914 0256 6E4B     		ldr	r3, .L131+72
 1915 0258 0020     		mov	r0, #0
 1916 025a 185E     		ldrsh	r0, [r3, r0]
 1917              	.LVL326:
 1918 025c 0A21     		mov	r1, #10
 1919 025e FFF7FEFF 		bl	__aeabi_idiv
 1920              	.LVL327:
 1921 0262 04B2     		sxth	r4, r0
 1922 0264 6B4B     		ldr	r3, .L131+76
 1923 0266 0020     		mov	r0, #0
 1924 0268 185E     		ldrsh	r0, [r3, r0]
 1925 026a 0A21     		mov	r1, #10
 1926 026c FFF7FEFF 		bl	__aeabi_idiv
 1927              	.LVL328:
 1928 0270 03B2     		sxth	r3, r0
 1929 0272 01A8     		add	r0, sp, #4
 1930 0274 6849     		ldr	r1, .L131+80
 1931 0276 221C     		mov	r2, r4
 1932 0278 FFF7FEFF 		bl	sprintf
 1933              	.LVL329:
 255:.\main.c      ****                 //TX20 - –≤—è—Ç—ä—Ä
 1934              		.loc 1 255 0
 1935 027c 09A8     		add	r0, sp, #36
 1936 027e 01A9     		add	r1, sp, #4
 1937 0280 FFF7FEFF 		bl	strcat
 1938              	.LVL330:
 258:.\main.c      ****                 if(result==0)  sprintf(str,"TX20: Dir=%d Speed=%d\r\n", windDirection, windSpeed);
ARM GAS  C:\Users\Svilen\AppData\Local\Temp\ccuaxGpF.s 			page 50


 1939              		.loc 1 258 0
 1940 0284 FFF7FEFF 		bl	TX20_Read
 1941              	.LVL331:
 259:.\main.c      ****                 else strcpy(str,"TX20: Dir=ERR Speed=ERR\r\n");
 1942              		.loc 1 259 0
 1943 0288 0028     		cmp	r0, #0
 1944 028a 08D1     		bne	.L118
 259:.\main.c      ****                 else strcpy(str,"TX20: Dir=ERR Speed=ERR\r\n");
 1945              		.loc 1 259 0 is_stmt 0 discriminator 1
 1946 028c 634B     		ldr	r3, .L131+84
 1947 028e 1A88     		ldrh	r2, [r3]
 1948 0290 634B     		ldr	r3, .L131+88
 1949 0292 1B88     		ldrh	r3, [r3]
 1950 0294 01A8     		add	r0, sp, #4
 1951              	.LVL332:
 1952 0296 6349     		ldr	r1, .L131+92
 1953 0298 FFF7FEFF 		bl	sprintf
 1954              	.LVL333:
 1955 029c 09E0     		b	.L119
 1956              	.LVL334:
 1957              	.L118:
 260:.\main.c      ****                 strcat(txbuf, str);                
 1958              		.loc 1 260 0 is_stmt 1
 1959 029e 01A9     		add	r1, sp, #4
 1960 02a0 6148     		ldr	r0, .L131+96
 1961              	.LVL335:
 1962 02a2 0B1C     		mov	r3, r1
 1963 02a4 021C     		mov	r2, r0
 1964 02a6 13CA     		ldmia	r2!, {r0, r1, r4}
 1965 02a8 13C3     		stmia	r3!, {r0, r1, r4}
 1966 02aa 13CA     		ldmia	r2!, {r0, r1, r4}
 1967 02ac 13C3     		stmia	r3!, {r0, r1, r4}
 1968 02ae 1288     		ldrh	r2, [r2]
 1969 02b0 1A80     		strh	r2, [r3]
 1970              	.L119:
 261:.\main.c      **** #endif                
 1971              		.loc 1 261 0
 1972 02b2 09A8     		add	r0, sp, #36
 1973 02b4 01A9     		add	r1, sp, #4
 1974 02b6 FFF7FEFF 		bl	strcat
 1975              	.LVL336:
 265:.\main.c      ****                 strcat(txbuf, str);
 1976              		.loc 1 265 0
 1977 02ba 474C     		ldr	r4, .L131+16
 1978 02bc 01A8     		add	r0, sp, #4
 1979 02be 5B49     		ldr	r1, .L131+100
 1980 02c0 2268     		ldr	r2, [r4]
 1981 02c2 FFF7FEFF 		bl	sprintf
 1982              	.LVL337:
 266:.\main.c      ****                 rainCounter=0;
 1983              		.loc 1 266 0
 1984 02c6 09A8     		add	r0, sp, #36
 1985 02c8 01A9     		add	r1, sp, #4
 1986 02ca FFF7FEFF 		bl	strcat
 1987              	.LVL338:
 267:.\main.c      **** #endif                
 1988              		.loc 1 267 0
ARM GAS  C:\Users\Svilen\AppData\Local\Temp\ccuaxGpF.s 			page 51


 1989 02ce 0023     		mov	r3, #0
 1990 02d0 2360     		str	r3, [r4]
 271:.\main.c      ****                 ADC_IsEndConversion(ADC_WAIT_FOR_RESULT);
 1991              		.loc 1 271 0
 1992 02d2 FFF7FEFF 		bl	ADC_StartConvert
 1993              	.LVL339:
 272:.\main.c      ****                 adc = ADC_GetResult16(CHN_ADC_UBAT );
 1994              		.loc 1 272 0
 1995 02d6 0220     		mov	r0, #2
 1996 02d8 FFF7FEFF 		bl	ADC_IsEndConversion
 1997              	.LVL340:
 273:.\main.c      ****                 mVolts = ADC_CountsTo_mVolts(CHN_ADC_UBAT, adc);
 1998              		.loc 1 273 0
 1999 02dc 0020     		mov	r0, #0
 2000 02de FFF7FEFF 		bl	ADC_GetResult16
 2001              	.LVL341:
 2002 02e2 011C     		mov	r1, r0
 2003              	.LVL342:
 274:.\main.c      ****                 uBat = mVolts * 16.0;
 2004              		.loc 1 274 0
 2005 02e4 0020     		mov	r0, #0
 2006 02e6 FFF7FEFF 		bl	ADC_CountsTo_mVolts
 2007              	.LVL343:
 275:.\main.c      ****                 sprintf(str,"Ubat: %d.%d V\r\n", uBat/1000, uBat%1000);                
 2008              		.loc 1 275 0
 2009 02ea FFF7FEFF 		bl	__aeabi_i2d
 2010              	.LVL344:
 2011 02ee 0022     		mov	r2, #0
 2012 02f0 4F4B     		ldr	r3, .L131+104
 2013 02f2 FFF7FEFF 		bl	__aeabi_dmul
 2014              	.LVL345:
 2015 02f6 FFF7FEFF 		bl	__aeabi_d2uiz
 2016              	.LVL346:
 2017 02fa 84B2     		uxth	r4, r0
 2018              	.LVL347:
 276:.\main.c      ****                 strcat(txbuf,str);                
 2019              		.loc 1 276 0
 2020 02fc 201C     		mov	r0, r4
 2021 02fe FA21     		mov	r1, #250
 2022 0300 8900     		lsl	r1, r1, #2
 2023 0302 FFF7FEFF 		bl	__aeabi_uidiv
 2024              	.LVL348:
 2025 0306 85B2     		uxth	r5, r0
 2026              	.LVL349:
 2027 0308 201C     		mov	r0, r4
 2028 030a FA21     		mov	r1, #250
 2029 030c 8900     		lsl	r1, r1, #2
 2030 030e FFF7FEFF 		bl	__aeabi_uidivmod
 2031              	.LVL350:
 2032 0312 8BB2     		uxth	r3, r1
 2033 0314 01A8     		add	r0, sp, #4
 2034 0316 4749     		ldr	r1, .L131+108
 2035 0318 2A1C     		mov	r2, r5
 2036 031a FFF7FEFF 		bl	sprintf
 2037              	.LVL351:
 277:.\main.c      **** #endif                
 2038              		.loc 1 277 0
ARM GAS  C:\Users\Svilen\AppData\Local\Temp\ccuaxGpF.s 			page 52


 2039 031e 09A8     		add	r0, sp, #36
 2040 0320 01A9     		add	r1, sp, #4
 2041 0322 FFF7FEFF 		bl	strcat
 2042              	.LVL352:
 280:.\main.c      ****                 UART_ClearRxBuffer();
 2043              		.loc 1 280 0
 2044 0326 09A8     		add	r0, sp, #36
 2045 0328 FFF7FEFF 		bl	strlen
 2046              	.LVL353:
 2047 032c 09AB     		add	r3, sp, #36
 2048 032e 9C46     		mov	ip, r3
 2049 0330 6044     		add	r0, r0, ip
 2050 0332 4149     		ldr	r1, .L131+112
 2051 0334 0622     		mov	r2, #6
 2052 0336 FFF7FEFF 		bl	memcpy
 2053              	.LVL354:
 281:.\main.c      ****                 sprintf(line,"AT+CIPSEND=%d\r\n",strlen(txbuf));
 2054              		.loc 1 281 0
 2055 033a FFF7FEFF 		bl	UART_ClearRxBuffer
 2056              	.LVL355:
 282:.\main.c      ****                 UART_PutString(line);
 2057              		.loc 1 282 0
 2058 033e 09A8     		add	r0, sp, #36
 2059 0340 FFF7FEFF 		bl	strlen
 2060              	.LVL356:
 2061 0344 021C     		mov	r2, r0
 2062 0346 48A8     		add	r0, sp, #288
 2063 0348 3C49     		ldr	r1, .L131+116
 2064 034a FFF7FEFF 		bl	sprintf
 2065              	.LVL357:
 283:.\main.c      ****                 UartReadLine(rxbuf,READ_LINE_TIMEOUT); //–ø—Ä–∞–∑–µ–Ω —Ä–µ–¥
 2066              		.loc 1 283 0
 2067 034e 48A8     		add	r0, sp, #288
 2068 0350 FFF7FEFF 		bl	UART_PutString
 2069              	.LVL358:
 284:.\main.c      ****                 UartReadLine(rxbuf,READ_LINE_TIMEOUT); //–û–ö
 2070              		.loc 1 284 0
 2071 0354 FA24     		mov	r4, #250
 2072              	.LVL359:
 2073 0356 A400     		lsl	r4, r4, #2
 2074 0358 58A8     		add	r0, sp, #352
 2075 035a 211C     		mov	r1, r4
 2076 035c FFF7FEFF 		bl	UartReadLine
 2077              	.LVL360:
 285:.\main.c      ****                 UartReadLine(rxbuf,READ_LINE_TIMEOUT); // > (–∫—É—Ä—Å–æ—Ä)
 2078              		.loc 1 285 0
 2079 0360 58A8     		add	r0, sp, #352
 2080 0362 211C     		mov	r1, r4
 2081 0364 FFF7FEFF 		bl	UartReadLine
 2082              	.LVL361:
 286:.\main.c      ****                 UART_PutString(txbuf);
 2083              		.loc 1 286 0
 2084 0368 58A8     		add	r0, sp, #352
 2085 036a 211C     		mov	r1, r4
 2086 036c FFF7FEFF 		bl	UartReadLine
 2087              	.LVL362:
 287:.\main.c      ****                 CyDelay(200);
ARM GAS  C:\Users\Svilen\AppData\Local\Temp\ccuaxGpF.s 			page 53


 2088              		.loc 1 287 0
 2089 0370 09A8     		add	r0, sp, #36
 2090 0372 FFF7FEFF 		bl	UART_PutString
 2091              	.LVL363:
 288:.\main.c      ****                
 2092              		.loc 1 288 0
 2093 0376 C820     		mov	r0, #200
 2094 0378 FFF7FEFF 		bl	CyDelay
 2095              	.LVL364:
 291:.\main.c      ****                 UART_PutString("AT+CIPCLOSE\r\n");
 2096              		.loc 1 291 0
 2097 037c FFF7FEFF 		bl	UART_ClearRxBuffer
 2098              	.LVL365:
 292:.\main.c      ****                 UartReadLine(rxbuf,READ_LINE_TIMEOUT); //–ø—Ä–∞–∑–µ–Ω —Ä–µ–¥
 2099              		.loc 1 292 0
 2100 0380 2F48     		ldr	r0, .L131+120
 2101 0382 FFF7FEFF 		bl	UART_PutString
 2102              	.LVL366:
 293:.\main.c      ****                 UartReadLine(rxbuf,READ_LINE_TIMEOUT); // > (–∫—É—Ä—Å–æ—Ä)
 2103              		.loc 1 293 0
 2104 0386 58A8     		add	r0, sp, #352
 2105 0388 211C     		mov	r1, r4
 2106 038a FFF7FEFF 		bl	UartReadLine
 2107              	.LVL367:
 294:.\main.c      ****                 //–ü—Ä–∏—Å–ø–∏–≤–∞–Ω–µ –Ω–∞ WIFI –º–æ–¥—É–ª–∞
 2108              		.loc 1 294 0
 2109 038e 58A8     		add	r0, sp, #352
 2110 0390 211C     		mov	r1, r4
 2111 0392 FFF7FEFF 		bl	UartReadLine
 2112              	.LVL368:
 297:.\main.c      ****                 sprintf(txbuf,"AT+GSLP=%d\r\n",SLEEP_TIME);
 2113              		.loc 1 297 0
 2114 0396 FFF7FEFF 		bl	UART_ClearRxBuffer
 2115              	.LVL369:
 298:.\main.c      ****                 UART_PutString(txbuf);
 2116              		.loc 1 298 0
 2117 039a 09A8     		add	r0, sp, #36
 2118 039c 2949     		ldr	r1, .L131+124
 2119 039e 2A4A     		ldr	r2, .L131+128
 2120 03a0 FFF7FEFF 		bl	sprintf
 2121              	.LVL370:
 299:.\main.c      ****                 UartReadLine(rxbuf,READ_LINE_TIMEOUT); //–ø—Ä–∞–∑–µ–Ω —Ä–µ–¥
 2122              		.loc 1 299 0
 2123 03a4 09A8     		add	r0, sp, #36
 2124 03a6 FFF7FEFF 		bl	UART_PutString
 2125              	.LVL371:
 300:.\main.c      ****                 UartReadLine(rxbuf,READ_LINE_TIMEOUT); // > (–∫—É—Ä—Å–æ—Ä)
 2126              		.loc 1 300 0
 2127 03aa 58A8     		add	r0, sp, #352
 2128 03ac 211C     		mov	r1, r4
 2129 03ae FFF7FEFF 		bl	UartReadLine
 2130              	.LVL372:
 301:.\main.c      ****                         
 2131              		.loc 1 301 0
 2132 03b2 58A8     		add	r0, sp, #352
 2133 03b4 211C     		mov	r1, r4
 2134 03b6 FFF7FEFF 		bl	UartReadLine
ARM GAS  C:\Users\Svilen\AppData\Local\Temp\ccuaxGpF.s 			page 54


 2135              	.LVL373:
 303:.\main.c      ****                 LED_B_Write(1);
 2136              		.loc 1 303 0
 2137 03ba 0020     		mov	r0, #0
 2138 03bc FFF7FEFF 		bl	LED_G_Write
 2139              	.LVL374:
 304:.\main.c      ****                 continue;
 2140              		.loc 1 304 0
 2141 03c0 0120     		mov	r0, #1
 2142 03c2 FFF7FEFF 		bl	LED_B_Write
 2143              	.LVL375:
 305:.\main.c      ****             }
 2144              		.loc 1 305 0
 2145 03c6 D0E6     		b	.L111
 2146              	.L132:
 2147              		.align	2
 2148              	.L131:
 2149 03c8 00000000 		.word	TimeoutISR
 2150 03cc 00000000 		.word	RainISR
 2151 03d0 00000000 		.word	timeoutFlag
 2152 03d4 B80B0000 		.word	3000
 2153 03d8 00000000 		.word	rainCounter
 2154 03dc 00000000 		.word	.LC32
 2155 03e0 08000000 		.word	.LC34
 2156 03e4 0C000000 		.word	.LC36
 2157 03e8 18000000 		.word	.LC38
 2158 03ec 2C000000 		.word	.LC40
 2159 03f0 38000000 		.word	.LC42
 2160 03f4 68010000 		.word	.LC44
 2161 03f8 A8610000 		.word	25000
 2162 03fc 48000000 		.word	.LC46
 2163 0400 70000000 		.word	.LC48
 2164 0404 78000000 		.word	.LC50
 2165 0408 84000000 		.word	.LC52
 2166 040c 18FCFFFF 		.word	-1000
 2167 0410 00000000 		.word	AM2302_Temp
 2168 0414 00000000 		.word	AM2302_Humidity
 2169 0418 A4000000 		.word	.LC56
 2170 041c 00000000 		.word	windDirection
 2171 0420 00000000 		.word	windSpeed
 2172 0424 BC000000 		.word	.LC58
 2173 0428 D4000000 		.word	.LC62
 2174 042c F0000000 		.word	.LC64
 2175 0430 00003040 		.word	1076887552
 2176 0434 FC000000 		.word	.LC66
 2177 0438 0C010000 		.word	.LC68
 2178 043c 14010000 		.word	.LC70
 2179 0440 24010000 		.word	.LC72
 2180 0444 34010000 		.word	.LC74
 2181 0448 204E0000 		.word	20000
 2182              	.LVL376:
 2183              	.L116:
 309:.\main.c      ****             {//–ó–∞—Ç–æ–≤–∞ —Å–µ –∑–∞—Ç–≤–∞—Ä—è –∏ –∏–∑–≥—Ä–∞–∂–¥–∞ –Ω–∞–Ω–æ–≤–æ
 2184              		.loc 1 309 0
 2185 044c 58A8     		add	r0, sp, #352
 2186 044e 2B49     		ldr	r1, .L133
 2187 0450 1122     		mov	r2, #17
ARM GAS  C:\Users\Svilen\AppData\Local\Temp\ccuaxGpF.s 			page 55


 2188 0452 FFF7FEFF 		bl	strncmp
 2189              	.LVL377:
 2190 0456 0028     		cmp	r0, #0
 2191 0458 0DD1     		bne	.L121
 311:.\main.c      ****                 UART_ClearRxBuffer();
 2192              		.loc 1 311 0
 2193 045a C824     		mov	r4, #200
 2194              	.LVL378:
 2195 045c 6400     		lsl	r4, r4, #1
 2196 045e 201C     		mov	r0, r4
 2197 0460 FFF7FEFF 		bl	CyDelay
 2198              	.LVL379:
 312:.\main.c      ****                 UART_PutString("AT+CIPCLOSE\r\n");
 2199              		.loc 1 312 0
 2200 0464 FFF7FEFF 		bl	UART_ClearRxBuffer
 2201              	.LVL380:
 313:.\main.c      ****                 CyDelay(400);
 2202              		.loc 1 313 0
 2203 0468 2548     		ldr	r0, .L133+4
 2204 046a FFF7FEFF 		bl	UART_PutString
 2205              	.LVL381:
 314:.\main.c      ****                 goto EstablishConnection;
 2206              		.loc 1 314 0
 2207 046e 201C     		mov	r0, r4
 2208 0470 FFF7FEFF 		bl	CyDelay
 2209              	.LVL382:
 315:.\main.c      ****             }
 2210              		.loc 1 315 0
 2211 0474 8FE6     		b	.L112
 2212              	.LVL383:
 2213              	.L121:
 318:.\main.c      ****             {
 2214              		.loc 1 318 0
 2215 0476 58A8     		add	r0, sp, #352
 2216 0478 2249     		ldr	r1, .L133+8
 2217 047a 0522     		mov	r2, #5
 2218 047c FFF7FEFF 		bl	strncmp
 2219              	.LVL384:
 2220 0480 0028     		cmp	r0, #0
 2221 0482 15D1     		bne	.L130
 2222 0484 0DE0     		b	.L127
 2223              	.L124:
 322:.\main.c      ****                     CyDelay(100);                        
 2224              		.loc 1 322 0 discriminator 3
 2225 0486 0020     		mov	r0, #0
 2226 0488 FFF7FEFF 		bl	LED_R_Write
 2227              	.LVL385:
 323:.\main.c      ****                     LED_R_Write(1);
 2228              		.loc 1 323 0 discriminator 3
 2229 048c 6420     		mov	r0, #100
 2230 048e FFF7FEFF 		bl	CyDelay
 2231              	.LVL386:
 324:.\main.c      ****                     CyDelay(100);                                                
 2232              		.loc 1 324 0 discriminator 3
 2233 0492 0120     		mov	r0, #1
 2234 0494 FFF7FEFF 		bl	LED_R_Write
 2235              	.LVL387:
ARM GAS  C:\Users\Svilen\AppData\Local\Temp\ccuaxGpF.s 			page 56


 325:.\main.c      ****                 }
 2236              		.loc 1 325 0 discriminator 3
 2237 0498 6420     		mov	r0, #100
 2238 049a FFF7FEFF 		bl	CyDelay
 2239              	.LVL388:
 320:.\main.c      ****                 {
 2240              		.loc 1 320 0 discriminator 3
 2241 049e 013C     		sub	r4, r4, #1
 2242              	.LVL389:
 2243 04a0 00E0     		b	.L122
 2244              	.L127:
 2245 04a2 0A24     		mov	r4, #10
 2246              	.LVL390:
 2247              	.L122:
 320:.\main.c      ****                 {
 2248              		.loc 1 320 0 is_stmt 0 discriminator 1
 2249 04a4 002C     		cmp	r4, #0
 2250 04a6 EED1     		bne	.L124
 327:.\main.c      ****                 goto CheckAT;
 2251              		.loc 1 327 0 is_stmt 1
 2252 04a8 0120     		mov	r0, #1
 2253 04aa FFF7FEFF 		bl	LED_G_Write
 2254              	.LVL391:
 328:.\main.c      ****             }
 2255              		.loc 1 328 0
 2256 04ae D7E5     		b	.L103
 2257              	.L130:
 334:.\main.c      ****             if(strncmp(rxbuf,"ERROR",5)==0)
 2258              		.loc 1 334 0
 2259 04b0 0020     		mov	r0, #0
 2260 04b2 FFF7FEFF 		bl	LED_R_Write
 2261              	.LVL392:
 335:.\main.c      ****             {   //–û–ø–∏—Ç–∞ –¥–∞ —Å–µ –∏–∑–≥—Ä–∞–¥–∏ TCP –≤—Ä—ä–∑–∫–∞ –µ –Ω–µ—É—Å–ø–µ—à–µ–Ω.
 2262              		.loc 1 335 0
 2263 04b6 58A8     		add	r0, sp, #352
 2264 04b8 1349     		ldr	r1, .L133+12
 2265 04ba 0522     		mov	r2, #5
 2266 04bc FFF7FEFF 		bl	strncmp
 2267              	.LVL393:
 2268 04c0 0028     		cmp	r0, #0
 2269 04c2 0ED0     		beq	.L128
 2270 04c4 51E6     		b	.L111
 2271              	.L126:
 340:.\main.c      ****                     CyDelay(100);                        
 2272              		.loc 1 340 0 discriminator 3
 2273 04c6 0020     		mov	r0, #0
 2274 04c8 FFF7FEFF 		bl	LED_R_Write
 2275              	.LVL394:
 341:.\main.c      ****                     LED_R_Write(1);
 2276              		.loc 1 341 0 discriminator 3
 2277 04cc 6420     		mov	r0, #100
 2278 04ce FFF7FEFF 		bl	CyDelay
 2279              	.LVL395:
 342:.\main.c      ****                     CyDelay(100);                                                
 2280              		.loc 1 342 0 discriminator 3
 2281 04d2 0120     		mov	r0, #1
 2282 04d4 FFF7FEFF 		bl	LED_R_Write
ARM GAS  C:\Users\Svilen\AppData\Local\Temp\ccuaxGpF.s 			page 57


 2283              	.LVL396:
 343:.\main.c      ****                 }
 2284              		.loc 1 343 0 discriminator 3
 2285 04d8 6420     		mov	r0, #100
 2286 04da FFF7FEFF 		bl	CyDelay
 2287              	.LVL397:
 338:.\main.c      ****                 {
 2288              		.loc 1 338 0 discriminator 3
 2289 04de 013C     		sub	r4, r4, #1
 2290              	.LVL398:
 2291 04e0 00E0     		b	.L125
 2292              	.L128:
 2293 04e2 0A24     		mov	r4, #10
 2294              	.LVL399:
 2295              	.L125:
 338:.\main.c      ****                 {
 2296              		.loc 1 338 0 is_stmt 0 discriminator 1
 2297 04e4 002C     		cmp	r4, #0
 2298 04e6 EED1     		bne	.L126
 345:.\main.c      ****                 if(retry==0) 
 2299              		.loc 1 345 0 is_stmt 1
 2300 04e8 013D     		sub	r5, r5, #1
 2301              	.LVL400:
 2302 04ea EDB2     		uxtb	r5, r5
 2303              	.LVL401:
 346:.\main.c      ****                 {// –ø—Ä–æ–≤–µ—Ä–∫–∞ –¥–∞–ª–∏ –æ—Ç–≥–æ–≤–∞—Ä—è –Ω–∞ –ê–¢ –∫–æ–º–∞–Ω–¥–∞
 2304              		.loc 1 346 0
 2305 04ec 002D     		cmp	r5, #0
 2306 04ee 00D0     		beq	.LCB2292
 2307 04f0 51E6     		b	.L112	@long jump
 2308              	.LCB2292:
 349:.\main.c      ****                     goto CheckAT;            
 2309              		.loc 1 349 0
 2310 04f2 0120     		mov	r0, #1
 2311 04f4 FFF7FEFF 		bl	LED_G_Write
 2312              	.LVL402:
 2313              	.L104:
 350:.\main.c      ****                 }
 2314              		.loc 1 350 0
 2315 04f8 B2E5     		b	.L103
 2316              	.L134:
 2317 04fa C046     		.align	2
 2318              	.L133:
 2319 04fc 44010000 		.word	.LC76
 2320 0500 24010000 		.word	.LC72
 2321 0504 58010000 		.word	.LC78
 2322 0508 60010000 		.word	.LC80
 2323              		.cfi_endproc
 2324              	.LFE36:
 2325              		.size	main, .-main
 2326              		.comm	windSpeed,2,2
 2327              		.comm	windDirection,2,2
 2328              		.comm	AM2302_CRC,1,1
 2329              		.comm	AM2302_Temp,2,2
 2330              		.comm	AM2302_Humidity,2,2
 2331              		.comm	AC6,2,2
 2332              		.comm	AC5,2,2
ARM GAS  C:\Users\Svilen\AppData\Local\Temp\ccuaxGpF.s 			page 58


 2333              		.comm	AC4,2,2
 2334              		.comm	MD,2,2
 2335              		.comm	MC,2,2
 2336              		.comm	MB,2,2
 2337              		.comm	B2,2,2
 2338              		.comm	B1,2,2
 2339              		.comm	AC3,2,2
 2340              		.comm	AC2,2,2
 2341              		.comm	AC1,2,2
 2342              		.comm	rainCounter,4,4
 2343              		.comm	timeoutFlag,1,1
 2344              		.section	.rodata.str1.4,"aMS",%progbits,1
 2345              		.align	2
 2346              	.LC32:
 2347 0000 41544530 		.ascii	"ATE0\015\012\000"
 2347      0D0A00
 2348 0007 00       		.space	1
 2349              	.LC34:
 2350 0008 4F4B00   		.ascii	"OK\000"
 2351 000b 00       		.space	1
 2352              	.LC36:
 2353 000c 41542B43 		.ascii	"AT+CWJAP?\015\012\000"
 2353      574A4150 
 2353      3F0D0A00 
 2354              	.LC38:
 2355 0018 2B43574A 		.ascii	"+CWJAP:\"Etherino\"\000"
 2355      41503A22 
 2355      45746865 
 2355      72696E6F 
 2355      2200
 2356 002a 0000     		.space	2
 2357              	.LC40:
 2358 002c 41542B43 		.ascii	"AT+CIFSR\015\012\000"
 2358      49465352 
 2358      0D0A00
 2359 0037 00       		.space	1
 2360              	.LC42:
 2361 0038 2B434946 		.ascii	"+CIFSR:STAMAC\000"
 2361      53523A53 
 2361      54414D41 
 2361      4300
 2362 0046 0000     		.space	2
 2363              	.LC46:
 2364 0048 41542B43 		.ascii	"AT+CIPSTART=\"UDP\",\"224.0.0.120\",8888\015\012\000"
 2364      49505354 
 2364      4152543D 
 2364      22554450 
 2364      222C2232 
 2365 006f 00       		.space	1
 2366              	.LC48:
 2367 0070 434F4E4E 		.ascii	"CONNECT\000"
 2367      45435400 
 2368              	.LC50:
 2369 0078 4D41433D 		.ascii	"MAC=%s\015\012\000"
 2369      25730D0A 
 2369      00
 2370 0081 000000   		.space	3
ARM GAS  C:\Users\Svilen\AppData\Local\Temp\ccuaxGpF.s 			page 59


 2371              	.LC52:
 2372 0084 424D5031 		.ascii	"BMP180: T=%2.0ld P=%4.0ldhPa\015\012\000"
 2372      38303A20 
 2372      543D2532 
 2372      2E306C64 
 2372      20503D25 
 2373 00a3 00       		.space	1
 2374              	.LC56:
 2375 00a4 414D3233 		.ascii	"AM2302: T=%d Rh=%d\015\012\000"
 2375      30323A20 
 2375      543D2564 
 2375      2052683D 
 2375      25640D0A 
 2376 00b9 000000   		.space	3
 2377              	.LC58:
 2378 00bc 54583230 		.ascii	"TX20: Dir=%d Speed=%d\015\012\000"
 2378      3A204469 
 2378      723D2564 
 2378      20537065 
 2378      65643D25 
 2379              	.LC62:
 2380 00d4 54583230 		.ascii	"TX20: Dir=ERR Speed=ERR\015\012\000"
 2380      3A204469 
 2380      723D4552 
 2380      52205370 
 2380      6565643D 
 2381 00ee 0000     		.space	2
 2382              	.LC64:
 2383 00f0 5241494E 		.ascii	"RAIN: %d\015\012\000"
 2383      3A202564 
 2383      0D0A00
 2384 00fb 00       		.space	1
 2385              	.LC66:
 2386 00fc 55626174 		.ascii	"Ubat: %d.%d V\015\012\000"
 2386      3A202564 
 2386      2E256420 
 2386      560D0A00 
 2387              	.LC68:
 2388 010c 454E440D 		.ascii	"END\015\012\000"
 2388      0A00
 2389 0112 0000     		.space	2
 2390              	.LC70:
 2391 0114 41542B43 		.ascii	"AT+CIPSEND=%d\015\012\000"
 2391      49505345 
 2391      4E443D25 
 2391      640D0A00 
 2392              	.LC72:
 2393 0124 41542B43 		.ascii	"AT+CIPCLOSE\015\012\000"
 2393      4950434C 
 2393      4F53450D 
 2393      0A00
 2394 0132 0000     		.space	2
 2395              	.LC74:
 2396 0134 41542B47 		.ascii	"AT+GSLP=%d\015\012\000"
 2396      534C503D 
 2396      25640D0A 
 2396      00
ARM GAS  C:\Users\Svilen\AppData\Local\Temp\ccuaxGpF.s 			page 60


 2397 0141 000000   		.space	3
 2398              	.LC76:
 2399 0144 414C5245 		.ascii	"ALREADY CONNECTED\000"
 2399      41445920 
 2399      434F4E4E 
 2399      45435445 
 2399      4400
 2400 0156 0000     		.space	2
 2401              	.LC78:
 2402 0158 6E6F2069 		.ascii	"no ip\000"
 2402      7000
 2403 015e 0000     		.space	2
 2404              	.LC80:
 2405 0160 4552524F 		.ascii	"ERROR\000"
 2405      5200
 2406 0166 0000     		.space	2
 2407              	.LC44:
 2408 0168 30303A30 		.ascii	"00:00:00\000"
 2408      303A3030 
 2408      00
 2409 0171 000000   		.text
 2410              	.Letext0:
 2411              		.file 2 "Generated_Source\\PSoC4/cytypes.h"
 2412              		.file 3 "c:\\program files (x86)\\cypress\\psoc creator\\3.3\\psoc creator\\import\\gnu\\arm\\4.9.
 2413              		.file 4 "c:\\program files (x86)\\cypress\\psoc creator\\3.3\\psoc creator\\import\\gnu\\arm\\4.9.
 2414              		.file 5 "Generated_Source\\PSoC4/Timeout.h"
 2415              		.file 6 "Generated_Source\\PSoC4/HUM.h"
 2416              		.file 7 "Generated_Source\\PSoC4/CyLib.h"
 2417              		.file 8 "Generated_Source\\PSoC4/I2C_I2C.h"
 2418              		.file 9 "Generated_Source\\PSoC4/UART.h"
 2419              		.file 10 "Generated_Source\\PSoC4/PinWindRX.h"
 2420              		.file 11 "Generated_Source\\PSoC4/PinWindCE.h"
 2421              		.file 12 "Generated_Source\\PSoC4/ClockTO.h"
 2422              		.file 13 "Generated_Source\\PSoC4/ADC.h"
 2423              		.file 14 "Generated_Source\\PSoC4/ADC_IRQ.h"
 2424              		.file 15 "Generated_Source\\PSoC4/I2C.h"
 2425              		.file 16 "Generated_Source\\PSoC4/isr_Timeout.h"
 2426              		.file 17 "Generated_Source\\PSoC4/isr_Rain.h"
 2427              		.file 18 "Generated_Source\\PSoC4/LED_B.h"
 2428              		.file 19 "Generated_Source\\PSoC4/LED_R.h"
 2429              		.file 20 "Generated_Source\\PSoC4/LED_G.h"
 2430              		.file 21 "c:\\program files (x86)\\cypress\\psoc creator\\3.3\\psoc creator\\import\\gnu\\arm\\4.9
 2431              		.file 22 "c:\\program files (x86)\\cypress\\psoc creator\\3.3\\psoc creator\\import\\gnu\\arm\\4.9
 2432              		.file 23 "<built-in>"
 2433              		.section	.debug_info,"",%progbits
 2434              	.Ldebug_info0:
 2435 0000 E3190000 		.4byte	0x19e3
 2436 0004 0400     		.2byte	0x4
 2437 0006 00000000 		.4byte	.Ldebug_abbrev0
 2438 000a 04       		.byte	0x4
 2439 000b 01       		.uleb128 0x1
 2440 000c D1030000 		.4byte	.LASF116
 2441 0010 01       		.byte	0x1
 2442 0011 62060000 		.4byte	.LASF117
 2443 0015 01060000 		.4byte	.LASF118
 2444 0019 00000000 		.4byte	.Ldebug_ranges0+0
 2445 001d 00000000 		.4byte	0
ARM GAS  C:\Users\Svilen\AppData\Local\Temp\ccuaxGpF.s 			page 61


 2446 0021 00000000 		.4byte	.Ldebug_line0
 2447 0025 02       		.uleb128 0x2
 2448 0026 01       		.byte	0x1
 2449 0027 06       		.byte	0x6
 2450 0028 9B050000 		.4byte	.LASF0
 2451 002c 02       		.uleb128 0x2
 2452 002d 01       		.byte	0x1
 2453 002e 08       		.byte	0x8
 2454 002f 15050000 		.4byte	.LASF1
 2455 0033 02       		.uleb128 0x2
 2456 0034 02       		.byte	0x2
 2457 0035 05       		.byte	0x5
 2458 0036 7C030000 		.4byte	.LASF2
 2459 003a 02       		.uleb128 0x2
 2460 003b 02       		.byte	0x2
 2461 003c 07       		.byte	0x7
 2462 003d A7050000 		.4byte	.LASF3
 2463 0041 02       		.uleb128 0x2
 2464 0042 04       		.byte	0x4
 2465 0043 05       		.byte	0x5
 2466 0044 86030000 		.4byte	.LASF4
 2467 0048 02       		.uleb128 0x2
 2468 0049 04       		.byte	0x4
 2469 004a 07       		.byte	0x7
 2470 004b C3040000 		.4byte	.LASF5
 2471 004f 02       		.uleb128 0x2
 2472 0050 08       		.byte	0x8
 2473 0051 05       		.byte	0x5
 2474 0052 E8020000 		.4byte	.LASF6
 2475 0056 02       		.uleb128 0x2
 2476 0057 08       		.byte	0x8
 2477 0058 07       		.byte	0x7
 2478 0059 79010000 		.4byte	.LASF7
 2479 005d 03       		.uleb128 0x3
 2480 005e 04       		.byte	0x4
 2481 005f 05       		.byte	0x5
 2482 0060 696E7400 		.ascii	"int\000"
 2483 0064 02       		.uleb128 0x2
 2484 0065 04       		.byte	0x4
 2485 0066 07       		.byte	0x7
 2486 0067 78000000 		.4byte	.LASF8
 2487 006b 04       		.uleb128 0x4
 2488 006c F4050000 		.4byte	.LASF9
 2489 0070 02       		.byte	0x2
 2490 0071 9801     		.2byte	0x198
 2491 0073 2C000000 		.4byte	0x2c
 2492 0077 04       		.uleb128 0x4
 2493 0078 7B020000 		.4byte	.LASF10
 2494 007c 02       		.byte	0x2
 2495 007d 9901     		.2byte	0x199
 2496 007f 3A000000 		.4byte	0x3a
 2497 0083 04       		.uleb128 0x4
 2498 0084 3D030000 		.4byte	.LASF11
 2499 0088 02       		.byte	0x2
 2500 0089 9A01     		.2byte	0x19a
 2501 008b 48000000 		.4byte	0x48
 2502 008f 04       		.uleb128 0x4
ARM GAS  C:\Users\Svilen\AppData\Local\Temp\ccuaxGpF.s 			page 62


 2503 0090 82020000 		.4byte	.LASF12
 2504 0094 02       		.byte	0x2
 2505 0095 9B01     		.2byte	0x19b
 2506 0097 25000000 		.4byte	0x25
 2507 009b 04       		.uleb128 0x4
 2508 009c 94000000 		.4byte	.LASF13
 2509 00a0 02       		.byte	0x2
 2510 00a1 9C01     		.2byte	0x19c
 2511 00a3 33000000 		.4byte	0x33
 2512 00a7 02       		.uleb128 0x2
 2513 00a8 04       		.byte	0x4
 2514 00a9 04       		.byte	0x4
 2515 00aa 64010000 		.4byte	.LASF14
 2516 00ae 02       		.uleb128 0x2
 2517 00af 08       		.byte	0x8
 2518 00b0 04       		.byte	0x4
 2519 00b1 FA050000 		.4byte	.LASF15
 2520 00b5 04       		.uleb128 0x4
 2521 00b6 9D020000 		.4byte	.LASF16
 2522 00ba 02       		.byte	0x2
 2523 00bb A901     		.2byte	0x1a9
 2524 00bd C1000000 		.4byte	0xc1
 2525 00c1 02       		.uleb128 0x2
 2526 00c2 01       		.byte	0x1
 2527 00c3 08       		.byte	0x8
 2528 00c4 28020000 		.4byte	.LASF17
 2529 00c8 04       		.uleb128 0x4
 2530 00c9 25030000 		.4byte	.LASF18
 2531 00cd 02       		.byte	0x2
 2532 00ce 5402     		.2byte	0x254
 2533 00d0 D4000000 		.4byte	0xd4
 2534 00d4 05       		.uleb128 0x5
 2535 00d5 04       		.byte	0x4
 2536 00d6 DA000000 		.4byte	0xda
 2537 00da 06       		.uleb128 0x6
 2538 00db 07       		.uleb128 0x7
 2539 00dc 10020000 		.4byte	.LASF19
 2540 00e0 03       		.byte	0x3
 2541 00e1 D4       		.byte	0xd4
 2542 00e2 64000000 		.4byte	0x64
 2543 00e6 02       		.uleb128 0x2
 2544 00e7 04       		.byte	0x4
 2545 00e8 07       		.byte	0x7
 2546 00e9 BA040000 		.4byte	.LASF20
 2547 00ed 08       		.uleb128 0x8
 2548 00ee 04       		.byte	0x4
 2549 00ef 05       		.uleb128 0x5
 2550 00f0 04       		.byte	0x4
 2551 00f1 C1000000 		.4byte	0xc1
 2552 00f5 05       		.uleb128 0x5
 2553 00f6 04       		.byte	0x4
 2554 00f7 FB000000 		.4byte	0xfb
 2555 00fb 09       		.uleb128 0x9
 2556 00fc C1000000 		.4byte	0xc1
 2557 0100 07       		.uleb128 0x7
 2558 0101 EF050000 		.4byte	.LASF21
 2559 0105 04       		.byte	0x4
ARM GAS  C:\Users\Svilen\AppData\Local\Temp\ccuaxGpF.s 			page 63


 2560 0106 70       		.byte	0x70
 2561 0107 64000000 		.4byte	0x64
 2562 010b 0A       		.uleb128 0xa
 2563 010c 6A010000 		.4byte	.LASF119
 2564 0110 01       		.byte	0x1
 2565 0111 29       		.byte	0x29
 2566 0112 00000000 		.4byte	.LFB35
 2567 0116 10000000 		.4byte	.LFE35-.LFB35
 2568 011a 01       		.uleb128 0x1
 2569 011b 9C       		.byte	0x9c
 2570 011c 0B       		.uleb128 0xb
 2571 011d 29000000 		.4byte	.LASF22
 2572 0121 01       		.byte	0x1
 2573 0122 1D       		.byte	0x1d
 2574 0123 00000000 		.4byte	.LFB34
 2575 0127 14000000 		.4byte	.LFE34-.LFB34
 2576 012b 01       		.uleb128 0x1
 2577 012c 9C       		.byte	0x9c
 2578 012d 41010000 		.4byte	0x141
 2579 0131 0C       		.uleb128 0xc
 2580 0132 0E000000 		.4byte	.LVL0
 2581 0136 DA160000 		.4byte	0x16da
 2582 013a 0D       		.uleb128 0xd
 2583 013b 01       		.uleb128 0x1
 2584 013c 50       		.byte	0x50
 2585 013d 01       		.uleb128 0x1
 2586 013e 32       		.byte	0x32
 2587 013f 00       		.byte	0
 2588 0140 00       		.byte	0
 2589 0141 0E       		.uleb128 0xe
 2590 0142 51030000 		.4byte	.LASF23
 2591 0146 01       		.byte	0x1
 2592 0147 6701     		.2byte	0x167
 2593 0149 5D000000 		.4byte	0x5d
 2594 014d 00000000 		.4byte	.LFB37
 2595 0151 04010000 		.4byte	.LFE37-.LFB37
 2596 0155 01       		.uleb128 0x1
 2597 0156 9C       		.byte	0x9c
 2598 0157 22020000 		.4byte	0x222
 2599 015b 0F       		.uleb128 0xf
 2600 015c 6900     		.ascii	"i\000"
 2601 015e 01       		.byte	0x1
 2602 015f 6901     		.2byte	0x169
 2603 0161 5D000000 		.4byte	0x5d
 2604 0165 00000000 		.4byte	.LLST0
 2605 0169 10       		.uleb128 0x10
 2606 016a 4B060000 		.4byte	.LASF24
 2607 016e 01       		.byte	0x1
 2608 016f 6A01     		.2byte	0x16a
 2609 0171 5D000000 		.4byte	0x5d
 2610 0175 29000000 		.4byte	.LLST1
 2611 0179 10       		.uleb128 0x10
 2612 017a 5D030000 		.4byte	.LASF25
 2613 017e 01       		.byte	0x1
 2614 017f 6B01     		.2byte	0x16b
 2615 0181 77000000 		.4byte	0x77
 2616 0185 74000000 		.4byte	.LLST2
ARM GAS  C:\Users\Svilen\AppData\Local\Temp\ccuaxGpF.s 			page 64


 2617 0189 10       		.uleb128 0x10
 2618 018a 42060000 		.4byte	.LASF26
 2619 018e 01       		.byte	0x1
 2620 018f 6C01     		.2byte	0x16c
 2621 0191 77000000 		.4byte	0x77
 2622 0195 9D000000 		.4byte	.LLST3
 2623 0199 10       		.uleb128 0x10
 2624 019a 34000000 		.4byte	.LASF27
 2625 019e 01       		.byte	0x1
 2626 019f 6C01     		.2byte	0x16c
 2627 01a1 77000000 		.4byte	0x77
 2628 01a5 BB000000 		.4byte	.LLST4
 2629 01a9 11       		.uleb128 0x11
 2630 01aa 0C000000 		.4byte	.LVL1
 2631 01ae EC160000 		.4byte	0x16ec
 2632 01b2 BC010000 		.4byte	0x1bc
 2633 01b6 0D       		.uleb128 0xd
 2634 01b7 01       		.uleb128 0x1
 2635 01b8 50       		.byte	0x50
 2636 01b9 01       		.uleb128 0x1
 2637 01ba 30       		.byte	0x30
 2638 01bb 00       		.byte	0
 2639 01bc 11       		.uleb128 0x11
 2640 01bd 12000000 		.4byte	.LVL2
 2641 01c1 FD160000 		.4byte	0x16fd
 2642 01c5 CF010000 		.4byte	0x1cf
 2643 01c9 0D       		.uleb128 0xd
 2644 01ca 01       		.uleb128 0x1
 2645 01cb 50       		.byte	0x50
 2646 01cc 01       		.uleb128 0x1
 2647 01cd 3A       		.byte	0x3a
 2648 01ce 00       		.byte	0
 2649 01cf 11       		.uleb128 0x11
 2650 01d0 18000000 		.4byte	.LVL3
 2651 01d4 EC160000 		.4byte	0x16ec
 2652 01d8 E2010000 		.4byte	0x1e2
 2653 01dc 0D       		.uleb128 0xd
 2654 01dd 01       		.uleb128 0x1
 2655 01de 50       		.byte	0x50
 2656 01df 01       		.uleb128 0x1
 2657 01e0 31       		.byte	0x31
 2658 01e1 00       		.byte	0
 2659 01e2 12       		.uleb128 0x12
 2660 01e3 26000000 		.4byte	.LVL7
 2661 01e7 0E170000 		.4byte	0x170e
 2662 01eb 12       		.uleb128 0x12
 2663 01ec 38000000 		.4byte	.LVL12
 2664 01f0 0E170000 		.4byte	0x170e
 2665 01f4 12       		.uleb128 0x12
 2666 01f5 4A000000 		.4byte	.LVL17
 2667 01f9 0E170000 		.4byte	0x170e
 2668 01fd 12       		.uleb128 0x12
 2669 01fe 66000000 		.4byte	.LVL21
 2670 0202 0E170000 		.4byte	0x170e
 2671 0206 12       		.uleb128 0x12
 2672 0207 78000000 		.4byte	.LVL26
 2673 020b 0E170000 		.4byte	0x170e
ARM GAS  C:\Users\Svilen\AppData\Local\Temp\ccuaxGpF.s 			page 65


 2674 020f 12       		.uleb128 0x12
 2675 0210 A4000000 		.4byte	.LVL35
 2676 0214 0E170000 		.4byte	0x170e
 2677 0218 12       		.uleb128 0x12
 2678 0219 B6000000 		.4byte	.LVL40
 2679 021d 0E170000 		.4byte	0x170e
 2680 0221 00       		.byte	0
 2681 0222 13       		.uleb128 0x13
 2682 0223 62020000 		.4byte	.LASF28
 2683 0227 01       		.byte	0x1
 2684 0228 BA01     		.2byte	0x1ba
 2685 022a 83000000 		.4byte	0x83
 2686 022e 00000000 		.4byte	.LFB38
 2687 0232 2E000000 		.4byte	.LFE38-.LFB38
 2688 0236 01       		.uleb128 0x1
 2689 0237 9C       		.byte	0x9c
 2690 0238 C8020000 		.4byte	0x2c8
 2691 023c 14       		.uleb128 0x14
 2692 023d 72656700 		.ascii	"reg\000"
 2693 0241 01       		.byte	0x1
 2694 0242 BA01     		.2byte	0x1ba
 2695 0244 83000000 		.4byte	0x83
 2696 0248 D9000000 		.4byte	.LLST5
 2697 024c 0F       		.uleb128 0xf
 2698 024d 72657300 		.ascii	"res\000"
 2699 0251 01       		.byte	0x1
 2700 0252 BE01     		.2byte	0x1be
 2701 0254 83000000 		.4byte	0x83
 2702 0258 05010000 		.4byte	.LLST6
 2703 025c 12       		.uleb128 0x12
 2704 025d 08000000 		.4byte	.LVL50
 2705 0261 19170000 		.4byte	0x1719
 2706 0265 11       		.uleb128 0x11
 2707 0266 10000000 		.4byte	.LVL51
 2708 026a 25170000 		.4byte	0x1725
 2709 026e 7E020000 		.4byte	0x27e
 2710 0272 0D       		.uleb128 0xd
 2711 0273 01       		.uleb128 0x1
 2712 0274 51       		.byte	0x51
 2713 0275 01       		.uleb128 0x1
 2714 0276 30       		.byte	0x30
 2715 0277 0D       		.uleb128 0xd
 2716 0278 01       		.uleb128 0x1
 2717 0279 50       		.byte	0x50
 2718 027a 02       		.uleb128 0x2
 2719 027b 08       		.byte	0x8
 2720 027c 77       		.byte	0x77
 2721 027d 00       		.byte	0
 2722 027e 11       		.uleb128 0x11
 2723 027f 16000000 		.4byte	.LVL52
 2724 0283 40170000 		.4byte	0x1740
 2725 0287 92020000 		.4byte	0x292
 2726 028b 0D       		.uleb128 0xd
 2727 028c 01       		.uleb128 0x1
 2728 028d 50       		.byte	0x50
 2729 028e 02       		.uleb128 0x2
 2730 028f 74       		.byte	0x74
ARM GAS  C:\Users\Svilen\AppData\Local\Temp\ccuaxGpF.s 			page 66


 2731 0290 00       		.sleb128 0
 2732 0291 00       		.byte	0
 2733 0292 11       		.uleb128 0x11
 2734 0293 1E000000 		.4byte	.LVL53
 2735 0297 56170000 		.4byte	0x1756
 2736 029b AB020000 		.4byte	0x2ab
 2737 029f 0D       		.uleb128 0xd
 2738 02a0 01       		.uleb128 0x1
 2739 02a1 51       		.byte	0x51
 2740 02a2 01       		.uleb128 0x1
 2741 02a3 31       		.byte	0x31
 2742 02a4 0D       		.uleb128 0xd
 2743 02a5 01       		.uleb128 0x1
 2744 02a6 50       		.byte	0x50
 2745 02a7 02       		.uleb128 0x2
 2746 02a8 08       		.byte	0x8
 2747 02a9 77       		.byte	0x77
 2748 02aa 00       		.byte	0
 2749 02ab 11       		.uleb128 0x11
 2750 02ac 24000000 		.4byte	.LVL54
 2751 02b0 71170000 		.4byte	0x1771
 2752 02b4 BE020000 		.4byte	0x2be
 2753 02b8 0D       		.uleb128 0xd
 2754 02b9 01       		.uleb128 0x1
 2755 02ba 50       		.byte	0x50
 2756 02bb 01       		.uleb128 0x1
 2757 02bc 31       		.byte	0x31
 2758 02bd 00       		.byte	0
 2759 02be 12       		.uleb128 0x12
 2760 02bf 2A000000 		.4byte	.LVL56
 2761 02c3 87170000 		.4byte	0x1787
 2762 02c7 00       		.byte	0
 2763 02c8 13       		.uleb128 0x13
 2764 02c9 B1020000 		.4byte	.LASF29
 2765 02cd 01       		.byte	0x1
 2766 02ce C801     		.2byte	0x1c8
 2767 02d0 9B000000 		.4byte	0x9b
 2768 02d4 00000000 		.4byte	.LFB39
 2769 02d8 1A000000 		.4byte	.LFE39-.LFB39
 2770 02dc 01       		.uleb128 0x1
 2771 02dd 9C       		.byte	0x9c
 2772 02de 45030000 		.4byte	0x345
 2773 02e2 14       		.uleb128 0x14
 2774 02e3 72656700 		.ascii	"reg\000"
 2775 02e7 01       		.byte	0x1
 2776 02e8 C801     		.2byte	0x1c8
 2777 02ea 83000000 		.4byte	0x83
 2778 02ee 2E010000 		.4byte	.LLST7
 2779 02f2 15       		.uleb128 0x15
 2780 02f3 E5010000 		.4byte	.LASF30
 2781 02f7 01       		.byte	0x1
 2782 02f8 CB01     		.2byte	0x1cb
 2783 02fa 9B000000 		.4byte	0x9b
 2784 02fe 01       		.uleb128 0x1
 2785 02ff 50       		.byte	0x50
 2786 0300 0F       		.uleb128 0xf
 2787 0301 6D736200 		.ascii	"msb\000"
ARM GAS  C:\Users\Svilen\AppData\Local\Temp\ccuaxGpF.s 			page 67


 2788 0305 01       		.byte	0x1
 2789 0306 CC01     		.2byte	0x1cc
 2790 0308 77000000 		.4byte	0x77
 2791 030c 5A010000 		.4byte	.LLST8
 2792 0310 0F       		.uleb128 0xf
 2793 0311 6C736200 		.ascii	"lsb\000"
 2794 0315 01       		.byte	0x1
 2795 0316 CC01     		.2byte	0x1cc
 2796 0318 77000000 		.4byte	0x77
 2797 031c 6D010000 		.4byte	.LLST9
 2798 0320 11       		.uleb128 0x11
 2799 0321 08000000 		.4byte	.LVL59
 2800 0325 22020000 		.4byte	0x222
 2801 0329 34030000 		.4byte	0x334
 2802 032d 0D       		.uleb128 0xd
 2803 032e 01       		.uleb128 0x1
 2804 032f 50       		.byte	0x50
 2805 0330 02       		.uleb128 0x2
 2806 0331 75       		.byte	0x75
 2807 0332 00       		.sleb128 0
 2808 0333 00       		.byte	0
 2809 0334 0C       		.uleb128 0xc
 2810 0335 10000000 		.4byte	.LVL61
 2811 0339 22020000 		.4byte	0x222
 2812 033d 0D       		.uleb128 0xd
 2813 033e 01       		.uleb128 0x1
 2814 033f 50       		.byte	0x50
 2815 0340 02       		.uleb128 0x2
 2816 0341 75       		.byte	0x75
 2817 0342 01       		.sleb128 1
 2818 0343 00       		.byte	0
 2819 0344 00       		.byte	0
 2820 0345 13       		.uleb128 0x13
 2821 0346 99030000 		.4byte	.LASF31
 2822 034a 01       		.byte	0x1
 2823 034b D401     		.2byte	0x1d4
 2824 034d 77000000 		.4byte	0x77
 2825 0351 00000000 		.4byte	.LFB40
 2826 0355 1A000000 		.4byte	.LFE40-.LFB40
 2827 0359 01       		.uleb128 0x1
 2828 035a 9C       		.byte	0x9c
 2829 035b C2030000 		.4byte	0x3c2
 2830 035f 14       		.uleb128 0x14
 2831 0360 72656700 		.ascii	"reg\000"
 2832 0364 01       		.byte	0x1
 2833 0365 D401     		.2byte	0x1d4
 2834 0367 83000000 		.4byte	0x83
 2835 036b 80010000 		.4byte	.LLST10
 2836 036f 15       		.uleb128 0x15
 2837 0370 E5010000 		.4byte	.LASF30
 2838 0374 01       		.byte	0x1
 2839 0375 D701     		.2byte	0x1d7
 2840 0377 77000000 		.4byte	0x77
 2841 037b 01       		.uleb128 0x1
 2842 037c 50       		.byte	0x50
 2843 037d 0F       		.uleb128 0xf
 2844 037e 6D736200 		.ascii	"msb\000"
ARM GAS  C:\Users\Svilen\AppData\Local\Temp\ccuaxGpF.s 			page 68


 2845 0382 01       		.byte	0x1
 2846 0383 D801     		.2byte	0x1d8
 2847 0385 77000000 		.4byte	0x77
 2848 0389 AC010000 		.4byte	.LLST11
 2849 038d 0F       		.uleb128 0xf
 2850 038e 6C736200 		.ascii	"lsb\000"
 2851 0392 01       		.byte	0x1
 2852 0393 D801     		.2byte	0x1d8
 2853 0395 77000000 		.4byte	0x77
 2854 0399 BF010000 		.4byte	.LLST12
 2855 039d 11       		.uleb128 0x11
 2856 039e 08000000 		.4byte	.LVL66
 2857 03a2 22020000 		.4byte	0x222
 2858 03a6 B1030000 		.4byte	0x3b1
 2859 03aa 0D       		.uleb128 0xd
 2860 03ab 01       		.uleb128 0x1
 2861 03ac 50       		.byte	0x50
 2862 03ad 02       		.uleb128 0x2
 2863 03ae 75       		.byte	0x75
 2864 03af 00       		.sleb128 0
 2865 03b0 00       		.byte	0
 2866 03b1 0C       		.uleb128 0xc
 2867 03b2 10000000 		.4byte	.LVL68
 2868 03b6 22020000 		.4byte	0x222
 2869 03ba 0D       		.uleb128 0xd
 2870 03bb 01       		.uleb128 0x1
 2871 03bc 50       		.byte	0x50
 2872 03bd 02       		.uleb128 0x2
 2873 03be 75       		.byte	0x75
 2874 03bf 01       		.sleb128 1
 2875 03c0 00       		.byte	0
 2876 03c1 00       		.byte	0
 2877 03c2 16       		.uleb128 0x16
 2878 03c3 17020000 		.4byte	.LASF32
 2879 03c7 01       		.byte	0x1
 2880 03c8 E001     		.2byte	0x1e0
 2881 03ca 00000000 		.4byte	.LFB41
 2882 03ce 24000000 		.4byte	.LFE41-.LFB41
 2883 03d2 01       		.uleb128 0x1
 2884 03d3 9C       		.byte	0x9c
 2885 03d4 4A040000 		.4byte	0x44a
 2886 03d8 14       		.uleb128 0x14
 2887 03d9 72656700 		.ascii	"reg\000"
 2888 03dd 01       		.byte	0x1
 2889 03de E001     		.2byte	0x1e0
 2890 03e0 83000000 		.4byte	0x83
 2891 03e4 D2010000 		.4byte	.LLST13
 2892 03e8 14       		.uleb128 0x14
 2893 03e9 6200     		.ascii	"b\000"
 2894 03eb 01       		.byte	0x1
 2895 03ec E001     		.2byte	0x1e0
 2896 03ee 83000000 		.4byte	0x83
 2897 03f2 FE010000 		.4byte	.LLST14
 2898 03f6 12       		.uleb128 0x12
 2899 03f7 0A000000 		.4byte	.LVL74
 2900 03fb 19170000 		.4byte	0x1719
 2901 03ff 11       		.uleb128 0x11
ARM GAS  C:\Users\Svilen\AppData\Local\Temp\ccuaxGpF.s 			page 69


 2902 0400 12000000 		.4byte	.LVL75
 2903 0404 25170000 		.4byte	0x1725
 2904 0408 18040000 		.4byte	0x418
 2905 040c 0D       		.uleb128 0xd
 2906 040d 01       		.uleb128 0x1
 2907 040e 51       		.byte	0x51
 2908 040f 01       		.uleb128 0x1
 2909 0410 30       		.byte	0x30
 2910 0411 0D       		.uleb128 0xd
 2911 0412 01       		.uleb128 0x1
 2912 0413 50       		.byte	0x50
 2913 0414 02       		.uleb128 0x2
 2914 0415 08       		.byte	0x8
 2915 0416 77       		.byte	0x77
 2916 0417 00       		.byte	0
 2917 0418 11       		.uleb128 0x11
 2918 0419 18000000 		.4byte	.LVL76
 2919 041d 40170000 		.4byte	0x1740
 2920 0421 2C040000 		.4byte	0x42c
 2921 0425 0D       		.uleb128 0xd
 2922 0426 01       		.uleb128 0x1
 2923 0427 50       		.byte	0x50
 2924 0428 02       		.uleb128 0x2
 2925 0429 75       		.byte	0x75
 2926 042a 00       		.sleb128 0
 2927 042b 00       		.byte	0
 2928 042c 11       		.uleb128 0x11
 2929 042d 1E000000 		.4byte	.LVL77
 2930 0431 40170000 		.4byte	0x1740
 2931 0435 40040000 		.4byte	0x440
 2932 0439 0D       		.uleb128 0xd
 2933 043a 01       		.uleb128 0x1
 2934 043b 50       		.byte	0x50
 2935 043c 02       		.uleb128 0x2
 2936 043d 74       		.byte	0x74
 2937 043e 00       		.sleb128 0
 2938 043f 00       		.byte	0
 2939 0440 12       		.uleb128 0x12
 2940 0441 22000000 		.4byte	.LVL78
 2941 0445 87170000 		.4byte	0x1787
 2942 0449 00       		.byte	0
 2943 044a 17       		.uleb128 0x17
 2944 044b BA030000 		.4byte	.LASF33
 2945 044f 01       		.byte	0x1
 2946 0450 E901     		.2byte	0x1e9
 2947 0452 41000000 		.4byte	0x41
 2948 0456 00000000 		.4byte	.LFB42
 2949 045a 5C000000 		.4byte	.LFE42-.LFB42
 2950 045e 01       		.uleb128 0x1
 2951 045f 9C       		.byte	0x9c
 2952 0460 DC040000 		.4byte	0x4dc
 2953 0464 0F       		.uleb128 0xf
 2954 0465 61646300 		.ascii	"adc\000"
 2955 0469 01       		.byte	0x1
 2956 046a EC01     		.2byte	0x1ec
 2957 046c 9B000000 		.4byte	0x9b
 2958 0470 2A020000 		.4byte	.LLST15
ARM GAS  C:\Users\Svilen\AppData\Local\Temp\ccuaxGpF.s 			page 70


 2959 0474 0F       		.uleb128 0xf
 2960 0475 583100   		.ascii	"X1\000"
 2961 0478 01       		.byte	0x1
 2962 0479 F101     		.2byte	0x1f1
 2963 047b 41000000 		.4byte	0x41
 2964 047f 3D020000 		.4byte	.LLST16
 2965 0483 0F       		.uleb128 0xf
 2966 0484 583200   		.ascii	"X2\000"
 2967 0487 01       		.byte	0x1
 2968 0488 F201     		.2byte	0x1f2
 2969 048a 41000000 		.4byte	0x41
 2970 048e 50020000 		.4byte	.LLST17
 2971 0492 18       		.uleb128 0x18
 2972 0493 5400     		.ascii	"T\000"
 2973 0495 01       		.byte	0x1
 2974 0496 F301     		.2byte	0x1f3
 2975 0498 41000000 		.4byte	0x41
 2976 049c 01       		.uleb128 0x1
 2977 049d 50       		.byte	0x50
 2978 049e 11       		.uleb128 0x11
 2979 049f 0A000000 		.4byte	.LVL81
 2980 04a3 C2030000 		.4byte	0x3c2
 2981 04a7 B8040000 		.4byte	0x4b8
 2982 04ab 0D       		.uleb128 0xd
 2983 04ac 01       		.uleb128 0x1
 2984 04ad 51       		.byte	0x51
 2985 04ae 02       		.uleb128 0x2
 2986 04af 08       		.byte	0x8
 2987 04b0 2E       		.byte	0x2e
 2988 04b1 0D       		.uleb128 0xd
 2989 04b2 01       		.uleb128 0x1
 2990 04b3 50       		.byte	0x50
 2991 04b4 02       		.uleb128 0x2
 2992 04b5 08       		.byte	0x8
 2993 04b6 F4       		.byte	0xf4
 2994 04b7 00       		.byte	0
 2995 04b8 11       		.uleb128 0x11
 2996 04b9 10000000 		.4byte	.LVL82
 2997 04bd FD160000 		.4byte	0x16fd
 2998 04c1 CB040000 		.4byte	0x4cb
 2999 04c5 0D       		.uleb128 0xd
 3000 04c6 01       		.uleb128 0x1
 3001 04c7 50       		.byte	0x50
 3002 04c8 01       		.uleb128 0x1
 3003 04c9 36       		.byte	0x36
 3004 04ca 00       		.byte	0
 3005 04cb 0C       		.uleb128 0xc
 3006 04cc 16000000 		.4byte	.LVL83
 3007 04d0 C8020000 		.4byte	0x2c8
 3008 04d4 0D       		.uleb128 0xd
 3009 04d5 01       		.uleb128 0x1
 3010 04d6 50       		.byte	0x50
 3011 04d7 02       		.uleb128 0x2
 3012 04d8 08       		.byte	0x8
 3013 04d9 F6       		.byte	0xf6
 3014 04da 00       		.byte	0
 3015 04db 00       		.byte	0
ARM GAS  C:\Users\Svilen\AppData\Local\Temp\ccuaxGpF.s 			page 71


 3016 04dc 19       		.uleb128 0x19
 3017 04dd EC040000 		.4byte	.LASF34
 3018 04e1 01       		.byte	0x1
 3019 04e2 F701     		.2byte	0x1f7
 3020 04e4 41000000 		.4byte	0x41
 3021 04e8 00000000 		.4byte	.LFB43
 3022 04ec 34010000 		.4byte	.LFE43-.LFB43
 3023 04f0 01       		.uleb128 0x1
 3024 04f1 9C       		.byte	0x9c
 3025 04f2 56060000 		.4byte	0x656
 3026 04f6 1A       		.uleb128 0x1a
 3027 04f7 34000000 		.4byte	.LASF27
 3028 04fb 01       		.byte	0x1
 3029 04fc F701     		.2byte	0x1f7
 3030 04fe 41000000 		.4byte	0x41
 3031 0502 63020000 		.4byte	.LLST18
 3032 0506 14       		.uleb128 0x14
 3033 0507 6F737300 		.ascii	"oss\000"
 3034 050b 01       		.byte	0x1
 3035 050c F701     		.2byte	0x1f7
 3036 050e 5D000000 		.4byte	0x5d
 3037 0512 8F020000 		.4byte	.LLST19
 3038 0516 0F       		.uleb128 0xf
 3039 0517 6D736200 		.ascii	"msb\000"
 3040 051b 01       		.byte	0x1
 3041 051c F901     		.2byte	0x1f9
 3042 051e 83000000 		.4byte	0x83
 3043 0522 BB020000 		.4byte	.LLST20
 3044 0526 0F       		.uleb128 0xf
 3045 0527 6C736200 		.ascii	"lsb\000"
 3046 052b 01       		.byte	0x1
 3047 052c F901     		.2byte	0x1f9
 3048 052e 83000000 		.4byte	0x83
 3049 0532 D9020000 		.4byte	.LLST21
 3050 0536 10       		.uleb128 0x10
 3051 0537 2D010000 		.4byte	.LASF35
 3052 053b 01       		.byte	0x1
 3053 053c F901     		.2byte	0x1f9
 3054 053e 83000000 		.4byte	0x83
 3055 0542 F7020000 		.4byte	.LLST22
 3056 0546 0F       		.uleb128 0xf
 3057 0547 757000   		.ascii	"up\000"
 3058 054a 01       		.byte	0x1
 3059 054b FA01     		.2byte	0x1fa
 3060 054d 41000000 		.4byte	0x41
 3061 0551 0A030000 		.4byte	.LLST23
 3062 0555 10       		.uleb128 0x10
 3063 0556 A9030000 		.4byte	.LASF36
 3064 055a 01       		.byte	0x1
 3065 055b FC01     		.2byte	0x1fc
 3066 055d 83000000 		.4byte	0x83
 3067 0561 30030000 		.4byte	.LLST24
 3068 0565 0F       		.uleb128 0xf
 3069 0566 423500   		.ascii	"B5\000"
 3070 0569 01       		.byte	0x1
 3071 056a 1702     		.2byte	0x217
 3072 056c 41000000 		.4byte	0x41
ARM GAS  C:\Users\Svilen\AppData\Local\Temp\ccuaxGpF.s 			page 72


 3073 0570 68030000 		.4byte	.LLST25
 3074 0574 0F       		.uleb128 0xf
 3075 0575 423600   		.ascii	"B6\000"
 3076 0578 01       		.byte	0x1
 3077 0579 1802     		.2byte	0x218
 3078 057b 41000000 		.4byte	0x41
 3079 057f 9D030000 		.4byte	.LLST26
 3080 0583 0F       		.uleb128 0xf
 3081 0584 583100   		.ascii	"X1\000"
 3082 0587 01       		.byte	0x1
 3083 0588 1902     		.2byte	0x219
 3084 058a 41000000 		.4byte	0x41
 3085 058e C4030000 		.4byte	.LLST27
 3086 0592 0F       		.uleb128 0xf
 3087 0593 583200   		.ascii	"X2\000"
 3088 0596 01       		.byte	0x1
 3089 0597 1A02     		.2byte	0x21a
 3090 0599 41000000 		.4byte	0x41
 3091 059d B3040000 		.4byte	.LLST28
 3092 05a1 0F       		.uleb128 0xf
 3093 05a2 583300   		.ascii	"X3\000"
 3094 05a5 01       		.byte	0x1
 3095 05a6 1B02     		.2byte	0x21b
 3096 05a8 41000000 		.4byte	0x41
 3097 05ac 84050000 		.4byte	.LLST29
 3098 05b0 0F       		.uleb128 0xf
 3099 05b1 423300   		.ascii	"B3\000"
 3100 05b4 01       		.byte	0x1
 3101 05b5 1C02     		.2byte	0x21c
 3102 05b7 41000000 		.4byte	0x41
 3103 05bb 66060000 		.4byte	.LLST30
 3104 05bf 0F       		.uleb128 0xf
 3105 05c0 423400   		.ascii	"B4\000"
 3106 05c3 01       		.byte	0x1
 3107 05c4 1D02     		.2byte	0x21d
 3108 05c6 48000000 		.4byte	0x48
 3109 05ca 84060000 		.4byte	.LLST31
 3110 05ce 0F       		.uleb128 0xf
 3111 05cf 423700   		.ascii	"B7\000"
 3112 05d2 01       		.byte	0x1
 3113 05d3 1E02     		.2byte	0x21e
 3114 05d5 48000000 		.4byte	0x48
 3115 05d9 A2060000 		.4byte	.LLST32
 3116 05dd 0F       		.uleb128 0xf
 3117 05de 7000     		.ascii	"p\000"
 3118 05e0 01       		.byte	0x1
 3119 05e1 1F02     		.2byte	0x21f
 3120 05e3 41000000 		.4byte	0x41
 3121 05e7 D3060000 		.4byte	.LLST33
 3122 05eb 11       		.uleb128 0x11
 3123 05ec 3A000000 		.4byte	.LVL98
 3124 05f0 C2030000 		.4byte	0x3c2
 3125 05f4 09060000 		.4byte	0x609
 3126 05f8 0D       		.uleb128 0xd
 3127 05f9 01       		.uleb128 0x1
 3128 05fa 51       		.byte	0x51
 3129 05fb 06       		.uleb128 0x6
ARM GAS  C:\Users\Svilen\AppData\Local\Temp\ccuaxGpF.s 			page 73


 3130 05fc 74       		.byte	0x74
 3131 05fd 00       		.sleb128 0
 3132 05fe 36       		.byte	0x36
 3133 05ff 24       		.byte	0x24
 3134 0600 23       		.byte	0x23
 3135 0601 34       		.uleb128 0x34
 3136 0602 0D       		.uleb128 0xd
 3137 0603 01       		.uleb128 0x1
 3138 0604 50       		.byte	0x50
 3139 0605 02       		.uleb128 0x2
 3140 0606 08       		.byte	0x8
 3141 0607 F4       		.byte	0xf4
 3142 0608 00       		.byte	0
 3143 0609 11       		.uleb128 0x11
 3144 060a 40000000 		.4byte	.LVL99
 3145 060e FD160000 		.4byte	0x16fd
 3146 0612 1D060000 		.4byte	0x61d
 3147 0616 0D       		.uleb128 0xd
 3148 0617 01       		.uleb128 0x1
 3149 0618 50       		.byte	0x50
 3150 0619 02       		.uleb128 0x2
 3151 061a 76       		.byte	0x76
 3152 061b 00       		.sleb128 0
 3153 061c 00       		.byte	0
 3154 061d 11       		.uleb128 0x11
 3155 061e 46000000 		.4byte	.LVL100
 3156 0622 22020000 		.4byte	0x222
 3157 0626 31060000 		.4byte	0x631
 3158 062a 0D       		.uleb128 0xd
 3159 062b 01       		.uleb128 0x1
 3160 062c 50       		.byte	0x50
 3161 062d 02       		.uleb128 0x2
 3162 062e 08       		.byte	0x8
 3163 062f F6       		.byte	0xf6
 3164 0630 00       		.byte	0
 3165 0631 11       		.uleb128 0x11
 3166 0632 4E000000 		.4byte	.LVL103
 3167 0636 22020000 		.4byte	0x222
 3168 063a 45060000 		.4byte	0x645
 3169 063e 0D       		.uleb128 0xd
 3170 063f 01       		.uleb128 0x1
 3171 0640 50       		.byte	0x50
 3172 0641 02       		.uleb128 0x2
 3173 0642 08       		.byte	0x8
 3174 0643 F7       		.byte	0xf7
 3175 0644 00       		.byte	0
 3176 0645 0C       		.uleb128 0xc
 3177 0646 56000000 		.4byte	.LVL106
 3178 064a 22020000 		.4byte	0x222
 3179 064e 0D       		.uleb128 0xd
 3180 064f 01       		.uleb128 0x1
 3181 0650 50       		.byte	0x50
 3182 0651 02       		.uleb128 0x2
 3183 0652 08       		.byte	0x8
 3184 0653 F8       		.byte	0xf8
 3185 0654 00       		.byte	0
 3186 0655 00       		.byte	0
ARM GAS  C:\Users\Svilen\AppData\Local\Temp\ccuaxGpF.s 			page 74


 3187 0656 1B       		.uleb128 0x1b
 3188 0657 A4000000 		.4byte	.LASF112
 3189 065b 01       		.byte	0x1
 3190 065c 2A02     		.2byte	0x22a
 3191 065e 00000000 		.4byte	.LFB44
 3192 0662 A0000000 		.4byte	.LFE44-.LFB44
 3193 0666 01       		.uleb128 0x1
 3194 0667 9C       		.byte	0x9c
 3195 0668 45070000 		.4byte	0x745
 3196 066c 11       		.uleb128 0x11
 3197 066d 08000000 		.4byte	.LVL140
 3198 0671 C8020000 		.4byte	0x2c8
 3199 0675 80060000 		.4byte	0x680
 3200 0679 0D       		.uleb128 0xd
 3201 067a 01       		.uleb128 0x1
 3202 067b 50       		.byte	0x50
 3203 067c 02       		.uleb128 0x2
 3204 067d 08       		.byte	0x8
 3205 067e AA       		.byte	0xaa
 3206 067f 00       		.byte	0
 3207 0680 11       		.uleb128 0x11
 3208 0681 12000000 		.4byte	.LVL141
 3209 0685 C8020000 		.4byte	0x2c8
 3210 0689 94060000 		.4byte	0x694
 3211 068d 0D       		.uleb128 0xd
 3212 068e 01       		.uleb128 0x1
 3213 068f 50       		.byte	0x50
 3214 0690 02       		.uleb128 0x2
 3215 0691 08       		.byte	0x8
 3216 0692 AC       		.byte	0xac
 3217 0693 00       		.byte	0
 3218 0694 11       		.uleb128 0x11
 3219 0695 1C000000 		.4byte	.LVL142
 3220 0699 C8020000 		.4byte	0x2c8
 3221 069d A8060000 		.4byte	0x6a8
 3222 06a1 0D       		.uleb128 0xd
 3223 06a2 01       		.uleb128 0x1
 3224 06a3 50       		.byte	0x50
 3225 06a4 02       		.uleb128 0x2
 3226 06a5 08       		.byte	0x8
 3227 06a6 AE       		.byte	0xae
 3228 06a7 00       		.byte	0
 3229 06a8 11       		.uleb128 0x11
 3230 06a9 26000000 		.4byte	.LVL143
 3231 06ad 45030000 		.4byte	0x345
 3232 06b1 BC060000 		.4byte	0x6bc
 3233 06b5 0D       		.uleb128 0xd
 3234 06b6 01       		.uleb128 0x1
 3235 06b7 50       		.byte	0x50
 3236 06b8 02       		.uleb128 0x2
 3237 06b9 08       		.byte	0x8
 3238 06ba B0       		.byte	0xb0
 3239 06bb 00       		.byte	0
 3240 06bc 11       		.uleb128 0x11
 3241 06bd 30000000 		.4byte	.LVL144
 3242 06c1 45030000 		.4byte	0x345
 3243 06c5 D0060000 		.4byte	0x6d0
ARM GAS  C:\Users\Svilen\AppData\Local\Temp\ccuaxGpF.s 			page 75


 3244 06c9 0D       		.uleb128 0xd
 3245 06ca 01       		.uleb128 0x1
 3246 06cb 50       		.byte	0x50
 3247 06cc 02       		.uleb128 0x2
 3248 06cd 08       		.byte	0x8
 3249 06ce B2       		.byte	0xb2
 3250 06cf 00       		.byte	0
 3251 06d0 11       		.uleb128 0x11
 3252 06d1 3A000000 		.4byte	.LVL145
 3253 06d5 45030000 		.4byte	0x345
 3254 06d9 E4060000 		.4byte	0x6e4
 3255 06dd 0D       		.uleb128 0xd
 3256 06de 01       		.uleb128 0x1
 3257 06df 50       		.byte	0x50
 3258 06e0 02       		.uleb128 0x2
 3259 06e1 08       		.byte	0x8
 3260 06e2 B4       		.byte	0xb4
 3261 06e3 00       		.byte	0
 3262 06e4 11       		.uleb128 0x11
 3263 06e5 44000000 		.4byte	.LVL146
 3264 06e9 C8020000 		.4byte	0x2c8
 3265 06ed F8060000 		.4byte	0x6f8
 3266 06f1 0D       		.uleb128 0xd
 3267 06f2 01       		.uleb128 0x1
 3268 06f3 50       		.byte	0x50
 3269 06f4 02       		.uleb128 0x2
 3270 06f5 08       		.byte	0x8
 3271 06f6 B6       		.byte	0xb6
 3272 06f7 00       		.byte	0
 3273 06f8 11       		.uleb128 0x11
 3274 06f9 4E000000 		.4byte	.LVL147
 3275 06fd C8020000 		.4byte	0x2c8
 3276 0701 0C070000 		.4byte	0x70c
 3277 0705 0D       		.uleb128 0xd
 3278 0706 01       		.uleb128 0x1
 3279 0707 50       		.byte	0x50
 3280 0708 02       		.uleb128 0x2
 3281 0709 08       		.byte	0x8
 3282 070a B8       		.byte	0xb8
 3283 070b 00       		.byte	0
 3284 070c 11       		.uleb128 0x11
 3285 070d 58000000 		.4byte	.LVL148
 3286 0711 C8020000 		.4byte	0x2c8
 3287 0715 20070000 		.4byte	0x720
 3288 0719 0D       		.uleb128 0xd
 3289 071a 01       		.uleb128 0x1
 3290 071b 50       		.byte	0x50
 3291 071c 02       		.uleb128 0x2
 3292 071d 08       		.byte	0x8
 3293 071e BA       		.byte	0xba
 3294 071f 00       		.byte	0
 3295 0720 11       		.uleb128 0x11
 3296 0721 62000000 		.4byte	.LVL149
 3297 0725 C8020000 		.4byte	0x2c8
 3298 0729 34070000 		.4byte	0x734
 3299 072d 0D       		.uleb128 0xd
 3300 072e 01       		.uleb128 0x1
ARM GAS  C:\Users\Svilen\AppData\Local\Temp\ccuaxGpF.s 			page 76


 3301 072f 50       		.byte	0x50
 3302 0730 02       		.uleb128 0x2
 3303 0731 08       		.byte	0x8
 3304 0732 BC       		.byte	0xbc
 3305 0733 00       		.byte	0
 3306 0734 0C       		.uleb128 0xc
 3307 0735 6C000000 		.4byte	.LVL150
 3308 0739 C8020000 		.4byte	0x2c8
 3309 073d 0D       		.uleb128 0xd
 3310 073e 01       		.uleb128 0x1
 3311 073f 50       		.byte	0x50
 3312 0740 02       		.uleb128 0x2
 3313 0741 08       		.byte	0x8
 3314 0742 BE       		.byte	0xbe
 3315 0743 00       		.byte	0
 3316 0744 00       		.byte	0
 3317 0745 16       		.uleb128 0x16
 3318 0746 32030000 		.4byte	.LASF37
 3319 074a 01       		.byte	0x1
 3320 074b 3902     		.2byte	0x239
 3321 074d 00000000 		.4byte	.LFB45
 3322 0751 24000000 		.4byte	.LFE45-.LFB45
 3323 0755 01       		.uleb128 0x1
 3324 0756 9C       		.byte	0x9c
 3325 0757 A5070000 		.4byte	0x7a5
 3326 075b 1A       		.uleb128 0x1a
 3327 075c C0020000 		.4byte	.LASF38
 3328 0760 01       		.byte	0x1
 3329 0761 3902     		.2byte	0x239
 3330 0763 77000000 		.4byte	0x77
 3331 0767 F1060000 		.4byte	.LLST34
 3332 076b 12       		.uleb128 0x12
 3333 076c 08000000 		.4byte	.LVL152
 3334 0770 93170000 		.4byte	0x1793
 3335 0774 11       		.uleb128 0x11
 3336 0775 14000000 		.4byte	.LVL153
 3337 0779 9B170000 		.4byte	0x179b
 3338 077d 88070000 		.4byte	0x788
 3339 0781 0D       		.uleb128 0xd
 3340 0782 01       		.uleb128 0x1
 3341 0783 50       		.byte	0x50
 3342 0784 02       		.uleb128 0x2
 3343 0785 74       		.byte	0x74
 3344 0786 00       		.sleb128 0
 3345 0787 00       		.byte	0
 3346 0788 11       		.uleb128 0x11
 3347 0789 1A000000 		.4byte	.LVL154
 3348 078d AD170000 		.4byte	0x17ad
 3349 0791 9B070000 		.4byte	0x79b
 3350 0795 0D       		.uleb128 0xd
 3351 0796 01       		.uleb128 0x1
 3352 0797 50       		.byte	0x50
 3353 0798 01       		.uleb128 0x1
 3354 0799 30       		.byte	0x30
 3355 079a 00       		.byte	0
 3356 079b 12       		.uleb128 0x12
 3357 079c 1E000000 		.4byte	.LVL155
ARM GAS  C:\Users\Svilen\AppData\Local\Temp\ccuaxGpF.s 			page 77


 3358 07a0 BF170000 		.4byte	0x17bf
 3359 07a4 00       		.byte	0
 3360 07a5 13       		.uleb128 0x13
 3361 07a6 BE010000 		.4byte	.LASF39
 3362 07aa 01       		.byte	0x1
 3363 07ab 4602     		.2byte	0x246
 3364 07ad 83000000 		.4byte	0x83
 3365 07b1 00000000 		.4byte	.LFB46
 3366 07b5 38000000 		.4byte	.LFE46-.LFB46
 3367 07b9 01       		.uleb128 0x1
 3368 07ba 9C       		.byte	0x9c
 3369 07bb 10080000 		.4byte	0x810
 3370 07bf 1A       		.uleb128 0x1a
 3371 07c0 48050000 		.4byte	.LASF40
 3372 07c4 01       		.byte	0x1
 3373 07c5 4602     		.2byte	0x246
 3374 07c7 EF000000 		.4byte	0xef
 3375 07cb 12070000 		.4byte	.LLST35
 3376 07cf 1A       		.uleb128 0x1a
 3377 07d0 4D050000 		.4byte	.LASF41
 3378 07d4 01       		.byte	0x1
 3379 07d5 4602     		.2byte	0x246
 3380 07d7 77000000 		.4byte	0x77
 3381 07db 30070000 		.4byte	.LLST36
 3382 07df 10       		.uleb128 0x10
 3383 07e0 9A000000 		.4byte	.LASF42
 3384 07e4 01       		.byte	0x1
 3385 07e5 4802     		.2byte	0x248
 3386 07e7 83000000 		.4byte	0x83
 3387 07eb 51070000 		.4byte	.LLST37
 3388 07ef 0F       		.uleb128 0xf
 3389 07f0 6300     		.ascii	"c\000"
 3390 07f2 01       		.byte	0x1
 3391 07f3 4902     		.2byte	0x249
 3392 07f5 6B000000 		.4byte	0x6b
 3393 07f9 7B070000 		.4byte	.LLST38
 3394 07fd 12       		.uleb128 0x12
 3395 07fe 0A000000 		.4byte	.LVL159
 3396 0802 45070000 		.4byte	0x745
 3397 0806 12       		.uleb128 0x12
 3398 0807 10000000 		.4byte	.LVL161
 3399 080b C7170000 		.4byte	0x17c7
 3400 080f 00       		.byte	0
 3401 0810 0E       		.uleb128 0xe
 3402 0811 B0040000 		.4byte	.LASF43
 3403 0815 01       		.byte	0x1
 3404 0816 5F02     		.2byte	0x25f
 3405 0818 6B000000 		.4byte	0x6b
 3406 081c 00000000 		.4byte	.LFB47
 3407 0820 E8010000 		.4byte	.LFE47-.LFB47
 3408 0824 01       		.uleb128 0x1
 3409 0825 9C       		.byte	0x9c
 3410 0826 360A0000 		.4byte	0xa36
 3411 082a 10       		.uleb128 0x10
 3412 082b 51060000 		.4byte	.LASF44
 3413 082f 01       		.byte	0x1
 3414 0830 6E02     		.2byte	0x26e
ARM GAS  C:\Users\Svilen\AppData\Local\Temp\ccuaxGpF.s 			page 78


 3415 0832 77000000 		.4byte	0x77
 3416 0836 8E070000 		.4byte	.LLST39
 3417 083a 10       		.uleb128 0x10
 3418 083b 08000000 		.4byte	.LASF45
 3419 083f 01       		.byte	0x1
 3420 0840 6E02     		.2byte	0x26e
 3421 0842 77000000 		.4byte	0x77
 3422 0846 AE070000 		.4byte	.LLST40
 3423 084a 10       		.uleb128 0x10
 3424 084b 0F000000 		.4byte	.LASF46
 3425 084f 01       		.byte	0x1
 3426 0850 6E02     		.2byte	0x26e
 3427 0852 77000000 		.4byte	0x77
 3428 0856 CC070000 		.4byte	.LLST41
 3429 085a 10       		.uleb128 0x10
 3430 085b 76040000 		.4byte	.LASF47
 3431 085f 01       		.byte	0x1
 3432 0860 6E02     		.2byte	0x26e
 3433 0862 77000000 		.4byte	0x77
 3434 0866 EA070000 		.4byte	.LLST42
 3435 086a 1C       		.uleb128 0x1c
 3436 086b 3B020000 		.4byte	.LASF120
 3437 086f 01       		.byte	0x1
 3438 0870 6F02     		.2byte	0x26f
 3439 0872 6B000000 		.4byte	0x6b
 3440 0876 10       		.uleb128 0x10
 3441 0877 71020000 		.4byte	.LASF48
 3442 087b 01       		.byte	0x1
 3443 087c 6F02     		.2byte	0x26f
 3444 087e 6B000000 		.4byte	0x6b
 3445 0882 29080000 		.4byte	.LLST43
 3446 0886 10       		.uleb128 0x10
 3447 0887 76020000 		.4byte	.LASF49
 3448 088b 01       		.byte	0x1
 3449 088c 6F02     		.2byte	0x26f
 3450 088e 6B000000 		.4byte	0x6b
 3451 0892 47080000 		.4byte	.LLST44
 3452 0896 10       		.uleb128 0x10
 3453 0897 6D030000 		.4byte	.LASF50
 3454 089b 01       		.byte	0x1
 3455 089c 6F02     		.2byte	0x26f
 3456 089e 6B000000 		.4byte	0x6b
 3457 08a2 65080000 		.4byte	.LLST45
 3458 08a6 10       		.uleb128 0x10
 3459 08a7 80050000 		.4byte	.LASF51
 3460 08ab 01       		.byte	0x1
 3461 08ac 6F02     		.2byte	0x26f
 3462 08ae 6B000000 		.4byte	0x6b
 3463 08b2 83080000 		.4byte	.LLST46
 3464 08b6 0F       		.uleb128 0xf
 3465 08b7 6E00     		.ascii	"n\000"
 3466 08b9 01       		.byte	0x1
 3467 08ba 6F02     		.2byte	0x26f
 3468 08bc 6B000000 		.4byte	0x6b
 3469 08c0 96080000 		.4byte	.LLST47
 3470 08c4 10       		.uleb128 0x10
 3471 08c5 62030000 		.4byte	.LASF52
ARM GAS  C:\Users\Svilen\AppData\Local\Temp\ccuaxGpF.s 			page 79


 3472 08c9 01       		.byte	0x1
 3473 08ca 6F02     		.2byte	0x26f
 3474 08cc 6B000000 		.4byte	0x6b
 3475 08d0 2D090000 		.4byte	.LLST48
 3476 08d4 12       		.uleb128 0x12
 3477 08d5 12000000 		.4byte	.LVL167
 3478 08d9 D2170000 		.4byte	0x17d2
 3479 08dd 11       		.uleb128 0x11
 3480 08de 1E000000 		.4byte	.LVL168
 3481 08e2 45070000 		.4byte	0x745
 3482 08e6 F2080000 		.4byte	0x8f2
 3483 08ea 0D       		.uleb128 0xd
 3484 08eb 01       		.uleb128 0x1
 3485 08ec 50       		.byte	0x50
 3486 08ed 03       		.uleb128 0x3
 3487 08ee 0A       		.byte	0xa
 3488 08ef 581B     		.2byte	0x1b58
 3489 08f1 00       		.byte	0
 3490 08f2 11       		.uleb128 0x11
 3491 08f3 24000000 		.4byte	.LVL169
 3492 08f7 DD170000 		.4byte	0x17dd
 3493 08fb 05090000 		.4byte	0x905
 3494 08ff 0D       		.uleb128 0xd
 3495 0900 01       		.uleb128 0x1
 3496 0901 50       		.byte	0x50
 3497 0902 01       		.uleb128 0x1
 3498 0903 30       		.byte	0x30
 3499 0904 00       		.byte	0
 3500 0905 11       		.uleb128 0x11
 3501 0906 34000000 		.4byte	.LVL170
 3502 090a DD170000 		.4byte	0x17dd
 3503 090e 18090000 		.4byte	0x918
 3504 0912 0D       		.uleb128 0xd
 3505 0913 01       		.uleb128 0x1
 3506 0914 50       		.byte	0x50
 3507 0915 01       		.uleb128 0x1
 3508 0916 31       		.byte	0x31
 3509 0917 00       		.byte	0
 3510 0918 12       		.uleb128 0x12
 3511 0919 3C000000 		.4byte	.LVL171
 3512 091d D2170000 		.4byte	0x17d2
 3513 0921 12       		.uleb128 0x12
 3514 0922 44000000 		.4byte	.LVL172
 3515 0926 EE170000 		.4byte	0x17ee
 3516 092a 11       		.uleb128 0x11
 3517 092b 4E000000 		.4byte	.LVL174
 3518 092f F9170000 		.4byte	0x17f9
 3519 0933 42090000 		.4byte	0x942
 3520 0937 0D       		.uleb128 0xd
 3521 0938 01       		.uleb128 0x1
 3522 0939 51       		.byte	0x51
 3523 093a 01       		.uleb128 0x1
 3524 093b 30       		.byte	0x30
 3525 093c 0D       		.uleb128 0xd
 3526 093d 01       		.uleb128 0x1
 3527 093e 50       		.byte	0x50
 3528 093f 01       		.uleb128 0x1
ARM GAS  C:\Users\Svilen\AppData\Local\Temp\ccuaxGpF.s 			page 80


 3529 0940 47       		.byte	0x47
 3530 0941 00       		.byte	0
 3531 0942 11       		.uleb128 0x11
 3532 0943 56000000 		.4byte	.LVL175
 3533 0947 45070000 		.4byte	0x745
 3534 094b 57090000 		.4byte	0x957
 3535 094f 0D       		.uleb128 0xd
 3536 0950 01       		.uleb128 0x1
 3537 0951 50       		.byte	0x50
 3538 0952 03       		.uleb128 0x3
 3539 0953 0A       		.byte	0xa
 3540 0954 5802     		.2byte	0x258
 3541 0956 00       		.byte	0
 3542 0957 12       		.uleb128 0x12
 3543 0958 66000000 		.4byte	.LVL177
 3544 095c D2170000 		.4byte	0x17d2
 3545 0960 11       		.uleb128 0x11
 3546 0961 6E000000 		.4byte	.LVL178
 3547 0965 45070000 		.4byte	0x745
 3548 0969 75090000 		.4byte	0x975
 3549 096d 0D       		.uleb128 0xd
 3550 096e 01       		.uleb128 0x1
 3551 096f 50       		.byte	0x50
 3552 0970 03       		.uleb128 0x3
 3553 0971 0A       		.byte	0xa
 3554 0972 B004     		.2byte	0x4b0
 3555 0974 00       		.byte	0
 3556 0975 12       		.uleb128 0x12
 3557 0976 8C000000 		.4byte	.LVL183
 3558 097a D2170000 		.4byte	0x17d2
 3559 097e 11       		.uleb128 0x11
 3560 097f A2000000 		.4byte	.LVL187
 3561 0983 45070000 		.4byte	0x745
 3562 0987 93090000 		.4byte	0x993
 3563 098b 0D       		.uleb128 0xd
 3564 098c 01       		.uleb128 0x1
 3565 098d 50       		.byte	0x50
 3566 098e 03       		.uleb128 0x3
 3567 098f 0A       		.byte	0xa
 3568 0990 B004     		.2byte	0x4b0
 3569 0992 00       		.byte	0
 3570 0993 12       		.uleb128 0x12
 3571 0994 BE000000 		.4byte	.LVL193
 3572 0998 D2170000 		.4byte	0x17d2
 3573 099c 11       		.uleb128 0x11
 3574 099d D0000000 		.4byte	.LVL197
 3575 09a1 45070000 		.4byte	0x745
 3576 09a5 B1090000 		.4byte	0x9b1
 3577 09a9 0D       		.uleb128 0xd
 3578 09aa 01       		.uleb128 0x1
 3579 09ab 50       		.byte	0x50
 3580 09ac 03       		.uleb128 0x3
 3581 09ad 0A       		.byte	0xa
 3582 09ae B004     		.2byte	0x4b0
 3583 09b0 00       		.byte	0
 3584 09b1 12       		.uleb128 0x12
 3585 09b2 EE000000 		.4byte	.LVL203
ARM GAS  C:\Users\Svilen\AppData\Local\Temp\ccuaxGpF.s 			page 81


 3586 09b6 D2170000 		.4byte	0x17d2
 3587 09ba 11       		.uleb128 0x11
 3588 09bb 04010000 		.4byte	.LVL207
 3589 09bf 45070000 		.4byte	0x745
 3590 09c3 CF090000 		.4byte	0x9cf
 3591 09c7 0D       		.uleb128 0xd
 3592 09c8 01       		.uleb128 0x1
 3593 09c9 50       		.byte	0x50
 3594 09ca 03       		.uleb128 0x3
 3595 09cb 0A       		.byte	0xa
 3596 09cc B004     		.2byte	0x4b0
 3597 09ce 00       		.byte	0
 3598 09cf 12       		.uleb128 0x12
 3599 09d0 22010000 		.4byte	.LVL213
 3600 09d4 D2170000 		.4byte	0x17d2
 3601 09d8 11       		.uleb128 0x11
 3602 09d9 38010000 		.4byte	.LVL217
 3603 09dd 45070000 		.4byte	0x745
 3604 09e1 ED090000 		.4byte	0x9ed
 3605 09e5 0D       		.uleb128 0xd
 3606 09e6 01       		.uleb128 0x1
 3607 09e7 50       		.byte	0x50
 3608 09e8 03       		.uleb128 0x3
 3609 09e9 0A       		.byte	0xa
 3610 09ea B004     		.2byte	0x4b0
 3611 09ec 00       		.byte	0
 3612 09ed 12       		.uleb128 0x12
 3613 09ee 56010000 		.4byte	.LVL223
 3614 09f2 D2170000 		.4byte	0x17d2
 3615 09f6 11       		.uleb128 0x11
 3616 09f7 6C010000 		.4byte	.LVL227
 3617 09fb 45070000 		.4byte	0x745
 3618 09ff 0B0A0000 		.4byte	0xa0b
 3619 0a03 0D       		.uleb128 0xd
 3620 0a04 01       		.uleb128 0x1
 3621 0a05 50       		.byte	0x50
 3622 0a06 03       		.uleb128 0x3
 3623 0a07 0A       		.byte	0xa
 3624 0a08 B004     		.2byte	0x4b0
 3625 0a0a 00       		.byte	0
 3626 0a0b 11       		.uleb128 0x11
 3627 0a0c 82010000 		.4byte	.LVL230
 3628 0a10 DD170000 		.4byte	0x17dd
 3629 0a14 1E0A0000 		.4byte	0xa1e
 3630 0a18 0D       		.uleb128 0xd
 3631 0a19 01       		.uleb128 0x1
 3632 0a1a 50       		.byte	0x50
 3633 0a1b 01       		.uleb128 0x1
 3634 0a1c 31       		.byte	0x31
 3635 0a1d 00       		.byte	0
 3636 0a1e 0C       		.uleb128 0xc
 3637 0a1f 94010000 		.4byte	.LVL231
 3638 0a23 F9170000 		.4byte	0x17f9
 3639 0a27 0D       		.uleb128 0xd
 3640 0a28 01       		.uleb128 0x1
 3641 0a29 51       		.byte	0x51
 3642 0a2a 01       		.uleb128 0x1
ARM GAS  C:\Users\Svilen\AppData\Local\Temp\ccuaxGpF.s 			page 82


 3643 0a2b 30       		.byte	0x30
 3644 0a2c 0D       		.uleb128 0xd
 3645 0a2d 01       		.uleb128 0x1
 3646 0a2e 50       		.byte	0x50
 3647 0a2f 04       		.uleb128 0x4
 3648 0a30 91       		.byte	0x91
 3649 0a31 54       		.sleb128 -44
 3650 0a32 94       		.byte	0x94
 3651 0a33 02       		.byte	0x2
 3652 0a34 00       		.byte	0
 3653 0a35 00       		.byte	0
 3654 0a36 1D       		.uleb128 0x1d
 3655 0a37 D6050000 		.4byte	.LASF53
 3656 0a3b 01       		.byte	0x1
 3657 0a3c 47       		.byte	0x47
 3658 0a3d 5D000000 		.4byte	0x5d
 3659 0a41 00000000 		.4byte	.LFB36
 3660 0a45 0C050000 		.4byte	.LFE36-.LFB36
 3661 0a49 01       		.uleb128 0x1
 3662 0a4a 9C       		.byte	0x9c
 3663 0a4b 6D150000 		.4byte	0x156d
 3664 0a4f 1E       		.uleb128 0x1e
 3665 0a50 5C060000 		.4byte	.LASF54
 3666 0a54 01       		.byte	0x1
 3667 0a55 49       		.byte	0x49
 3668 0a56 6D150000 		.4byte	0x156d
 3669 0a5a 03       		.uleb128 0x3
 3670 0a5b 91       		.byte	0x91
 3671 0a5c B07F     		.sleb128 -80
 3672 0a5e 1E       		.uleb128 0x1e
 3673 0a5f 48050000 		.4byte	.LASF40
 3674 0a63 01       		.byte	0x1
 3675 0a64 4A       		.byte	0x4a
 3676 0a65 6D150000 		.4byte	0x156d
 3677 0a69 03       		.uleb128 0x3
 3678 0a6a 91       		.byte	0x91
 3679 0a6b F07E     		.sleb128 -144
 3680 0a6d 1E       		.uleb128 0x1e
 3681 0a6e 4B010000 		.4byte	.LASF55
 3682 0a72 01       		.byte	0x1
 3683 0a73 4B       		.byte	0x4b
 3684 0a74 7D150000 		.4byte	0x157d
 3685 0a78 03       		.uleb128 0x3
 3686 0a79 91       		.byte	0x91
 3687 0a7a E47E     		.sleb128 -156
 3688 0a7c 1F       		.uleb128 0x1f
 3689 0a7d 6E00     		.ascii	"n\000"
 3690 0a7f 01       		.byte	0x1
 3691 0a80 4C       		.byte	0x4c
 3692 0a81 83000000 		.4byte	0x83
 3693 0a85 77090000 		.4byte	.LLST49
 3694 0a89 20       		.uleb128 0x20
 3695 0a8a E6040000 		.4byte	.LASF56
 3696 0a8e 01       		.byte	0x1
 3697 0a8f 4D       		.byte	0x4d
 3698 0a90 6B000000 		.4byte	0x6b
 3699 0a94 AC090000 		.4byte	.LLST50
ARM GAS  C:\Users\Svilen\AppData\Local\Temp\ccuaxGpF.s 			page 83


 3700 0a98 1E       		.uleb128 0x1e
 3701 0a99 B4030000 		.4byte	.LASF57
 3702 0a9d 01       		.byte	0x1
 3703 0a9e 4E       		.byte	0x4e
 3704 0a9f 8D150000 		.4byte	0x158d
 3705 0aa3 03       		.uleb128 0x3
 3706 0aa4 91       		.byte	0x91
 3707 0aa5 F47C     		.sleb128 -396
 3708 0aa7 21       		.uleb128 0x21
 3709 0aa8 73747200 		.ascii	"str\000"
 3710 0aac 01       		.byte	0x1
 3711 0aad 4F       		.byte	0x4f
 3712 0aae 9D150000 		.4byte	0x159d
 3713 0ab2 03       		.uleb128 0x3
 3714 0ab3 91       		.byte	0x91
 3715 0ab4 D47C     		.sleb128 -428
 3716 0ab6 20       		.uleb128 0x20
 3717 0ab7 72010000 		.4byte	.LASF58
 3718 0abb 01       		.byte	0x1
 3719 0abc 50       		.byte	0x50
 3720 0abd 5D000000 		.4byte	0x5d
 3721 0ac1 0E0A0000 		.4byte	.LLST51
 3722 0ac5 20       		.uleb128 0x20
 3723 0ac6 CC000000 		.4byte	.LASF59
 3724 0aca 01       		.byte	0x1
 3725 0acb 51       		.byte	0x51
 3726 0acc 9B000000 		.4byte	0x9b
 3727 0ad0 410A0000 		.4byte	.LLST52
 3728 0ad4 1F       		.uleb128 0x1f
 3729 0ad5 61646300 		.ascii	"adc\000"
 3730 0ad9 01       		.byte	0x1
 3731 0ada 52       		.byte	0x52
 3732 0adb 77000000 		.4byte	0x77
 3733 0adf 540A0000 		.4byte	.LLST53
 3734 0ae3 20       		.uleb128 0x20
 3735 0ae4 68030000 		.4byte	.LASF60
 3736 0ae8 01       		.byte	0x1
 3737 0ae9 53       		.byte	0x53
 3738 0aea 77000000 		.4byte	0x77
 3739 0aee 670A0000 		.4byte	.LLST54
 3740 0af2 20       		.uleb128 0x20
 3741 0af3 AF030000 		.4byte	.LASF61
 3742 0af7 01       		.byte	0x1
 3743 0af8 6D       		.byte	0x6d
 3744 0af9 41000000 		.4byte	0x41
 3745 0afd 7A0A0000 		.4byte	.LLST55
 3746 0b01 20       		.uleb128 0x20
 3747 0b02 58000000 		.4byte	.LASF62
 3748 0b06 01       		.byte	0x1
 3749 0b07 6D       		.byte	0x6d
 3750 0b08 41000000 		.4byte	0x41
 3751 0b0c 980A0000 		.4byte	.LLST56
 3752 0b10 22       		.uleb128 0x22
 3753 0b11 E0020000 		.4byte	.LASF63
 3754 0b15 01       		.byte	0x1
 3755 0b16 83       		.byte	0x83
 3756 0b17 F8040000 		.4byte	.L104
ARM GAS  C:\Users\Svilen\AppData\Local\Temp\ccuaxGpF.s 			page 84


 3757 0b1b 22       		.uleb128 0x22
 3758 0b1c DB050000 		.4byte	.LASF64
 3759 0b20 01       		.byte	0x1
 3760 0b21 CE       		.byte	0xce
 3761 0b22 96010000 		.4byte	.L113
 3762 0b26 12       		.uleb128 0x12
 3763 0b27 0A000000 		.4byte	.LVL238
 3764 0b2b 0F180000 		.4byte	0x180f
 3765 0b2f 12       		.uleb128 0x12
 3766 0b30 0E000000 		.4byte	.LVL239
 3767 0b34 16180000 		.4byte	0x1816
 3768 0b38 12       		.uleb128 0x12
 3769 0b39 12000000 		.4byte	.LVL240
 3770 0b3d 1D180000 		.4byte	0x181d
 3771 0b41 12       		.uleb128 0x12
 3772 0b42 16000000 		.4byte	.LVL241
 3773 0b46 24180000 		.4byte	0x1824
 3774 0b4a 12       		.uleb128 0x12
 3775 0b4b 1A000000 		.4byte	.LVL242
 3776 0b4f 2B180000 		.4byte	0x182b
 3777 0b53 12       		.uleb128 0x12
 3778 0b54 1E000000 		.4byte	.LVL243
 3779 0b58 BF170000 		.4byte	0x17bf
 3780 0b5c 11       		.uleb128 0x11
 3781 0b5d 24000000 		.4byte	.LVL244
 3782 0b61 32180000 		.4byte	0x1832
 3783 0b65 730B0000 		.4byte	0xb73
 3784 0b69 0D       		.uleb128 0xd
 3785 0b6a 01       		.uleb128 0x1
 3786 0b6b 50       		.byte	0x50
 3787 0b6c 05       		.uleb128 0x5
 3788 0b6d 03       		.byte	0x3
 3789 0b6e 00000000 		.4byte	TimeoutISR
 3790 0b72 00       		.byte	0
 3791 0b73 11       		.uleb128 0x11
 3792 0b74 2A000000 		.4byte	.LVL245
 3793 0b78 43180000 		.4byte	0x1843
 3794 0b7c 8A0B0000 		.4byte	0xb8a
 3795 0b80 0D       		.uleb128 0xd
 3796 0b81 01       		.uleb128 0x1
 3797 0b82 50       		.byte	0x50
 3798 0b83 05       		.uleb128 0x5
 3799 0b84 03       		.byte	0x3
 3800 0b85 00000000 		.4byte	RainISR
 3801 0b89 00       		.byte	0
 3802 0b8a 11       		.uleb128 0x11
 3803 0b8b 30000000 		.4byte	.LVL246
 3804 0b8f DD170000 		.4byte	0x17dd
 3805 0b93 9D0B0000 		.4byte	0xb9d
 3806 0b97 0D       		.uleb128 0xd
 3807 0b98 01       		.uleb128 0x1
 3808 0b99 50       		.byte	0x50
 3809 0b9a 01       		.uleb128 0x1
 3810 0b9b 31       		.byte	0x31
 3811 0b9c 00       		.byte	0
 3812 0b9d 11       		.uleb128 0x11
 3813 0b9e 3C000000 		.4byte	.LVL247
ARM GAS  C:\Users\Svilen\AppData\Local\Temp\ccuaxGpF.s 			page 85


 3814 0ba2 54180000 		.4byte	0x1854
 3815 0ba6 B00B0000 		.4byte	0xbb0
 3816 0baa 0D       		.uleb128 0xd
 3817 0bab 01       		.uleb128 0x1
 3818 0bac 50       		.byte	0x50
 3819 0bad 01       		.uleb128 0x1
 3820 0bae 31       		.byte	0x31
 3821 0baf 00       		.byte	0
 3822 0bb0 11       		.uleb128 0x11
 3823 0bb1 42000000 		.4byte	.LVL248
 3824 0bb5 65180000 		.4byte	0x1865
 3825 0bb9 C40B0000 		.4byte	0xbc4
 3826 0bbd 0D       		.uleb128 0xd
 3827 0bbe 01       		.uleb128 0x1
 3828 0bbf 50       		.byte	0x50
 3829 0bc0 02       		.uleb128 0x2
 3830 0bc1 74       		.byte	0x74
 3831 0bc2 00       		.sleb128 0
 3832 0bc3 00       		.byte	0
 3833 0bc4 11       		.uleb128 0x11
 3834 0bc5 48000000 		.4byte	.LVL249
 3835 0bc9 76180000 		.4byte	0x1876
 3836 0bcd D70B0000 		.4byte	0xbd7
 3837 0bd1 0D       		.uleb128 0xd
 3838 0bd2 01       		.uleb128 0x1
 3839 0bd3 50       		.byte	0x50
 3840 0bd4 01       		.uleb128 0x1
 3841 0bd5 31       		.byte	0x31
 3842 0bd6 00       		.byte	0
 3843 0bd7 11       		.uleb128 0x11
 3844 0bd8 4E000000 		.4byte	.LVL250
 3845 0bdc FD160000 		.4byte	0x16fd
 3846 0be0 EC0B0000 		.4byte	0xbec
 3847 0be4 0D       		.uleb128 0xd
 3848 0be5 01       		.uleb128 0x1
 3849 0be6 50       		.byte	0x50
 3850 0be7 03       		.uleb128 0x3
 3851 0be8 0A       		.byte	0xa
 3852 0be9 B80B     		.2byte	0xbb8
 3853 0beb 00       		.byte	0
 3854 0bec 11       		.uleb128 0x11
 3855 0bed 58000000 		.4byte	.LVL251
 3856 0bf1 87180000 		.4byte	0x1887
 3857 0bf5 0D0C0000 		.4byte	0xc0d
 3858 0bf9 0D       		.uleb128 0xd
 3859 0bfa 01       		.uleb128 0x1
 3860 0bfb 52       		.byte	0x52
 3861 0bfc 02       		.uleb128 0x2
 3862 0bfd 08       		.byte	0x8
 3863 0bfe F0       		.byte	0xf0
 3864 0bff 0D       		.uleb128 0xd
 3865 0c00 01       		.uleb128 0x1
 3866 0c01 51       		.byte	0x51
 3867 0c02 02       		.uleb128 0x2
 3868 0c03 74       		.byte	0x74
 3869 0c04 00       		.sleb128 0
 3870 0c05 0D       		.uleb128 0xd
ARM GAS  C:\Users\Svilen\AppData\Local\Temp\ccuaxGpF.s 			page 86


 3871 0c06 01       		.uleb128 0x1
 3872 0c07 50       		.byte	0x50
 3873 0c08 03       		.uleb128 0x3
 3874 0c09 91       		.byte	0x91
 3875 0c0a F47C     		.sleb128 -396
 3876 0c0c 00       		.byte	0
 3877 0c0d 12       		.uleb128 0x12
 3878 0c0e 60000000 		.4byte	.LVL252
 3879 0c12 56060000 		.4byte	0x656
 3880 0c16 12       		.uleb128 0x12
 3881 0c17 64000000 		.4byte	.LVL253
 3882 0c1b 2B180000 		.4byte	0x182b
 3883 0c1f 11       		.uleb128 0x11
 3884 0c20 6A000000 		.4byte	.LVL254
 3885 0c24 A4180000 		.4byte	0x18a4
 3886 0c28 360C0000 		.4byte	0xc36
 3887 0c2c 0D       		.uleb128 0xd
 3888 0c2d 01       		.uleb128 0x1
 3889 0c2e 50       		.byte	0x50
 3890 0c2f 05       		.uleb128 0x5
 3891 0c30 03       		.byte	0x3
 3892 0c31 00000000 		.4byte	.LC32
 3893 0c35 00       		.byte	0
 3894 0c36 11       		.uleb128 0x11
 3895 0c37 76000000 		.4byte	.LVL255
 3896 0c3b A5070000 		.4byte	0x7a5
 3897 0c3f 510C0000 		.4byte	0xc51
 3898 0c43 0D       		.uleb128 0xd
 3899 0c44 01       		.uleb128 0x1
 3900 0c45 51       		.byte	0x51
 3901 0c46 02       		.uleb128 0x2
 3902 0c47 74       		.byte	0x74
 3903 0c48 00       		.sleb128 0
 3904 0c49 0D       		.uleb128 0xd
 3905 0c4a 01       		.uleb128 0x1
 3906 0c4b 50       		.byte	0x50
 3907 0c4c 03       		.uleb128 0x3
 3908 0c4d 91       		.byte	0x91
 3909 0c4e B07F     		.sleb128 -80
 3910 0c50 00       		.byte	0
 3911 0c51 11       		.uleb128 0x11
 3912 0c52 7E000000 		.4byte	.LVL256
 3913 0c56 A5070000 		.4byte	0x7a5
 3914 0c5a 6C0C0000 		.4byte	0xc6c
 3915 0c5e 0D       		.uleb128 0xd
 3916 0c5f 01       		.uleb128 0x1
 3917 0c60 51       		.byte	0x51
 3918 0c61 02       		.uleb128 0x2
 3919 0c62 74       		.byte	0x74
 3920 0c63 00       		.sleb128 0
 3921 0c64 0D       		.uleb128 0xd
 3922 0c65 01       		.uleb128 0x1
 3923 0c66 50       		.byte	0x50
 3924 0c67 03       		.uleb128 0x3
 3925 0c68 91       		.byte	0x91
 3926 0c69 B07F     		.sleb128 -80
 3927 0c6b 00       		.byte	0
ARM GAS  C:\Users\Svilen\AppData\Local\Temp\ccuaxGpF.s 			page 87


 3928 0c6c 11       		.uleb128 0x11
 3929 0c6d 86000000 		.4byte	.LVL257
 3930 0c71 C0180000 		.4byte	0x18c0
 3931 0c75 8A0C0000 		.4byte	0xc8a
 3932 0c79 0D       		.uleb128 0xd
 3933 0c7a 01       		.uleb128 0x1
 3934 0c7b 51       		.byte	0x51
 3935 0c7c 05       		.uleb128 0x5
 3936 0c7d 03       		.byte	0x3
 3937 0c7e 08000000 		.4byte	.LC34
 3938 0c82 0D       		.uleb128 0xd
 3939 0c83 01       		.uleb128 0x1
 3940 0c84 50       		.byte	0x50
 3941 0c85 03       		.uleb128 0x3
 3942 0c86 91       		.byte	0x91
 3943 0c87 B07F     		.sleb128 -80
 3944 0c89 00       		.byte	0
 3945 0c8a 12       		.uleb128 0x12
 3946 0c8b 90000000 		.4byte	.LVL258
 3947 0c8f 65180000 		.4byte	0x1865
 3948 0c93 11       		.uleb128 0x11
 3949 0c94 9A000000 		.4byte	.LVL260
 3950 0c98 65180000 		.4byte	0x1865
 3951 0c9c A60C0000 		.4byte	0xca6
 3952 0ca0 0D       		.uleb128 0xd
 3953 0ca1 01       		.uleb128 0x1
 3954 0ca2 50       		.byte	0x50
 3955 0ca3 01       		.uleb128 0x1
 3956 0ca4 30       		.byte	0x30
 3957 0ca5 00       		.byte	0
 3958 0ca6 11       		.uleb128 0x11
 3959 0ca7 A0000000 		.4byte	.LVL261
 3960 0cab FD160000 		.4byte	0x16fd
 3961 0caf BA0C0000 		.4byte	0xcba
 3962 0cb3 0D       		.uleb128 0xd
 3963 0cb4 01       		.uleb128 0x1
 3964 0cb5 50       		.byte	0x50
 3965 0cb6 02       		.uleb128 0x2
 3966 0cb7 08       		.byte	0x8
 3967 0cb8 FA       		.byte	0xfa
 3968 0cb9 00       		.byte	0
 3969 0cba 11       		.uleb128 0x11
 3970 0cbb A6000000 		.4byte	.LVL262
 3971 0cbf 65180000 		.4byte	0x1865
 3972 0cc3 CD0C0000 		.4byte	0xccd
 3973 0cc7 0D       		.uleb128 0xd
 3974 0cc8 01       		.uleb128 0x1
 3975 0cc9 50       		.byte	0x50
 3976 0cca 01       		.uleb128 0x1
 3977 0ccb 31       		.byte	0x31
 3978 0ccc 00       		.byte	0
 3979 0ccd 11       		.uleb128 0x11
 3980 0cce AC000000 		.4byte	.LVL263
 3981 0cd2 FD160000 		.4byte	0x16fd
 3982 0cd6 E10C0000 		.4byte	0xce1
 3983 0cda 0D       		.uleb128 0xd
 3984 0cdb 01       		.uleb128 0x1
ARM GAS  C:\Users\Svilen\AppData\Local\Temp\ccuaxGpF.s 			page 88


 3985 0cdc 50       		.byte	0x50
 3986 0cdd 02       		.uleb128 0x2
 3987 0cde 08       		.byte	0x8
 3988 0cdf FA       		.byte	0xfa
 3989 0ce0 00       		.byte	0
 3990 0ce1 11       		.uleb128 0x11
 3991 0ce2 B2000000 		.4byte	.LVL264
 3992 0ce6 65180000 		.4byte	0x1865
 3993 0cea F40C0000 		.4byte	0xcf4
 3994 0cee 0D       		.uleb128 0xd
 3995 0cef 01       		.uleb128 0x1
 3996 0cf0 50       		.byte	0x50
 3997 0cf1 01       		.uleb128 0x1
 3998 0cf2 30       		.byte	0x30
 3999 0cf3 00       		.byte	0
 4000 0cf4 11       		.uleb128 0x11
 4001 0cf5 B8000000 		.4byte	.LVL265
 4002 0cf9 FD160000 		.4byte	0x16fd
 4003 0cfd 080D0000 		.4byte	0xd08
 4004 0d01 0D       		.uleb128 0xd
 4005 0d02 01       		.uleb128 0x1
 4006 0d03 50       		.byte	0x50
 4007 0d04 02       		.uleb128 0x2
 4008 0d05 08       		.byte	0x8
 4009 0d06 FA       		.byte	0xfa
 4010 0d07 00       		.byte	0
 4011 0d08 11       		.uleb128 0x11
 4012 0d09 BE000000 		.4byte	.LVL266
 4013 0d0d 65180000 		.4byte	0x1865
 4014 0d11 1B0D0000 		.4byte	0xd1b
 4015 0d15 0D       		.uleb128 0xd
 4016 0d16 01       		.uleb128 0x1
 4017 0d17 50       		.byte	0x50
 4018 0d18 01       		.uleb128 0x1
 4019 0d19 31       		.byte	0x31
 4020 0d1a 00       		.byte	0
 4021 0d1b 12       		.uleb128 0x12
 4022 0d1c C4000000 		.4byte	.LVL268
 4023 0d20 2B180000 		.4byte	0x182b
 4024 0d24 11       		.uleb128 0x11
 4025 0d25 CA000000 		.4byte	.LVL269
 4026 0d29 A4180000 		.4byte	0x18a4
 4027 0d2d 3B0D0000 		.4byte	0xd3b
 4028 0d31 0D       		.uleb128 0xd
 4029 0d32 01       		.uleb128 0x1
 4030 0d33 50       		.byte	0x50
 4031 0d34 05       		.uleb128 0x5
 4032 0d35 03       		.byte	0x3
 4033 0d36 0C000000 		.4byte	.LC36
 4034 0d3a 00       		.byte	0
 4035 0d3b 11       		.uleb128 0x11
 4036 0d3c D4000000 		.4byte	.LVL270
 4037 0d40 A5070000 		.4byte	0x7a5
 4038 0d44 570D0000 		.4byte	0xd57
 4039 0d48 0D       		.uleb128 0xd
 4040 0d49 01       		.uleb128 0x1
 4041 0d4a 51       		.byte	0x51
ARM GAS  C:\Users\Svilen\AppData\Local\Temp\ccuaxGpF.s 			page 89


 4042 0d4b 03       		.uleb128 0x3
 4043 0d4c 0A       		.byte	0xa
 4044 0d4d E803     		.2byte	0x3e8
 4045 0d4f 0D       		.uleb128 0xd
 4046 0d50 01       		.uleb128 0x1
 4047 0d51 50       		.byte	0x50
 4048 0d52 03       		.uleb128 0x3
 4049 0d53 91       		.byte	0x91
 4050 0d54 B07F     		.sleb128 -80
 4051 0d56 00       		.byte	0
 4052 0d57 11       		.uleb128 0x11
 4053 0d58 DE000000 		.4byte	.LVL271
 4054 0d5c DA180000 		.4byte	0x18da
 4055 0d60 7A0D0000 		.4byte	0xd7a
 4056 0d64 0D       		.uleb128 0xd
 4057 0d65 01       		.uleb128 0x1
 4058 0d66 52       		.byte	0x52
 4059 0d67 01       		.uleb128 0x1
 4060 0d68 41       		.byte	0x41
 4061 0d69 0D       		.uleb128 0xd
 4062 0d6a 01       		.uleb128 0x1
 4063 0d6b 51       		.byte	0x51
 4064 0d6c 05       		.uleb128 0x5
 4065 0d6d 03       		.byte	0x3
 4066 0d6e 18000000 		.4byte	.LC38
 4067 0d72 0D       		.uleb128 0xd
 4068 0d73 01       		.uleb128 0x1
 4069 0d74 50       		.byte	0x50
 4070 0d75 03       		.uleb128 0x3
 4071 0d76 91       		.byte	0x91
 4072 0d77 B07F     		.sleb128 -80
 4073 0d79 00       		.byte	0
 4074 0d7a 12       		.uleb128 0x12
 4075 0d7b E8000000 		.4byte	.LVL272
 4076 0d7f 65180000 		.4byte	0x1865
 4077 0d83 11       		.uleb128 0x11
 4078 0d84 F0000000 		.4byte	.LVL273
 4079 0d88 FD160000 		.4byte	0x16fd
 4080 0d8c 980D0000 		.4byte	0xd98
 4081 0d90 0D       		.uleb128 0xd
 4082 0d91 01       		.uleb128 0x1
 4083 0d92 50       		.byte	0x50
 4084 0d93 03       		.uleb128 0x3
 4085 0d94 0A       		.byte	0xa
 4086 0d95 F401     		.2byte	0x1f4
 4087 0d97 00       		.byte	0
 4088 0d98 11       		.uleb128 0x11
 4089 0d99 F6000000 		.4byte	.LVL274
 4090 0d9d 76180000 		.4byte	0x1876
 4091 0da1 AB0D0000 		.4byte	0xdab
 4092 0da5 0D       		.uleb128 0xd
 4093 0da6 01       		.uleb128 0x1
 4094 0da7 50       		.byte	0x50
 4095 0da8 01       		.uleb128 0x1
 4096 0da9 30       		.byte	0x30
 4097 0daa 00       		.byte	0
 4098 0dab 12       		.uleb128 0x12
ARM GAS  C:\Users\Svilen\AppData\Local\Temp\ccuaxGpF.s 			page 90


 4099 0dac FA000000 		.4byte	.LVL275
 4100 0db0 2B180000 		.4byte	0x182b
 4101 0db4 11       		.uleb128 0x11
 4102 0db5 00010000 		.4byte	.LVL276
 4103 0db9 A4180000 		.4byte	0x18a4
 4104 0dbd CB0D0000 		.4byte	0xdcb
 4105 0dc1 0D       		.uleb128 0xd
 4106 0dc2 01       		.uleb128 0x1
 4107 0dc3 50       		.byte	0x50
 4108 0dc4 05       		.uleb128 0x5
 4109 0dc5 03       		.byte	0x3
 4110 0dc6 2C000000 		.4byte	.LC40
 4111 0dca 00       		.byte	0
 4112 0dcb 11       		.uleb128 0x11
 4113 0dcc 0C010000 		.4byte	.LVL278
 4114 0dd0 A5070000 		.4byte	0x7a5
 4115 0dd4 E60D0000 		.4byte	0xde6
 4116 0dd8 0D       		.uleb128 0xd
 4117 0dd9 01       		.uleb128 0x1
 4118 0dda 51       		.byte	0x51
 4119 0ddb 02       		.uleb128 0x2
 4120 0ddc 74       		.byte	0x74
 4121 0ddd 00       		.sleb128 0
 4122 0dde 0D       		.uleb128 0xd
 4123 0ddf 01       		.uleb128 0x1
 4124 0de0 50       		.byte	0x50
 4125 0de1 03       		.uleb128 0x3
 4126 0de2 91       		.byte	0x91
 4127 0de3 B07F     		.sleb128 -80
 4128 0de5 00       		.byte	0
 4129 0de6 11       		.uleb128 0x11
 4130 0de7 14010000 		.4byte	.LVL279
 4131 0deb A5070000 		.4byte	0x7a5
 4132 0def 010E0000 		.4byte	0xe01
 4133 0df3 0D       		.uleb128 0xd
 4134 0df4 01       		.uleb128 0x1
 4135 0df5 51       		.byte	0x51
 4136 0df6 02       		.uleb128 0x2
 4137 0df7 74       		.byte	0x74
 4138 0df8 00       		.sleb128 0
 4139 0df9 0D       		.uleb128 0xd
 4140 0dfa 01       		.uleb128 0x1
 4141 0dfb 50       		.byte	0x50
 4142 0dfc 03       		.uleb128 0x3
 4143 0dfd 91       		.byte	0x91
 4144 0dfe B07F     		.sleb128 -80
 4145 0e00 00       		.byte	0
 4146 0e01 11       		.uleb128 0x11
 4147 0e02 1E010000 		.4byte	.LVL280
 4148 0e06 DA180000 		.4byte	0x18da
 4149 0e0a 240E0000 		.4byte	0xe24
 4150 0e0e 0D       		.uleb128 0xd
 4151 0e0f 01       		.uleb128 0x1
 4152 0e10 52       		.byte	0x52
 4153 0e11 01       		.uleb128 0x1
 4154 0e12 3D       		.byte	0x3d
 4155 0e13 0D       		.uleb128 0xd
ARM GAS  C:\Users\Svilen\AppData\Local\Temp\ccuaxGpF.s 			page 91


 4156 0e14 01       		.uleb128 0x1
 4157 0e15 51       		.byte	0x51
 4158 0e16 05       		.uleb128 0x5
 4159 0e17 03       		.byte	0x3
 4160 0e18 38000000 		.4byte	.LC42
 4161 0e1c 0D       		.uleb128 0xd
 4162 0e1d 01       		.uleb128 0x1
 4163 0e1e 50       		.byte	0x50
 4164 0e1f 03       		.uleb128 0x3
 4165 0e20 91       		.byte	0x91
 4166 0e21 B07F     		.sleb128 -80
 4167 0e23 00       		.byte	0
 4168 0e24 11       		.uleb128 0x11
 4169 0e25 2A010000 		.4byte	.LVL282
 4170 0e29 65180000 		.4byte	0x1865
 4171 0e2d 370E0000 		.4byte	0xe37
 4172 0e31 0D       		.uleb128 0xd
 4173 0e32 01       		.uleb128 0x1
 4174 0e33 50       		.byte	0x50
 4175 0e34 01       		.uleb128 0x1
 4176 0e35 30       		.byte	0x30
 4177 0e36 00       		.byte	0
 4178 0e37 11       		.uleb128 0x11
 4179 0e38 34010000 		.4byte	.LVL283
 4180 0e3c FD160000 		.4byte	0x16fd
 4181 0e40 4B0E0000 		.4byte	0xe4b
 4182 0e44 0D       		.uleb128 0xd
 4183 0e45 01       		.uleb128 0x1
 4184 0e46 50       		.byte	0x50
 4185 0e47 02       		.uleb128 0x2
 4186 0e48 75       		.byte	0x75
 4187 0e49 00       		.sleb128 0
 4188 0e4a 00       		.byte	0
 4189 0e4b 11       		.uleb128 0x11
 4190 0e4c 3A010000 		.4byte	.LVL284
 4191 0e50 65180000 		.4byte	0x1865
 4192 0e54 5E0E0000 		.4byte	0xe5e
 4193 0e58 0D       		.uleb128 0xd
 4194 0e59 01       		.uleb128 0x1
 4195 0e5a 50       		.byte	0x50
 4196 0e5b 01       		.uleb128 0x1
 4197 0e5c 31       		.byte	0x31
 4198 0e5d 00       		.byte	0
 4199 0e5e 11       		.uleb128 0x11
 4200 0e5f 40010000 		.4byte	.LVL285
 4201 0e63 FD160000 		.4byte	0x16fd
 4202 0e67 720E0000 		.4byte	0xe72
 4203 0e6b 0D       		.uleb128 0xd
 4204 0e6c 01       		.uleb128 0x1
 4205 0e6d 50       		.byte	0x50
 4206 0e6e 02       		.uleb128 0x2
 4207 0e6f 75       		.byte	0x75
 4208 0e70 00       		.sleb128 0
 4209 0e71 00       		.byte	0
 4210 0e72 11       		.uleb128 0x11
 4211 0e73 56010000 		.4byte	.LVL289
 4212 0e77 F9180000 		.4byte	0x18f9
ARM GAS  C:\Users\Svilen\AppData\Local\Temp\ccuaxGpF.s 			page 92


 4213 0e7b 910E0000 		.4byte	0xe91
 4214 0e7f 0D       		.uleb128 0xd
 4215 0e80 01       		.uleb128 0x1
 4216 0e81 52       		.byte	0x52
 4217 0e82 01       		.uleb128 0x1
 4218 0e83 38       		.byte	0x38
 4219 0e84 0D       		.uleb128 0xd
 4220 0e85 01       		.uleb128 0x1
 4221 0e86 51       		.byte	0x51
 4222 0e87 02       		.uleb128 0x2
 4223 0e88 91       		.byte	0x91
 4224 0e89 48       		.sleb128 -56
 4225 0e8a 0D       		.uleb128 0xd
 4226 0e8b 01       		.uleb128 0x1
 4227 0e8c 50       		.byte	0x50
 4228 0e8d 02       		.uleb128 0x2
 4229 0e8e 74       		.byte	0x74
 4230 0e8f 00       		.sleb128 0
 4231 0e90 00       		.byte	0
 4232 0e91 11       		.uleb128 0x11
 4233 0e92 70010000 		.4byte	.LVL290
 4234 0e96 FD160000 		.4byte	0x16fd
 4235 0e9a A60E0000 		.4byte	0xea6
 4236 0e9e 0D       		.uleb128 0xd
 4237 0e9f 01       		.uleb128 0x1
 4238 0ea0 50       		.byte	0x50
 4239 0ea1 03       		.uleb128 0x3
 4240 0ea2 0A       		.byte	0xa
 4241 0ea3 A861     		.2byte	0x61a8
 4242 0ea5 00       		.byte	0
 4243 0ea6 12       		.uleb128 0x12
 4244 0ea7 74010000 		.4byte	.LVL291
 4245 0eab 2B180000 		.4byte	0x182b
 4246 0eaf 11       		.uleb128 0x11
 4247 0eb0 7A010000 		.4byte	.LVL292
 4248 0eb4 A4180000 		.4byte	0x18a4
 4249 0eb8 C60E0000 		.4byte	0xec6
 4250 0ebc 0D       		.uleb128 0xd
 4251 0ebd 01       		.uleb128 0x1
 4252 0ebe 50       		.byte	0x50
 4253 0ebf 05       		.uleb128 0x5
 4254 0ec0 03       		.byte	0x3
 4255 0ec1 00000000 		.4byte	.LC32
 4256 0ec5 00       		.byte	0
 4257 0ec6 11       		.uleb128 0x11
 4258 0ec7 86010000 		.4byte	.LVL293
 4259 0ecb A5070000 		.4byte	0x7a5
 4260 0ecf E10E0000 		.4byte	0xee1
 4261 0ed3 0D       		.uleb128 0xd
 4262 0ed4 01       		.uleb128 0x1
 4263 0ed5 51       		.byte	0x51
 4264 0ed6 02       		.uleb128 0x2
 4265 0ed7 74       		.byte	0x74
 4266 0ed8 00       		.sleb128 0
 4267 0ed9 0D       		.uleb128 0xd
 4268 0eda 01       		.uleb128 0x1
 4269 0edb 50       		.byte	0x50
ARM GAS  C:\Users\Svilen\AppData\Local\Temp\ccuaxGpF.s 			page 93


 4270 0edc 03       		.uleb128 0x3
 4271 0edd 91       		.byte	0x91
 4272 0ede B07F     		.sleb128 -80
 4273 0ee0 00       		.byte	0
 4274 0ee1 11       		.uleb128 0x11
 4275 0ee2 8E010000 		.4byte	.LVL294
 4276 0ee6 A5070000 		.4byte	0x7a5
 4277 0eea FC0E0000 		.4byte	0xefc
 4278 0eee 0D       		.uleb128 0xd
 4279 0eef 01       		.uleb128 0x1
 4280 0ef0 51       		.byte	0x51
 4281 0ef1 02       		.uleb128 0x2
 4282 0ef2 74       		.byte	0x74
 4283 0ef3 00       		.sleb128 0
 4284 0ef4 0D       		.uleb128 0xd
 4285 0ef5 01       		.uleb128 0x1
 4286 0ef6 50       		.byte	0x50
 4287 0ef7 03       		.uleb128 0x3
 4288 0ef8 91       		.byte	0x91
 4289 0ef9 B07F     		.sleb128 -80
 4290 0efb 00       		.byte	0
 4291 0efc 11       		.uleb128 0x11
 4292 0efd 94010000 		.4byte	.LVL295
 4293 0f01 FD160000 		.4byte	0x16fd
 4294 0f05 100F0000 		.4byte	0xf10
 4295 0f09 0D       		.uleb128 0xd
 4296 0f0a 01       		.uleb128 0x1
 4297 0f0b 50       		.byte	0x50
 4298 0f0c 02       		.uleb128 0x2
 4299 0f0d 08       		.byte	0x8
 4300 0f0e C8       		.byte	0xc8
 4301 0f0f 00       		.byte	0
 4302 0f10 12       		.uleb128 0x12
 4303 0f11 9A010000 		.4byte	.LVL297
 4304 0f15 2B180000 		.4byte	0x182b
 4305 0f19 11       		.uleb128 0x11
 4306 0f1a A0010000 		.4byte	.LVL298
 4307 0f1e A4180000 		.4byte	0x18a4
 4308 0f22 300F0000 		.4byte	0xf30
 4309 0f26 0D       		.uleb128 0xd
 4310 0f27 01       		.uleb128 0x1
 4311 0f28 50       		.byte	0x50
 4312 0f29 05       		.uleb128 0x5
 4313 0f2a 03       		.byte	0x3
 4314 0f2b 48000000 		.4byte	.LC46
 4315 0f2f 00       		.byte	0
 4316 0f30 11       		.uleb128 0x11
 4317 0f31 A6010000 		.4byte	.LVL299
 4318 0f35 76180000 		.4byte	0x1876
 4319 0f39 430F0000 		.4byte	0xf43
 4320 0f3d 0D       		.uleb128 0xd
 4321 0f3e 01       		.uleb128 0x1
 4322 0f3f 50       		.byte	0x50
 4323 0f40 01       		.uleb128 0x1
 4324 0f41 31       		.byte	0x31
 4325 0f42 00       		.byte	0
 4326 0f43 11       		.uleb128 0x11
ARM GAS  C:\Users\Svilen\AppData\Local\Temp\ccuaxGpF.s 			page 94


 4327 0f44 B6010000 		.4byte	.LVL302
 4328 0f48 76180000 		.4byte	0x1876
 4329 0f4c 560F0000 		.4byte	0xf56
 4330 0f50 0D       		.uleb128 0xd
 4331 0f51 01       		.uleb128 0x1
 4332 0f52 50       		.byte	0x50
 4333 0f53 01       		.uleb128 0x1
 4334 0f54 31       		.byte	0x31
 4335 0f55 00       		.byte	0
 4336 0f56 11       		.uleb128 0x11
 4337 0f57 BC010000 		.4byte	.LVL303
 4338 0f5b 54180000 		.4byte	0x1854
 4339 0f5f 690F0000 		.4byte	0xf69
 4340 0f63 0D       		.uleb128 0xd
 4341 0f64 01       		.uleb128 0x1
 4342 0f65 50       		.byte	0x50
 4343 0f66 01       		.uleb128 0x1
 4344 0f67 31       		.byte	0x31
 4345 0f68 00       		.byte	0
 4346 0f69 11       		.uleb128 0x11
 4347 0f6a C2010000 		.4byte	.LVL304
 4348 0f6e 65180000 		.4byte	0x1865
 4349 0f72 7C0F0000 		.4byte	0xf7c
 4350 0f76 0D       		.uleb128 0xd
 4351 0f77 01       		.uleb128 0x1
 4352 0f78 50       		.byte	0x50
 4353 0f79 01       		.uleb128 0x1
 4354 0f7a 30       		.byte	0x30
 4355 0f7b 00       		.byte	0
 4356 0f7c 11       		.uleb128 0x11
 4357 0f7d CC010000 		.4byte	.LVL306
 4358 0f81 A5070000 		.4byte	0x7a5
 4359 0f85 980F0000 		.4byte	0xf98
 4360 0f89 0D       		.uleb128 0xd
 4361 0f8a 01       		.uleb128 0x1
 4362 0f8b 51       		.byte	0x51
 4363 0f8c 03       		.uleb128 0x3
 4364 0f8d 0A       		.byte	0xa
 4365 0f8e B80B     		.2byte	0xbb8
 4366 0f90 0D       		.uleb128 0xd
 4367 0f91 01       		.uleb128 0x1
 4368 0f92 50       		.byte	0x50
 4369 0f93 03       		.uleb128 0x3
 4370 0f94 91       		.byte	0x91
 4371 0f95 B07F     		.sleb128 -80
 4372 0f97 00       		.byte	0
 4373 0f98 11       		.uleb128 0x11
 4374 0f99 DA010000 		.4byte	.LVL307
 4375 0f9d DA180000 		.4byte	0x18da
 4376 0fa1 BB0F0000 		.4byte	0xfbb
 4377 0fa5 0D       		.uleb128 0xd
 4378 0fa6 01       		.uleb128 0x1
 4379 0fa7 52       		.byte	0x52
 4380 0fa8 01       		.uleb128 0x1
 4381 0fa9 37       		.byte	0x37
 4382 0faa 0D       		.uleb128 0xd
 4383 0fab 01       		.uleb128 0x1
ARM GAS  C:\Users\Svilen\AppData\Local\Temp\ccuaxGpF.s 			page 95


 4384 0fac 51       		.byte	0x51
 4385 0fad 05       		.uleb128 0x5
 4386 0fae 03       		.byte	0x3
 4387 0faf 70000000 		.4byte	.LC48
 4388 0fb3 0D       		.uleb128 0xd
 4389 0fb4 01       		.uleb128 0x1
 4390 0fb5 50       		.byte	0x50
 4391 0fb6 03       		.uleb128 0x3
 4392 0fb7 91       		.byte	0x91
 4393 0fb8 B07F     		.sleb128 -80
 4394 0fba 00       		.byte	0
 4395 0fbb 11       		.uleb128 0x11
 4396 0fbc EC010000 		.4byte	.LVL309
 4397 0fc0 A5070000 		.4byte	0x7a5
 4398 0fc4 D60F0000 		.4byte	0xfd6
 4399 0fc8 0D       		.uleb128 0xd
 4400 0fc9 01       		.uleb128 0x1
 4401 0fca 51       		.byte	0x51
 4402 0fcb 02       		.uleb128 0x2
 4403 0fcc 74       		.byte	0x74
 4404 0fcd 00       		.sleb128 0
 4405 0fce 0D       		.uleb128 0xd
 4406 0fcf 01       		.uleb128 0x1
 4407 0fd0 50       		.byte	0x50
 4408 0fd1 03       		.uleb128 0x3
 4409 0fd2 91       		.byte	0x91
 4410 0fd3 B07F     		.sleb128 -80
 4411 0fd5 00       		.byte	0
 4412 0fd6 11       		.uleb128 0x11
 4413 0fd7 F4010000 		.4byte	.LVL310
 4414 0fdb A5070000 		.4byte	0x7a5
 4415 0fdf F10F0000 		.4byte	0xff1
 4416 0fe3 0D       		.uleb128 0xd
 4417 0fe4 01       		.uleb128 0x1
 4418 0fe5 51       		.byte	0x51
 4419 0fe6 02       		.uleb128 0x2
 4420 0fe7 74       		.byte	0x74
 4421 0fe8 00       		.sleb128 0
 4422 0fe9 0D       		.uleb128 0xd
 4423 0fea 01       		.uleb128 0x1
 4424 0feb 50       		.byte	0x50
 4425 0fec 03       		.uleb128 0x3
 4426 0fed 91       		.byte	0x91
 4427 0fee B07F     		.sleb128 -80
 4428 0ff0 00       		.byte	0
 4429 0ff1 11       		.uleb128 0x11
 4430 0ff2 FA010000 		.4byte	.LVL311
 4431 0ff6 76180000 		.4byte	0x1876
 4432 0ffa 04100000 		.4byte	0x1004
 4433 0ffe 0D       		.uleb128 0xd
 4434 0fff 01       		.uleb128 0x1
 4435 1000 50       		.byte	0x50
 4436 1001 01       		.uleb128 0x1
 4437 1002 31       		.byte	0x31
 4438 1003 00       		.byte	0
 4439 1004 11       		.uleb128 0x11
 4440 1005 00020000 		.4byte	.LVL312
ARM GAS  C:\Users\Svilen\AppData\Local\Temp\ccuaxGpF.s 			page 96


 4441 1009 65180000 		.4byte	0x1865
 4442 100d 17100000 		.4byte	0x1017
 4443 1011 0D       		.uleb128 0xd
 4444 1012 01       		.uleb128 0x1
 4445 1013 50       		.byte	0x50
 4446 1014 01       		.uleb128 0x1
 4447 1015 31       		.byte	0x31
 4448 1016 00       		.byte	0
 4449 1017 11       		.uleb128 0x11
 4450 1018 06020000 		.4byte	.LVL313
 4451 101c 54180000 		.4byte	0x1854
 4452 1020 2A100000 		.4byte	0x102a
 4453 1024 0D       		.uleb128 0xd
 4454 1025 01       		.uleb128 0x1
 4455 1026 50       		.byte	0x50
 4456 1027 01       		.uleb128 0x1
 4457 1028 30       		.byte	0x30
 4458 1029 00       		.byte	0
 4459 102a 11       		.uleb128 0x11
 4460 102b 10020000 		.4byte	.LVL314
 4461 102f 18190000 		.4byte	0x1918
 4462 1033 4F100000 		.4byte	0x104f
 4463 1037 0D       		.uleb128 0xd
 4464 1038 01       		.uleb128 0x1
 4465 1039 52       		.byte	0x52
 4466 103a 03       		.uleb128 0x3
 4467 103b 91       		.byte	0x91
 4468 103c E47E     		.sleb128 -156
 4469 103e 0D       		.uleb128 0xd
 4470 103f 01       		.uleb128 0x1
 4471 1040 51       		.byte	0x51
 4472 1041 05       		.uleb128 0x5
 4473 1042 03       		.byte	0x3
 4474 1043 78000000 		.4byte	.LC50
 4475 1047 0D       		.uleb128 0xd
 4476 1048 01       		.uleb128 0x1
 4477 1049 50       		.byte	0x50
 4478 104a 03       		.uleb128 0x3
 4479 104b 91       		.byte	0x91
 4480 104c F47C     		.sleb128 -396
 4481 104e 00       		.byte	0
 4482 104f 12       		.uleb128 0x12
 4483 1050 14020000 		.4byte	.LVL315
 4484 1054 4A040000 		.4byte	0x44a
 4485 1058 11       		.uleb128 0x11
 4486 1059 1C020000 		.4byte	.LVL317
 4487 105d DC040000 		.4byte	0x4dc
 4488 1061 71100000 		.4byte	0x1071
 4489 1065 0D       		.uleb128 0xd
 4490 1066 01       		.uleb128 0x1
 4491 1067 51       		.byte	0x51
 4492 1068 01       		.uleb128 0x1
 4493 1069 33       		.byte	0x33
 4494 106a 0D       		.uleb128 0xd
 4495 106b 01       		.uleb128 0x1
 4496 106c 50       		.byte	0x50
 4497 106d 02       		.uleb128 0x2
ARM GAS  C:\Users\Svilen\AppData\Local\Temp\ccuaxGpF.s 			page 97


 4498 106e 74       		.byte	0x74
 4499 106f 00       		.sleb128 0
 4500 1070 00       		.byte	0
 4501 1071 11       		.uleb128 0x11
 4502 1072 3C020000 		.4byte	.LVL323
 4503 1076 18190000 		.4byte	0x1918
 4504 107a 95100000 		.4byte	0x1095
 4505 107e 0D       		.uleb128 0xd
 4506 107f 01       		.uleb128 0x1
 4507 1080 52       		.byte	0x52
 4508 1081 02       		.uleb128 0x2
 4509 1082 74       		.byte	0x74
 4510 1083 00       		.sleb128 0
 4511 1084 0D       		.uleb128 0xd
 4512 1085 01       		.uleb128 0x1
 4513 1086 51       		.byte	0x51
 4514 1087 05       		.uleb128 0x5
 4515 1088 03       		.byte	0x3
 4516 1089 84000000 		.4byte	.LC52
 4517 108d 0D       		.uleb128 0xd
 4518 108e 01       		.uleb128 0x1
 4519 108f 50       		.byte	0x50
 4520 1090 03       		.uleb128 0x3
 4521 1091 91       		.byte	0x91
 4522 1092 D47C     		.sleb128 -428
 4523 1094 00       		.byte	0
 4524 1095 11       		.uleb128 0x11
 4525 1096 44020000 		.4byte	.LVL324
 4526 109a 33190000 		.4byte	0x1933
 4527 109e B1100000 		.4byte	0x10b1
 4528 10a2 0D       		.uleb128 0xd
 4529 10a3 01       		.uleb128 0x1
 4530 10a4 51       		.byte	0x51
 4531 10a5 03       		.uleb128 0x3
 4532 10a6 91       		.byte	0x91
 4533 10a7 D47C     		.sleb128 -428
 4534 10a9 0D       		.uleb128 0xd
 4535 10aa 01       		.uleb128 0x1
 4536 10ab 50       		.byte	0x50
 4537 10ac 03       		.uleb128 0x3
 4538 10ad 91       		.byte	0x91
 4539 10ae F47C     		.sleb128 -396
 4540 10b0 00       		.byte	0
 4541 10b1 12       		.uleb128 0x12
 4542 10b2 48020000 		.4byte	.LVL325
 4543 10b6 41010000 		.4byte	0x141
 4544 10ba 11       		.uleb128 0x11
 4545 10bb 7C020000 		.4byte	.LVL329
 4546 10bf 18190000 		.4byte	0x1918
 4547 10c3 DE100000 		.4byte	0x10de
 4548 10c7 0D       		.uleb128 0xd
 4549 10c8 01       		.uleb128 0x1
 4550 10c9 52       		.byte	0x52
 4551 10ca 02       		.uleb128 0x2
 4552 10cb 74       		.byte	0x74
 4553 10cc 00       		.sleb128 0
 4554 10cd 0D       		.uleb128 0xd
ARM GAS  C:\Users\Svilen\AppData\Local\Temp\ccuaxGpF.s 			page 98


 4555 10ce 01       		.uleb128 0x1
 4556 10cf 51       		.byte	0x51
 4557 10d0 05       		.uleb128 0x5
 4558 10d1 03       		.byte	0x3
 4559 10d2 A4000000 		.4byte	.LC56
 4560 10d6 0D       		.uleb128 0xd
 4561 10d7 01       		.uleb128 0x1
 4562 10d8 50       		.byte	0x50
 4563 10d9 03       		.uleb128 0x3
 4564 10da 91       		.byte	0x91
 4565 10db D47C     		.sleb128 -428
 4566 10dd 00       		.byte	0
 4567 10de 11       		.uleb128 0x11
 4568 10df 84020000 		.4byte	.LVL330
 4569 10e3 33190000 		.4byte	0x1933
 4570 10e7 FA100000 		.4byte	0x10fa
 4571 10eb 0D       		.uleb128 0xd
 4572 10ec 01       		.uleb128 0x1
 4573 10ed 51       		.byte	0x51
 4574 10ee 03       		.uleb128 0x3
 4575 10ef 91       		.byte	0x91
 4576 10f0 D47C     		.sleb128 -428
 4577 10f2 0D       		.uleb128 0xd
 4578 10f3 01       		.uleb128 0x1
 4579 10f4 50       		.byte	0x50
 4580 10f5 03       		.uleb128 0x3
 4581 10f6 91       		.byte	0x91
 4582 10f7 F47C     		.sleb128 -396
 4583 10f9 00       		.byte	0
 4584 10fa 12       		.uleb128 0x12
 4585 10fb 88020000 		.4byte	.LVL331
 4586 10ff 10080000 		.4byte	0x810
 4587 1103 11       		.uleb128 0x11
 4588 1104 9C020000 		.4byte	.LVL333
 4589 1108 18190000 		.4byte	0x1918
 4590 110c 21110000 		.4byte	0x1121
 4591 1110 0D       		.uleb128 0xd
 4592 1111 01       		.uleb128 0x1
 4593 1112 51       		.byte	0x51
 4594 1113 05       		.uleb128 0x5
 4595 1114 03       		.byte	0x3
 4596 1115 BC000000 		.4byte	.LC58
 4597 1119 0D       		.uleb128 0xd
 4598 111a 01       		.uleb128 0x1
 4599 111b 50       		.byte	0x50
 4600 111c 03       		.uleb128 0x3
 4601 111d 91       		.byte	0x91
 4602 111e D47C     		.sleb128 -428
 4603 1120 00       		.byte	0
 4604 1121 11       		.uleb128 0x11
 4605 1122 BA020000 		.4byte	.LVL336
 4606 1126 33190000 		.4byte	0x1933
 4607 112a 3D110000 		.4byte	0x113d
 4608 112e 0D       		.uleb128 0xd
 4609 112f 01       		.uleb128 0x1
 4610 1130 51       		.byte	0x51
 4611 1131 03       		.uleb128 0x3
ARM GAS  C:\Users\Svilen\AppData\Local\Temp\ccuaxGpF.s 			page 99


 4612 1132 91       		.byte	0x91
 4613 1133 D47C     		.sleb128 -428
 4614 1135 0D       		.uleb128 0xd
 4615 1136 01       		.uleb128 0x1
 4616 1137 50       		.byte	0x50
 4617 1138 03       		.uleb128 0x3
 4618 1139 91       		.byte	0x91
 4619 113a F47C     		.sleb128 -396
 4620 113c 00       		.byte	0
 4621 113d 11       		.uleb128 0x11
 4622 113e C6020000 		.4byte	.LVL337
 4623 1142 18190000 		.4byte	0x1918
 4624 1146 5B110000 		.4byte	0x115b
 4625 114a 0D       		.uleb128 0xd
 4626 114b 01       		.uleb128 0x1
 4627 114c 51       		.byte	0x51
 4628 114d 05       		.uleb128 0x5
 4629 114e 03       		.byte	0x3
 4630 114f F0000000 		.4byte	.LC64
 4631 1153 0D       		.uleb128 0xd
 4632 1154 01       		.uleb128 0x1
 4633 1155 50       		.byte	0x50
 4634 1156 03       		.uleb128 0x3
 4635 1157 91       		.byte	0x91
 4636 1158 D47C     		.sleb128 -428
 4637 115a 00       		.byte	0
 4638 115b 11       		.uleb128 0x11
 4639 115c CE020000 		.4byte	.LVL338
 4640 1160 33190000 		.4byte	0x1933
 4641 1164 77110000 		.4byte	0x1177
 4642 1168 0D       		.uleb128 0xd
 4643 1169 01       		.uleb128 0x1
 4644 116a 51       		.byte	0x51
 4645 116b 03       		.uleb128 0x3
 4646 116c 91       		.byte	0x91
 4647 116d D47C     		.sleb128 -428
 4648 116f 0D       		.uleb128 0xd
 4649 1170 01       		.uleb128 0x1
 4650 1171 50       		.byte	0x50
 4651 1172 03       		.uleb128 0x3
 4652 1173 91       		.byte	0x91
 4653 1174 F47C     		.sleb128 -396
 4654 1176 00       		.byte	0
 4655 1177 12       		.uleb128 0x12
 4656 1178 D6020000 		.4byte	.LVL339
 4657 117c 4D190000 		.4byte	0x194d
 4658 1180 11       		.uleb128 0x11
 4659 1181 DC020000 		.4byte	.LVL340
 4660 1185 54190000 		.4byte	0x1954
 4661 1189 93110000 		.4byte	0x1193
 4662 118d 0D       		.uleb128 0xd
 4663 118e 01       		.uleb128 0x1
 4664 118f 50       		.byte	0x50
 4665 1190 01       		.uleb128 0x1
 4666 1191 32       		.byte	0x32
 4667 1192 00       		.byte	0
 4668 1193 11       		.uleb128 0x11
ARM GAS  C:\Users\Svilen\AppData\Local\Temp\ccuaxGpF.s 			page 100


 4669 1194 E2020000 		.4byte	.LVL341
 4670 1198 69190000 		.4byte	0x1969
 4671 119c A6110000 		.4byte	0x11a6
 4672 11a0 0D       		.uleb128 0xd
 4673 11a1 01       		.uleb128 0x1
 4674 11a2 50       		.byte	0x50
 4675 11a3 01       		.uleb128 0x1
 4676 11a4 30       		.byte	0x30
 4677 11a5 00       		.byte	0
 4678 11a6 11       		.uleb128 0x11
 4679 11a7 EA020000 		.4byte	.LVL343
 4680 11ab 7E190000 		.4byte	0x197e
 4681 11af B9110000 		.4byte	0x11b9
 4682 11b3 0D       		.uleb128 0xd
 4683 11b4 01       		.uleb128 0x1
 4684 11b5 50       		.byte	0x50
 4685 11b6 01       		.uleb128 0x1
 4686 11b7 30       		.byte	0x30
 4687 11b8 00       		.byte	0
 4688 11b9 11       		.uleb128 0x11
 4689 11ba 1E030000 		.4byte	.LVL351
 4690 11be 18190000 		.4byte	0x1918
 4691 11c2 DD110000 		.4byte	0x11dd
 4692 11c6 0D       		.uleb128 0xd
 4693 11c7 01       		.uleb128 0x1
 4694 11c8 52       		.byte	0x52
 4695 11c9 02       		.uleb128 0x2
 4696 11ca 75       		.byte	0x75
 4697 11cb 00       		.sleb128 0
 4698 11cc 0D       		.uleb128 0xd
 4699 11cd 01       		.uleb128 0x1
 4700 11ce 51       		.byte	0x51
 4701 11cf 05       		.uleb128 0x5
 4702 11d0 03       		.byte	0x3
 4703 11d1 FC000000 		.4byte	.LC66
 4704 11d5 0D       		.uleb128 0xd
 4705 11d6 01       		.uleb128 0x1
 4706 11d7 50       		.byte	0x50
 4707 11d8 03       		.uleb128 0x3
 4708 11d9 91       		.byte	0x91
 4709 11da D47C     		.sleb128 -428
 4710 11dc 00       		.byte	0
 4711 11dd 11       		.uleb128 0x11
 4712 11de 26030000 		.4byte	.LVL352
 4713 11e2 33190000 		.4byte	0x1933
 4714 11e6 F9110000 		.4byte	0x11f9
 4715 11ea 0D       		.uleb128 0xd
 4716 11eb 01       		.uleb128 0x1
 4717 11ec 51       		.byte	0x51
 4718 11ed 03       		.uleb128 0x3
 4719 11ee 91       		.byte	0x91
 4720 11ef D47C     		.sleb128 -428
 4721 11f1 0D       		.uleb128 0xd
 4722 11f2 01       		.uleb128 0x1
 4723 11f3 50       		.byte	0x50
 4724 11f4 03       		.uleb128 0x3
 4725 11f5 91       		.byte	0x91
ARM GAS  C:\Users\Svilen\AppData\Local\Temp\ccuaxGpF.s 			page 101


 4726 11f6 F47C     		.sleb128 -396
 4727 11f8 00       		.byte	0
 4728 11f9 11       		.uleb128 0x11
 4729 11fa 2C030000 		.4byte	.LVL353
 4730 11fe 98190000 		.4byte	0x1998
 4731 1202 0E120000 		.4byte	0x120e
 4732 1206 0D       		.uleb128 0xd
 4733 1207 01       		.uleb128 0x1
 4734 1208 50       		.byte	0x50
 4735 1209 03       		.uleb128 0x3
 4736 120a 91       		.byte	0x91
 4737 120b F47C     		.sleb128 -396
 4738 120d 00       		.byte	0
 4739 120e 11       		.uleb128 0x11
 4740 120f 3A030000 		.4byte	.LVL354
 4741 1213 B1190000 		.4byte	0x19b1
 4742 1217 2A120000 		.4byte	0x122a
 4743 121b 0D       		.uleb128 0xd
 4744 121c 01       		.uleb128 0x1
 4745 121d 52       		.byte	0x52
 4746 121e 01       		.uleb128 0x1
 4747 121f 36       		.byte	0x36
 4748 1220 0D       		.uleb128 0xd
 4749 1221 01       		.uleb128 0x1
 4750 1222 51       		.byte	0x51
 4751 1223 05       		.uleb128 0x5
 4752 1224 03       		.byte	0x3
 4753 1225 0C010000 		.4byte	.LC68
 4754 1229 00       		.byte	0
 4755 122a 12       		.uleb128 0x12
 4756 122b 3E030000 		.4byte	.LVL355
 4757 122f 2B180000 		.4byte	0x182b
 4758 1233 11       		.uleb128 0x11
 4759 1234 44030000 		.4byte	.LVL356
 4760 1238 D5190000 		.4byte	0x19d5
 4761 123c 48120000 		.4byte	0x1248
 4762 1240 0D       		.uleb128 0xd
 4763 1241 01       		.uleb128 0x1
 4764 1242 50       		.byte	0x50
 4765 1243 03       		.uleb128 0x3
 4766 1244 91       		.byte	0x91
 4767 1245 F47C     		.sleb128 -396
 4768 1247 00       		.byte	0
 4769 1248 11       		.uleb128 0x11
 4770 1249 4E030000 		.4byte	.LVL357
 4771 124d 18190000 		.4byte	0x1918
 4772 1251 66120000 		.4byte	0x1266
 4773 1255 0D       		.uleb128 0xd
 4774 1256 01       		.uleb128 0x1
 4775 1257 51       		.byte	0x51
 4776 1258 05       		.uleb128 0x5
 4777 1259 03       		.byte	0x3
 4778 125a 14010000 		.4byte	.LC70
 4779 125e 0D       		.uleb128 0xd
 4780 125f 01       		.uleb128 0x1
 4781 1260 50       		.byte	0x50
 4782 1261 03       		.uleb128 0x3
ARM GAS  C:\Users\Svilen\AppData\Local\Temp\ccuaxGpF.s 			page 102


 4783 1262 91       		.byte	0x91
 4784 1263 F07E     		.sleb128 -144
 4785 1265 00       		.byte	0
 4786 1266 11       		.uleb128 0x11
 4787 1267 54030000 		.4byte	.LVL358
 4788 126b A4180000 		.4byte	0x18a4
 4789 126f 7B120000 		.4byte	0x127b
 4790 1273 0D       		.uleb128 0xd
 4791 1274 01       		.uleb128 0x1
 4792 1275 50       		.byte	0x50
 4793 1276 03       		.uleb128 0x3
 4794 1277 91       		.byte	0x91
 4795 1278 F07E     		.sleb128 -144
 4796 127a 00       		.byte	0
 4797 127b 11       		.uleb128 0x11
 4798 127c 60030000 		.4byte	.LVL360
 4799 1280 A5070000 		.4byte	0x7a5
 4800 1284 96120000 		.4byte	0x1296
 4801 1288 0D       		.uleb128 0xd
 4802 1289 01       		.uleb128 0x1
 4803 128a 51       		.byte	0x51
 4804 128b 02       		.uleb128 0x2
 4805 128c 74       		.byte	0x74
 4806 128d 00       		.sleb128 0
 4807 128e 0D       		.uleb128 0xd
 4808 128f 01       		.uleb128 0x1
 4809 1290 50       		.byte	0x50
 4810 1291 03       		.uleb128 0x3
 4811 1292 91       		.byte	0x91
 4812 1293 B07F     		.sleb128 -80
 4813 1295 00       		.byte	0
 4814 1296 11       		.uleb128 0x11
 4815 1297 68030000 		.4byte	.LVL361
 4816 129b A5070000 		.4byte	0x7a5
 4817 129f B1120000 		.4byte	0x12b1
 4818 12a3 0D       		.uleb128 0xd
 4819 12a4 01       		.uleb128 0x1
 4820 12a5 51       		.byte	0x51
 4821 12a6 02       		.uleb128 0x2
 4822 12a7 74       		.byte	0x74
 4823 12a8 00       		.sleb128 0
 4824 12a9 0D       		.uleb128 0xd
 4825 12aa 01       		.uleb128 0x1
 4826 12ab 50       		.byte	0x50
 4827 12ac 03       		.uleb128 0x3
 4828 12ad 91       		.byte	0x91
 4829 12ae B07F     		.sleb128 -80
 4830 12b0 00       		.byte	0
 4831 12b1 11       		.uleb128 0x11
 4832 12b2 70030000 		.4byte	.LVL362
 4833 12b6 A5070000 		.4byte	0x7a5
 4834 12ba CC120000 		.4byte	0x12cc
 4835 12be 0D       		.uleb128 0xd
 4836 12bf 01       		.uleb128 0x1
 4837 12c0 51       		.byte	0x51
 4838 12c1 02       		.uleb128 0x2
 4839 12c2 74       		.byte	0x74
ARM GAS  C:\Users\Svilen\AppData\Local\Temp\ccuaxGpF.s 			page 103


 4840 12c3 00       		.sleb128 0
 4841 12c4 0D       		.uleb128 0xd
 4842 12c5 01       		.uleb128 0x1
 4843 12c6 50       		.byte	0x50
 4844 12c7 03       		.uleb128 0x3
 4845 12c8 91       		.byte	0x91
 4846 12c9 B07F     		.sleb128 -80
 4847 12cb 00       		.byte	0
 4848 12cc 11       		.uleb128 0x11
 4849 12cd 76030000 		.4byte	.LVL363
 4850 12d1 A4180000 		.4byte	0x18a4
 4851 12d5 E1120000 		.4byte	0x12e1
 4852 12d9 0D       		.uleb128 0xd
 4853 12da 01       		.uleb128 0x1
 4854 12db 50       		.byte	0x50
 4855 12dc 03       		.uleb128 0x3
 4856 12dd 91       		.byte	0x91
 4857 12de F47C     		.sleb128 -396
 4858 12e0 00       		.byte	0
 4859 12e1 11       		.uleb128 0x11
 4860 12e2 7C030000 		.4byte	.LVL364
 4861 12e6 FD160000 		.4byte	0x16fd
 4862 12ea F5120000 		.4byte	0x12f5
 4863 12ee 0D       		.uleb128 0xd
 4864 12ef 01       		.uleb128 0x1
 4865 12f0 50       		.byte	0x50
 4866 12f1 02       		.uleb128 0x2
 4867 12f2 08       		.byte	0x8
 4868 12f3 C8       		.byte	0xc8
 4869 12f4 00       		.byte	0
 4870 12f5 12       		.uleb128 0x12
 4871 12f6 80030000 		.4byte	.LVL365
 4872 12fa 2B180000 		.4byte	0x182b
 4873 12fe 11       		.uleb128 0x11
 4874 12ff 86030000 		.4byte	.LVL366
 4875 1303 A4180000 		.4byte	0x18a4
 4876 1307 15130000 		.4byte	0x1315
 4877 130b 0D       		.uleb128 0xd
 4878 130c 01       		.uleb128 0x1
 4879 130d 50       		.byte	0x50
 4880 130e 05       		.uleb128 0x5
 4881 130f 03       		.byte	0x3
 4882 1310 24010000 		.4byte	.LC72
 4883 1314 00       		.byte	0
 4884 1315 11       		.uleb128 0x11
 4885 1316 8E030000 		.4byte	.LVL367
 4886 131a A5070000 		.4byte	0x7a5
 4887 131e 30130000 		.4byte	0x1330
 4888 1322 0D       		.uleb128 0xd
 4889 1323 01       		.uleb128 0x1
 4890 1324 51       		.byte	0x51
 4891 1325 02       		.uleb128 0x2
 4892 1326 74       		.byte	0x74
 4893 1327 00       		.sleb128 0
 4894 1328 0D       		.uleb128 0xd
 4895 1329 01       		.uleb128 0x1
 4896 132a 50       		.byte	0x50
ARM GAS  C:\Users\Svilen\AppData\Local\Temp\ccuaxGpF.s 			page 104


 4897 132b 03       		.uleb128 0x3
 4898 132c 91       		.byte	0x91
 4899 132d B07F     		.sleb128 -80
 4900 132f 00       		.byte	0
 4901 1330 11       		.uleb128 0x11
 4902 1331 96030000 		.4byte	.LVL368
 4903 1335 A5070000 		.4byte	0x7a5
 4904 1339 4B130000 		.4byte	0x134b
 4905 133d 0D       		.uleb128 0xd
 4906 133e 01       		.uleb128 0x1
 4907 133f 51       		.byte	0x51
 4908 1340 02       		.uleb128 0x2
 4909 1341 74       		.byte	0x74
 4910 1342 00       		.sleb128 0
 4911 1343 0D       		.uleb128 0xd
 4912 1344 01       		.uleb128 0x1
 4913 1345 50       		.byte	0x50
 4914 1346 03       		.uleb128 0x3
 4915 1347 91       		.byte	0x91
 4916 1348 B07F     		.sleb128 -80
 4917 134a 00       		.byte	0
 4918 134b 12       		.uleb128 0x12
 4919 134c 9A030000 		.4byte	.LVL369
 4920 1350 2B180000 		.4byte	0x182b
 4921 1354 11       		.uleb128 0x11
 4922 1355 A4030000 		.4byte	.LVL370
 4923 1359 18190000 		.4byte	0x1918
 4924 135d 79130000 		.4byte	0x1379
 4925 1361 0D       		.uleb128 0xd
 4926 1362 01       		.uleb128 0x1
 4927 1363 52       		.byte	0x52
 4928 1364 03       		.uleb128 0x3
 4929 1365 0A       		.byte	0xa
 4930 1366 204E     		.2byte	0x4e20
 4931 1368 0D       		.uleb128 0xd
 4932 1369 01       		.uleb128 0x1
 4933 136a 51       		.byte	0x51
 4934 136b 05       		.uleb128 0x5
 4935 136c 03       		.byte	0x3
 4936 136d 34010000 		.4byte	.LC74
 4937 1371 0D       		.uleb128 0xd
 4938 1372 01       		.uleb128 0x1
 4939 1373 50       		.byte	0x50
 4940 1374 03       		.uleb128 0x3
 4941 1375 91       		.byte	0x91
 4942 1376 F47C     		.sleb128 -396
 4943 1378 00       		.byte	0
 4944 1379 11       		.uleb128 0x11
 4945 137a AA030000 		.4byte	.LVL371
 4946 137e A4180000 		.4byte	0x18a4
 4947 1382 8E130000 		.4byte	0x138e
 4948 1386 0D       		.uleb128 0xd
 4949 1387 01       		.uleb128 0x1
 4950 1388 50       		.byte	0x50
 4951 1389 03       		.uleb128 0x3
 4952 138a 91       		.byte	0x91
 4953 138b F47C     		.sleb128 -396
ARM GAS  C:\Users\Svilen\AppData\Local\Temp\ccuaxGpF.s 			page 105


 4954 138d 00       		.byte	0
 4955 138e 11       		.uleb128 0x11
 4956 138f B2030000 		.4byte	.LVL372
 4957 1393 A5070000 		.4byte	0x7a5
 4958 1397 A9130000 		.4byte	0x13a9
 4959 139b 0D       		.uleb128 0xd
 4960 139c 01       		.uleb128 0x1
 4961 139d 51       		.byte	0x51
 4962 139e 02       		.uleb128 0x2
 4963 139f 74       		.byte	0x74
 4964 13a0 00       		.sleb128 0
 4965 13a1 0D       		.uleb128 0xd
 4966 13a2 01       		.uleb128 0x1
 4967 13a3 50       		.byte	0x50
 4968 13a4 03       		.uleb128 0x3
 4969 13a5 91       		.byte	0x91
 4970 13a6 B07F     		.sleb128 -80
 4971 13a8 00       		.byte	0
 4972 13a9 11       		.uleb128 0x11
 4973 13aa BA030000 		.4byte	.LVL373
 4974 13ae A5070000 		.4byte	0x7a5
 4975 13b2 C4130000 		.4byte	0x13c4
 4976 13b6 0D       		.uleb128 0xd
 4977 13b7 01       		.uleb128 0x1
 4978 13b8 51       		.byte	0x51
 4979 13b9 02       		.uleb128 0x2
 4980 13ba 74       		.byte	0x74
 4981 13bb 00       		.sleb128 0
 4982 13bc 0D       		.uleb128 0xd
 4983 13bd 01       		.uleb128 0x1
 4984 13be 50       		.byte	0x50
 4985 13bf 03       		.uleb128 0x3
 4986 13c0 91       		.byte	0x91
 4987 13c1 B07F     		.sleb128 -80
 4988 13c3 00       		.byte	0
 4989 13c4 11       		.uleb128 0x11
 4990 13c5 C0030000 		.4byte	.LVL374
 4991 13c9 76180000 		.4byte	0x1876
 4992 13cd D7130000 		.4byte	0x13d7
 4993 13d1 0D       		.uleb128 0xd
 4994 13d2 01       		.uleb128 0x1
 4995 13d3 50       		.byte	0x50
 4996 13d4 01       		.uleb128 0x1
 4997 13d5 30       		.byte	0x30
 4998 13d6 00       		.byte	0
 4999 13d7 11       		.uleb128 0x11
 5000 13d8 C6030000 		.4byte	.LVL375
 5001 13dc 54180000 		.4byte	0x1854
 5002 13e0 EA130000 		.4byte	0x13ea
 5003 13e4 0D       		.uleb128 0xd
 5004 13e5 01       		.uleb128 0x1
 5005 13e6 50       		.byte	0x50
 5006 13e7 01       		.uleb128 0x1
 5007 13e8 31       		.byte	0x31
 5008 13e9 00       		.byte	0
 5009 13ea 11       		.uleb128 0x11
 5010 13eb 56040000 		.4byte	.LVL377
ARM GAS  C:\Users\Svilen\AppData\Local\Temp\ccuaxGpF.s 			page 106


 5011 13ef DA180000 		.4byte	0x18da
 5012 13f3 0D140000 		.4byte	0x140d
 5013 13f7 0D       		.uleb128 0xd
 5014 13f8 01       		.uleb128 0x1
 5015 13f9 52       		.byte	0x52
 5016 13fa 01       		.uleb128 0x1
 5017 13fb 41       		.byte	0x41
 5018 13fc 0D       		.uleb128 0xd
 5019 13fd 01       		.uleb128 0x1
 5020 13fe 51       		.byte	0x51
 5021 13ff 05       		.uleb128 0x5
 5022 1400 03       		.byte	0x3
 5023 1401 44010000 		.4byte	.LC76
 5024 1405 0D       		.uleb128 0xd
 5025 1406 01       		.uleb128 0x1
 5026 1407 50       		.byte	0x50
 5027 1408 03       		.uleb128 0x3
 5028 1409 91       		.byte	0x91
 5029 140a B07F     		.sleb128 -80
 5030 140c 00       		.byte	0
 5031 140d 11       		.uleb128 0x11
 5032 140e 64040000 		.4byte	.LVL379
 5033 1412 FD160000 		.4byte	0x16fd
 5034 1416 21140000 		.4byte	0x1421
 5035 141a 0D       		.uleb128 0xd
 5036 141b 01       		.uleb128 0x1
 5037 141c 50       		.byte	0x50
 5038 141d 02       		.uleb128 0x2
 5039 141e 74       		.byte	0x74
 5040 141f 00       		.sleb128 0
 5041 1420 00       		.byte	0
 5042 1421 12       		.uleb128 0x12
 5043 1422 68040000 		.4byte	.LVL380
 5044 1426 2B180000 		.4byte	0x182b
 5045 142a 11       		.uleb128 0x11
 5046 142b 6E040000 		.4byte	.LVL381
 5047 142f A4180000 		.4byte	0x18a4
 5048 1433 41140000 		.4byte	0x1441
 5049 1437 0D       		.uleb128 0xd
 5050 1438 01       		.uleb128 0x1
 5051 1439 50       		.byte	0x50
 5052 143a 05       		.uleb128 0x5
 5053 143b 03       		.byte	0x3
 5054 143c 24010000 		.4byte	.LC72
 5055 1440 00       		.byte	0
 5056 1441 11       		.uleb128 0x11
 5057 1442 74040000 		.4byte	.LVL382
 5058 1446 FD160000 		.4byte	0x16fd
 5059 144a 55140000 		.4byte	0x1455
 5060 144e 0D       		.uleb128 0xd
 5061 144f 01       		.uleb128 0x1
 5062 1450 50       		.byte	0x50
 5063 1451 02       		.uleb128 0x2
 5064 1452 74       		.byte	0x74
 5065 1453 00       		.sleb128 0
 5066 1454 00       		.byte	0
 5067 1455 11       		.uleb128 0x11
ARM GAS  C:\Users\Svilen\AppData\Local\Temp\ccuaxGpF.s 			page 107


 5068 1456 80040000 		.4byte	.LVL384
 5069 145a DA180000 		.4byte	0x18da
 5070 145e 78140000 		.4byte	0x1478
 5071 1462 0D       		.uleb128 0xd
 5072 1463 01       		.uleb128 0x1
 5073 1464 52       		.byte	0x52
 5074 1465 01       		.uleb128 0x1
 5075 1466 35       		.byte	0x35
 5076 1467 0D       		.uleb128 0xd
 5077 1468 01       		.uleb128 0x1
 5078 1469 51       		.byte	0x51
 5079 146a 05       		.uleb128 0x5
 5080 146b 03       		.byte	0x3
 5081 146c 58010000 		.4byte	.LC78
 5082 1470 0D       		.uleb128 0xd
 5083 1471 01       		.uleb128 0x1
 5084 1472 50       		.byte	0x50
 5085 1473 03       		.uleb128 0x3
 5086 1474 91       		.byte	0x91
 5087 1475 B07F     		.sleb128 -80
 5088 1477 00       		.byte	0
 5089 1478 11       		.uleb128 0x11
 5090 1479 8C040000 		.4byte	.LVL385
 5091 147d 65180000 		.4byte	0x1865
 5092 1481 8B140000 		.4byte	0x148b
 5093 1485 0D       		.uleb128 0xd
 5094 1486 01       		.uleb128 0x1
 5095 1487 50       		.byte	0x50
 5096 1488 01       		.uleb128 0x1
 5097 1489 30       		.byte	0x30
 5098 148a 00       		.byte	0
 5099 148b 11       		.uleb128 0x11
 5100 148c 92040000 		.4byte	.LVL386
 5101 1490 FD160000 		.4byte	0x16fd
 5102 1494 9F140000 		.4byte	0x149f
 5103 1498 0D       		.uleb128 0xd
 5104 1499 01       		.uleb128 0x1
 5105 149a 50       		.byte	0x50
 5106 149b 02       		.uleb128 0x2
 5107 149c 08       		.byte	0x8
 5108 149d 64       		.byte	0x64
 5109 149e 00       		.byte	0
 5110 149f 11       		.uleb128 0x11
 5111 14a0 98040000 		.4byte	.LVL387
 5112 14a4 65180000 		.4byte	0x1865
 5113 14a8 B2140000 		.4byte	0x14b2
 5114 14ac 0D       		.uleb128 0xd
 5115 14ad 01       		.uleb128 0x1
 5116 14ae 50       		.byte	0x50
 5117 14af 01       		.uleb128 0x1
 5118 14b0 31       		.byte	0x31
 5119 14b1 00       		.byte	0
 5120 14b2 11       		.uleb128 0x11
 5121 14b3 9E040000 		.4byte	.LVL388
 5122 14b7 FD160000 		.4byte	0x16fd
 5123 14bb C6140000 		.4byte	0x14c6
 5124 14bf 0D       		.uleb128 0xd
ARM GAS  C:\Users\Svilen\AppData\Local\Temp\ccuaxGpF.s 			page 108


 5125 14c0 01       		.uleb128 0x1
 5126 14c1 50       		.byte	0x50
 5127 14c2 02       		.uleb128 0x2
 5128 14c3 08       		.byte	0x8
 5129 14c4 64       		.byte	0x64
 5130 14c5 00       		.byte	0
 5131 14c6 11       		.uleb128 0x11
 5132 14c7 AE040000 		.4byte	.LVL391
 5133 14cb 76180000 		.4byte	0x1876
 5134 14cf D9140000 		.4byte	0x14d9
 5135 14d3 0D       		.uleb128 0xd
 5136 14d4 01       		.uleb128 0x1
 5137 14d5 50       		.byte	0x50
 5138 14d6 01       		.uleb128 0x1
 5139 14d7 31       		.byte	0x31
 5140 14d8 00       		.byte	0
 5141 14d9 11       		.uleb128 0x11
 5142 14da B6040000 		.4byte	.LVL392
 5143 14de 65180000 		.4byte	0x1865
 5144 14e2 EC140000 		.4byte	0x14ec
 5145 14e6 0D       		.uleb128 0xd
 5146 14e7 01       		.uleb128 0x1
 5147 14e8 50       		.byte	0x50
 5148 14e9 01       		.uleb128 0x1
 5149 14ea 30       		.byte	0x30
 5150 14eb 00       		.byte	0
 5151 14ec 11       		.uleb128 0x11
 5152 14ed C0040000 		.4byte	.LVL393
 5153 14f1 DA180000 		.4byte	0x18da
 5154 14f5 0F150000 		.4byte	0x150f
 5155 14f9 0D       		.uleb128 0xd
 5156 14fa 01       		.uleb128 0x1
 5157 14fb 52       		.byte	0x52
 5158 14fc 01       		.uleb128 0x1
 5159 14fd 35       		.byte	0x35
 5160 14fe 0D       		.uleb128 0xd
 5161 14ff 01       		.uleb128 0x1
 5162 1500 51       		.byte	0x51
 5163 1501 05       		.uleb128 0x5
 5164 1502 03       		.byte	0x3
 5165 1503 60010000 		.4byte	.LC80
 5166 1507 0D       		.uleb128 0xd
 5167 1508 01       		.uleb128 0x1
 5168 1509 50       		.byte	0x50
 5169 150a 03       		.uleb128 0x3
 5170 150b 91       		.byte	0x91
 5171 150c B07F     		.sleb128 -80
 5172 150e 00       		.byte	0
 5173 150f 11       		.uleb128 0x11
 5174 1510 CC040000 		.4byte	.LVL394
 5175 1514 65180000 		.4byte	0x1865
 5176 1518 22150000 		.4byte	0x1522
 5177 151c 0D       		.uleb128 0xd
 5178 151d 01       		.uleb128 0x1
 5179 151e 50       		.byte	0x50
 5180 151f 01       		.uleb128 0x1
 5181 1520 30       		.byte	0x30
ARM GAS  C:\Users\Svilen\AppData\Local\Temp\ccuaxGpF.s 			page 109


 5182 1521 00       		.byte	0
 5183 1522 11       		.uleb128 0x11
 5184 1523 D2040000 		.4byte	.LVL395
 5185 1527 FD160000 		.4byte	0x16fd
 5186 152b 36150000 		.4byte	0x1536
 5187 152f 0D       		.uleb128 0xd
 5188 1530 01       		.uleb128 0x1
 5189 1531 50       		.byte	0x50
 5190 1532 02       		.uleb128 0x2
 5191 1533 08       		.byte	0x8
 5192 1534 64       		.byte	0x64
 5193 1535 00       		.byte	0
 5194 1536 11       		.uleb128 0x11
 5195 1537 D8040000 		.4byte	.LVL396
 5196 153b 65180000 		.4byte	0x1865
 5197 153f 49150000 		.4byte	0x1549
 5198 1543 0D       		.uleb128 0xd
 5199 1544 01       		.uleb128 0x1
 5200 1545 50       		.byte	0x50
 5201 1546 01       		.uleb128 0x1
 5202 1547 31       		.byte	0x31
 5203 1548 00       		.byte	0
 5204 1549 11       		.uleb128 0x11
 5205 154a DE040000 		.4byte	.LVL397
 5206 154e FD160000 		.4byte	0x16fd
 5207 1552 5D150000 		.4byte	0x155d
 5208 1556 0D       		.uleb128 0xd
 5209 1557 01       		.uleb128 0x1
 5210 1558 50       		.byte	0x50
 5211 1559 02       		.uleb128 0x2
 5212 155a 08       		.byte	0x8
 5213 155b 64       		.byte	0x64
 5214 155c 00       		.byte	0
 5215 155d 0C       		.uleb128 0xc
 5216 155e F8040000 		.4byte	.LVL402
 5217 1562 76180000 		.4byte	0x1876
 5218 1566 0D       		.uleb128 0xd
 5219 1567 01       		.uleb128 0x1
 5220 1568 50       		.byte	0x50
 5221 1569 01       		.uleb128 0x1
 5222 156a 31       		.byte	0x31
 5223 156b 00       		.byte	0
 5224 156c 00       		.byte	0
 5225 156d 23       		.uleb128 0x23
 5226 156e C1000000 		.4byte	0xc1
 5227 1572 7D150000 		.4byte	0x157d
 5228 1576 24       		.uleb128 0x24
 5229 1577 E6000000 		.4byte	0xe6
 5230 157b 3F       		.byte	0x3f
 5231 157c 00       		.byte	0
 5232 157d 23       		.uleb128 0x23
 5233 157e C1000000 		.4byte	0xc1
 5234 1582 8D150000 		.4byte	0x158d
 5235 1586 24       		.uleb128 0x24
 5236 1587 E6000000 		.4byte	0xe6
 5237 158b 08       		.byte	0x8
 5238 158c 00       		.byte	0
ARM GAS  C:\Users\Svilen\AppData\Local\Temp\ccuaxGpF.s 			page 110


 5239 158d 23       		.uleb128 0x23
 5240 158e C1000000 		.4byte	0xc1
 5241 1592 9D150000 		.4byte	0x159d
 5242 1596 24       		.uleb128 0x24
 5243 1597 E6000000 		.4byte	0xe6
 5244 159b EF       		.byte	0xef
 5245 159c 00       		.byte	0
 5246 159d 23       		.uleb128 0x23
 5247 159e C1000000 		.4byte	0xc1
 5248 15a2 AD150000 		.4byte	0x15ad
 5249 15a6 24       		.uleb128 0x24
 5250 15a7 E6000000 		.4byte	0xe6
 5251 15ab 1F       		.byte	0x1f
 5252 15ac 00       		.byte	0
 5253 15ad 25       		.uleb128 0x25
 5254 15ae 12030000 		.4byte	.LASF65
 5255 15b2 01       		.byte	0x1
 5256 15b3 1C       		.byte	0x1c
 5257 15b4 6B000000 		.4byte	0x6b
 5258 15b8 05       		.uleb128 0x5
 5259 15b9 03       		.byte	0x3
 5260 15ba 00000000 		.4byte	timeoutFlag
 5261 15be 25       		.uleb128 0x25
 5262 15bf 06010000 		.4byte	.LASF66
 5263 15c3 01       		.byte	0x1
 5264 15c4 28       		.byte	0x28
 5265 15c5 00010000 		.4byte	0x100
 5266 15c9 05       		.uleb128 0x5
 5267 15ca 03       		.byte	0x3
 5268 15cb 00000000 		.4byte	rainCounter
 5269 15cf 26       		.uleb128 0x26
 5270 15d0 41433100 		.ascii	"AC1\000"
 5271 15d4 01       		.byte	0x1
 5272 15d5 38       		.byte	0x38
 5273 15d6 9B000000 		.4byte	0x9b
 5274 15da 05       		.uleb128 0x5
 5275 15db 03       		.byte	0x3
 5276 15dc 00000000 		.4byte	AC1
 5277 15e0 26       		.uleb128 0x26
 5278 15e1 41433200 		.ascii	"AC2\000"
 5279 15e5 01       		.byte	0x1
 5280 15e6 38       		.byte	0x38
 5281 15e7 9B000000 		.4byte	0x9b
 5282 15eb 05       		.uleb128 0x5
 5283 15ec 03       		.byte	0x3
 5284 15ed 00000000 		.4byte	AC2
 5285 15f1 26       		.uleb128 0x26
 5286 15f2 41433300 		.ascii	"AC3\000"
 5287 15f6 01       		.byte	0x1
 5288 15f7 38       		.byte	0x38
 5289 15f8 9B000000 		.4byte	0x9b
 5290 15fc 05       		.uleb128 0x5
 5291 15fd 03       		.byte	0x3
 5292 15fe 00000000 		.4byte	AC3
 5293 1602 26       		.uleb128 0x26
 5294 1603 423100   		.ascii	"B1\000"
 5295 1606 01       		.byte	0x1
ARM GAS  C:\Users\Svilen\AppData\Local\Temp\ccuaxGpF.s 			page 111


 5296 1607 38       		.byte	0x38
 5297 1608 9B000000 		.4byte	0x9b
 5298 160c 05       		.uleb128 0x5
 5299 160d 03       		.byte	0x3
 5300 160e 00000000 		.4byte	B1
 5301 1612 26       		.uleb128 0x26
 5302 1613 423200   		.ascii	"B2\000"
 5303 1616 01       		.byte	0x1
 5304 1617 38       		.byte	0x38
 5305 1618 9B000000 		.4byte	0x9b
 5306 161c 05       		.uleb128 0x5
 5307 161d 03       		.byte	0x3
 5308 161e 00000000 		.4byte	B2
 5309 1622 26       		.uleb128 0x26
 5310 1623 4D4200   		.ascii	"MB\000"
 5311 1626 01       		.byte	0x1
 5312 1627 38       		.byte	0x38
 5313 1628 9B000000 		.4byte	0x9b
 5314 162c 05       		.uleb128 0x5
 5315 162d 03       		.byte	0x3
 5316 162e 00000000 		.4byte	MB
 5317 1632 26       		.uleb128 0x26
 5318 1633 4D4300   		.ascii	"MC\000"
 5319 1636 01       		.byte	0x1
 5320 1637 38       		.byte	0x38
 5321 1638 9B000000 		.4byte	0x9b
 5322 163c 05       		.uleb128 0x5
 5323 163d 03       		.byte	0x3
 5324 163e 00000000 		.4byte	MC
 5325 1642 26       		.uleb128 0x26
 5326 1643 4D4400   		.ascii	"MD\000"
 5327 1646 01       		.byte	0x1
 5328 1647 38       		.byte	0x38
 5329 1648 9B000000 		.4byte	0x9b
 5330 164c 05       		.uleb128 0x5
 5331 164d 03       		.byte	0x3
 5332 164e 00000000 		.4byte	MD
 5333 1652 26       		.uleb128 0x26
 5334 1653 41433400 		.ascii	"AC4\000"
 5335 1657 01       		.byte	0x1
 5336 1658 39       		.byte	0x39
 5337 1659 77000000 		.4byte	0x77
 5338 165d 05       		.uleb128 0x5
 5339 165e 03       		.byte	0x3
 5340 165f 00000000 		.4byte	AC4
 5341 1663 26       		.uleb128 0x26
 5342 1664 41433500 		.ascii	"AC5\000"
 5343 1668 01       		.byte	0x1
 5344 1669 39       		.byte	0x39
 5345 166a 77000000 		.4byte	0x77
 5346 166e 05       		.uleb128 0x5
 5347 166f 03       		.byte	0x3
 5348 1670 00000000 		.4byte	AC5
 5349 1674 26       		.uleb128 0x26
 5350 1675 41433600 		.ascii	"AC6\000"
 5351 1679 01       		.byte	0x1
 5352 167a 39       		.byte	0x39
ARM GAS  C:\Users\Svilen\AppData\Local\Temp\ccuaxGpF.s 			page 112


 5353 167b 77000000 		.4byte	0x77
 5354 167f 05       		.uleb128 0x5
 5355 1680 03       		.byte	0x3
 5356 1681 00000000 		.4byte	AC6
 5357 1685 25       		.uleb128 0x25
 5358 1686 48000000 		.4byte	.LASF67
 5359 168a 01       		.byte	0x1
 5360 168b 3D       		.byte	0x3d
 5361 168c 9B000000 		.4byte	0x9b
 5362 1690 05       		.uleb128 0x5
 5363 1691 03       		.byte	0x3
 5364 1692 00000000 		.4byte	AM2302_Humidity
 5365 1696 25       		.uleb128 0x25
 5366 1697 06030000 		.4byte	.LASF68
 5367 169b 01       		.byte	0x1
 5368 169c 3E       		.byte	0x3e
 5369 169d 9B000000 		.4byte	0x9b
 5370 16a1 05       		.uleb128 0x5
 5371 16a2 03       		.byte	0x3
 5372 16a3 00000000 		.4byte	AM2302_Temp
 5373 16a7 25       		.uleb128 0x25
 5374 16a8 5F050000 		.4byte	.LASF69
 5375 16ac 01       		.byte	0x1
 5376 16ad 3F       		.byte	0x3f
 5377 16ae 8F000000 		.4byte	0x8f
 5378 16b2 05       		.uleb128 0x5
 5379 16b3 03       		.byte	0x3
 5380 16b4 00000000 		.4byte	AM2302_CRC
 5381 16b8 25       		.uleb128 0x25
 5382 16b9 2D020000 		.4byte	.LASF70
 5383 16bd 01       		.byte	0x1
 5384 16be 42       		.byte	0x42
 5385 16bf 77000000 		.4byte	0x77
 5386 16c3 05       		.uleb128 0x5
 5387 16c4 03       		.byte	0x3
 5388 16c5 00000000 		.4byte	windDirection
 5389 16c9 25       		.uleb128 0x25
 5390 16ca 8F030000 		.4byte	.LASF71
 5391 16ce 01       		.byte	0x1
 5392 16cf 43       		.byte	0x43
 5393 16d0 77000000 		.4byte	0x77
 5394 16d4 05       		.uleb128 0x5
 5395 16d5 03       		.byte	0x3
 5396 16d6 00000000 		.4byte	windSpeed
 5397 16da 27       		.uleb128 0x27
 5398 16db 5F040000 		.4byte	.LASF72
 5399 16df 05       		.byte	0x5
 5400 16e0 4701     		.2byte	0x147
 5401 16e2 EC160000 		.4byte	0x16ec
 5402 16e6 28       		.uleb128 0x28
 5403 16e7 83000000 		.4byte	0x83
 5404 16eb 00       		.byte	0
 5405 16ec 29       		.uleb128 0x29
 5406 16ed 55050000 		.4byte	.LASF73
 5407 16f1 06       		.byte	0x6
 5408 16f2 33       		.byte	0x33
 5409 16f3 FD160000 		.4byte	0x16fd
ARM GAS  C:\Users\Svilen\AppData\Local\Temp\ccuaxGpF.s 			page 113


 5410 16f7 28       		.uleb128 0x28
 5411 16f8 6B000000 		.4byte	0x6b
 5412 16fc 00       		.byte	0
 5413 16fd 29       		.uleb128 0x29
 5414 16fe 00000000 		.4byte	.LASF74
 5415 1702 07       		.byte	0x7
 5416 1703 D7       		.byte	0xd7
 5417 1704 0E170000 		.4byte	0x170e
 5418 1708 28       		.uleb128 0x28
 5419 1709 83000000 		.4byte	0x83
 5420 170d 00       		.byte	0
 5421 170e 2A       		.uleb128 0x2a
 5422 170f 46020000 		.4byte	.LASF75
 5423 1713 06       		.byte	0x6
 5424 1714 32       		.byte	0x32
 5425 1715 6B000000 		.4byte	0x6b
 5426 1719 2B       		.uleb128 0x2b
 5427 171a 90010000 		.4byte	.LASF76
 5428 171e 08       		.byte	0x8
 5429 171f 1001     		.2byte	0x110
 5430 1721 83000000 		.4byte	0x83
 5431 1725 2C       		.uleb128 0x2c
 5432 1726 99040000 		.4byte	.LASF77
 5433 172a 08       		.byte	0x8
 5434 172b 1B01     		.2byte	0x11b
 5435 172d 83000000 		.4byte	0x83
 5436 1731 40170000 		.4byte	0x1740
 5437 1735 28       		.uleb128 0x28
 5438 1736 83000000 		.4byte	0x83
 5439 173a 28       		.uleb128 0x28
 5440 173b 83000000 		.4byte	0x83
 5441 173f 00       		.byte	0
 5442 1740 2C       		.uleb128 0x2c
 5443 1741 61000000 		.4byte	.LASF78
 5444 1745 08       		.byte	0x8
 5445 1746 1E01     		.2byte	0x11e
 5446 1748 83000000 		.4byte	0x83
 5447 174c 56170000 		.4byte	0x1756
 5448 1750 28       		.uleb128 0x28
 5449 1751 83000000 		.4byte	0x83
 5450 1755 00       		.byte	0
 5451 1756 2C       		.uleb128 0x2c
 5452 1757 32010000 		.4byte	.LASF79
 5453 175b 08       		.byte	0x8
 5454 175c 1C01     		.2byte	0x11c
 5455 175e 83000000 		.4byte	0x83
 5456 1762 71170000 		.4byte	0x1771
 5457 1766 28       		.uleb128 0x28
 5458 1767 83000000 		.4byte	0x83
 5459 176b 28       		.uleb128 0x28
 5460 176c 83000000 		.4byte	0x83
 5461 1770 00       		.byte	0
 5462 1771 2C       		.uleb128 0x2c
 5463 1772 FF040000 		.4byte	.LASF80
 5464 1776 08       		.byte	0x8
 5465 1777 1F01     		.2byte	0x11f
 5466 1779 83000000 		.4byte	0x83
ARM GAS  C:\Users\Svilen\AppData\Local\Temp\ccuaxGpF.s 			page 114


 5467 177d 87170000 		.4byte	0x1787
 5468 1781 28       		.uleb128 0x28
 5469 1782 83000000 		.4byte	0x83
 5470 1786 00       		.byte	0
 5471 1787 2B       		.uleb128 0x2b
 5472 1788 6A050000 		.4byte	.LASF81
 5473 178c 08       		.byte	0x8
 5474 178d 1D01     		.2byte	0x11d
 5475 178f 83000000 		.4byte	0x83
 5476 1793 2D       		.uleb128 0x2d
 5477 1794 B1010000 		.4byte	.LASF84
 5478 1798 05       		.byte	0x5
 5479 1799 3301     		.2byte	0x133
 5480 179b 27       		.uleb128 0x27
 5481 179c F1000000 		.4byte	.LASF82
 5482 17a0 05       		.byte	0x5
 5483 17a1 5501     		.2byte	0x155
 5484 17a3 AD170000 		.4byte	0x17ad
 5485 17a7 28       		.uleb128 0x28
 5486 17a8 83000000 		.4byte	0x83
 5487 17ac 00       		.byte	0
 5488 17ad 27       		.uleb128 0x27
 5489 17ae BA050000 		.4byte	.LASF83
 5490 17b2 05       		.byte	0x5
 5491 17b3 4A01     		.2byte	0x14a
 5492 17b5 BF170000 		.4byte	0x17bf
 5493 17b9 28       		.uleb128 0x28
 5494 17ba 83000000 		.4byte	0x83
 5495 17be 00       		.byte	0
 5496 17bf 2D       		.uleb128 0x2d
 5497 17c0 A3020000 		.4byte	.LASF85
 5498 17c4 05       		.byte	0x5
 5499 17c5 3201     		.2byte	0x132
 5500 17c7 2A       		.uleb128 0x2a
 5501 17c8 44030000 		.4byte	.LASF86
 5502 17cc 09       		.byte	0x9
 5503 17cd 71       		.byte	0x71
 5504 17ce 6B000000 		.4byte	0x6b
 5505 17d2 2A       		.uleb128 0x2a
 5506 17d3 85000000 		.4byte	.LASF87
 5507 17d7 0A       		.byte	0xa
 5508 17d8 32       		.byte	0x32
 5509 17d9 6B000000 		.4byte	0x6b
 5510 17dd 29       		.uleb128 0x29
 5511 17de 8B050000 		.4byte	.LASF88
 5512 17e2 0B       		.byte	0xb
 5513 17e3 33       		.byte	0x33
 5514 17e4 EE170000 		.4byte	0x17ee
 5515 17e8 28       		.uleb128 0x28
 5516 17e9 6B000000 		.4byte	0x6b
 5517 17ed 00       		.byte	0
 5518 17ee 2A       		.uleb128 0x2a
 5519 17ef 12010000 		.4byte	.LASF89
 5520 17f3 0C       		.byte	0xc
 5521 17f4 2B       		.byte	0x2b
 5522 17f5 77000000 		.4byte	0x77
 5523 17f9 29       		.uleb128 0x29
ARM GAS  C:\Users\Svilen\AppData\Local\Temp\ccuaxGpF.s 			page 115


 5524 17fa 23050000 		.4byte	.LASF90
 5525 17fe 0C       		.byte	0xc
 5526 17ff 29       		.byte	0x29
 5527 1800 0F180000 		.4byte	0x180f
 5528 1804 28       		.uleb128 0x28
 5529 1805 77000000 		.4byte	0x77
 5530 1809 28       		.uleb128 0x28
 5531 180a 6B000000 		.4byte	0x6b
 5532 180e 00       		.byte	0
 5533 180f 2E       		.uleb128 0x2e
 5534 1810 DB010000 		.4byte	.LASF91
 5535 1814 0D       		.byte	0xd
 5536 1815 98       		.byte	0x98
 5537 1816 2E       		.uleb128 0x2e
 5538 1817 CB010000 		.4byte	.LASF92
 5539 181b 0E       		.byte	0xe
 5540 181c 25       		.byte	0x25
 5541 181d 2E       		.uleb128 0x2e
 5542 181e E7000000 		.4byte	.LASF93
 5543 1822 0F       		.byte	0xf
 5544 1823 6E       		.byte	0x6e
 5545 1824 2E       		.uleb128 0x2e
 5546 1825 7D040000 		.4byte	.LASF94
 5547 1829 09       		.byte	0x9
 5548 182a 54       		.byte	0x54
 5549 182b 2E       		.uleb128 0x2e
 5550 182c 4F020000 		.4byte	.LASF95
 5551 1830 09       		.byte	0x9
 5552 1831 75       		.byte	0x75
 5553 1832 29       		.uleb128 0x29
 5554 1833 CC020000 		.4byte	.LASF96
 5555 1837 10       		.byte	0x10
 5556 1838 18       		.byte	0x18
 5557 1839 43180000 		.4byte	0x1843
 5558 183d 28       		.uleb128 0x28
 5559 183e C8000000 		.4byte	0xc8
 5560 1842 00       		.byte	0
 5561 1843 29       		.uleb128 0x29
 5562 1844 FF010000 		.4byte	.LASF97
 5563 1848 11       		.byte	0x11
 5564 1849 18       		.byte	0x18
 5565 184a 54180000 		.4byte	0x1854
 5566 184e 28       		.uleb128 0x28
 5567 184f C8000000 		.4byte	0xc8
 5568 1853 00       		.byte	0
 5569 1854 29       		.uleb128 0x29
 5570 1855 58010000 		.4byte	.LASF98
 5571 1859 12       		.byte	0x12
 5572 185a 33       		.byte	0x33
 5573 185b 65180000 		.4byte	0x1865
 5574 185f 28       		.uleb128 0x28
 5575 1860 6B000000 		.4byte	0x6b
 5576 1864 00       		.byte	0
 5577 1865 29       		.uleb128 0x29
 5578 1866 C0000000 		.4byte	.LASF99
 5579 186a 13       		.byte	0x13
 5580 186b 33       		.byte	0x33
ARM GAS  C:\Users\Svilen\AppData\Local\Temp\ccuaxGpF.s 			page 116


 5581 186c 76180000 		.4byte	0x1876
 5582 1870 28       		.uleb128 0x28
 5583 1871 6B000000 		.4byte	0x6b
 5584 1875 00       		.byte	0
 5585 1876 29       		.uleb128 0x29
 5586 1877 16000000 		.4byte	.LASF100
 5587 187b 14       		.byte	0x14
 5588 187c 33       		.byte	0x33
 5589 187d 87180000 		.4byte	0x1887
 5590 1881 28       		.uleb128 0x28
 5591 1882 6B000000 		.4byte	0x6b
 5592 1886 00       		.byte	0
 5593 1887 2F       		.uleb128 0x2f
 5594 1888 1E030000 		.4byte	.LASF101
 5595 188c ED000000 		.4byte	0xed
 5596 1890 A4180000 		.4byte	0x18a4
 5597 1894 28       		.uleb128 0x28
 5598 1895 ED000000 		.4byte	0xed
 5599 1899 28       		.uleb128 0x28
 5600 189a 5D000000 		.4byte	0x5d
 5601 189e 28       		.uleb128 0x28
 5602 189f E6000000 		.4byte	0xe6
 5603 18a3 00       		.byte	0
 5604 18a4 29       		.uleb128 0x29
 5605 18a5 8E020000 		.4byte	.LASF102
 5606 18a9 09       		.byte	0x9
 5607 18aa 8B       		.byte	0x8b
 5608 18ab B5180000 		.4byte	0x18b5
 5609 18af 28       		.uleb128 0x28
 5610 18b0 B5180000 		.4byte	0x18b5
 5611 18b4 00       		.byte	0
 5612 18b5 05       		.uleb128 0x5
 5613 18b6 04       		.byte	0x4
 5614 18b7 BB180000 		.4byte	0x18bb
 5615 18bb 09       		.uleb128 0x9
 5616 18bc B5000000 		.4byte	0xb5
 5617 18c0 30       		.uleb128 0x30
 5618 18c1 87020000 		.4byte	.LASF103
 5619 18c5 15       		.byte	0x15
 5620 18c6 1C       		.byte	0x1c
 5621 18c7 5D000000 		.4byte	0x5d
 5622 18cb DA180000 		.4byte	0x18da
 5623 18cf 28       		.uleb128 0x28
 5624 18d0 F5000000 		.4byte	0xf5
 5625 18d4 28       		.uleb128 0x28
 5626 18d5 F5000000 		.4byte	0xf5
 5627 18d9 00       		.byte	0
 5628 18da 30       		.uleb128 0x30
 5629 18db 40000000 		.4byte	.LASF104
 5630 18df 15       		.byte	0x15
 5631 18e0 23       		.byte	0x23
 5632 18e1 5D000000 		.4byte	0x5d
 5633 18e5 F9180000 		.4byte	0x18f9
 5634 18e9 28       		.uleb128 0x28
 5635 18ea F5000000 		.4byte	0xf5
 5636 18ee 28       		.uleb128 0x28
 5637 18ef F5000000 		.4byte	0xf5
ARM GAS  C:\Users\Svilen\AppData\Local\Temp\ccuaxGpF.s 			page 117


 5638 18f3 28       		.uleb128 0x28
 5639 18f4 DB000000 		.4byte	0xdb
 5640 18f8 00       		.byte	0
 5641 18f9 30       		.uleb128 0x30
 5642 18fa A9010000 		.4byte	.LASF105
 5643 18fe 15       		.byte	0x15
 5644 18ff 24       		.byte	0x24
 5645 1900 EF000000 		.4byte	0xef
 5646 1904 18190000 		.4byte	0x1918
 5647 1908 28       		.uleb128 0x28
 5648 1909 EF000000 		.4byte	0xef
 5649 190d 28       		.uleb128 0x28
 5650 190e F5000000 		.4byte	0xf5
 5651 1912 28       		.uleb128 0x28
 5652 1913 DB000000 		.4byte	0xdb
 5653 1917 00       		.byte	0
 5654 1918 30       		.uleb128 0x30
 5655 1919 74030000 		.4byte	.LASF106
 5656 191d 16       		.byte	0x16
 5657 191e DE       		.byte	0xde
 5658 191f 5D000000 		.4byte	0x5d
 5659 1923 33190000 		.4byte	0x1933
 5660 1927 28       		.uleb128 0x28
 5661 1928 EF000000 		.4byte	0xef
 5662 192c 28       		.uleb128 0x28
 5663 192d F5000000 		.4byte	0xf5
 5664 1931 31       		.uleb128 0x31
 5665 1932 00       		.byte	0
 5666 1933 30       		.uleb128 0x30
 5667 1934 51010000 		.4byte	.LASF107
 5668 1938 15       		.byte	0x15
 5669 1939 1A       		.byte	0x1a
 5670 193a EF000000 		.4byte	0xef
 5671 193e 4D190000 		.4byte	0x194d
 5672 1942 28       		.uleb128 0x28
 5673 1943 EF000000 		.4byte	0xef
 5674 1947 28       		.uleb128 0x28
 5675 1948 F5000000 		.4byte	0xf5
 5676 194c 00       		.byte	0
 5677 194d 2E       		.uleb128 0x2e
 5678 194e 88040000 		.4byte	.LASF108
 5679 1952 0D       		.byte	0xd
 5680 1953 9C       		.byte	0x9c
 5681 1954 30       		.uleb128 0x30
 5682 1955 D3000000 		.4byte	.LASF109
 5683 1959 0D       		.byte	0xd
 5684 195a 9E       		.byte	0x9e
 5685 195b 83000000 		.4byte	0x83
 5686 195f 69190000 		.4byte	0x1969
 5687 1963 28       		.uleb128 0x28
 5688 1964 83000000 		.4byte	0x83
 5689 1968 00       		.byte	0
 5690 1969 30       		.uleb128 0x30
 5691 196a F6020000 		.4byte	.LASF110
 5692 196e 0D       		.byte	0xd
 5693 196f 9F       		.byte	0x9f
 5694 1970 9B000000 		.4byte	0x9b
ARM GAS  C:\Users\Svilen\AppData\Local\Temp\ccuaxGpF.s 			page 118


 5695 1974 7E190000 		.4byte	0x197e
 5696 1978 28       		.uleb128 0x28
 5697 1979 83000000 		.4byte	0x83
 5698 197d 00       		.byte	0
 5699 197e 30       		.uleb128 0x30
 5700 197f EB010000 		.4byte	.LASF111
 5701 1983 0D       		.byte	0xd
 5702 1984 AB       		.byte	0xab
 5703 1985 9B000000 		.4byte	0x9b
 5704 1989 98190000 		.4byte	0x1998
 5705 198d 28       		.uleb128 0x28
 5706 198e 83000000 		.4byte	0x83
 5707 1992 28       		.uleb128 0x28
 5708 1993 9B000000 		.4byte	0x9b
 5709 1997 00       		.byte	0
 5710 1998 32       		.uleb128 0x32
 5711 1999 D5040000 		.4byte	.LASF113
 5712 199d 17       		.byte	0x17
 5713 199e 00       		.byte	0
 5714 199f 22000000 		.4byte	.LASF115
 5715 19a3 64000000 		.4byte	0x64
 5716 19a7 B1190000 		.4byte	0x19b1
 5717 19ab 28       		.uleb128 0x28
 5718 19ac F5000000 		.4byte	0xf5
 5719 19b0 00       		.byte	0
 5720 19b1 2F       		.uleb128 0x2f
 5721 19b2 CF050000 		.4byte	.LASF114
 5722 19b6 ED000000 		.4byte	0xed
 5723 19ba CE190000 		.4byte	0x19ce
 5724 19be 28       		.uleb128 0x28
 5725 19bf ED000000 		.4byte	0xed
 5726 19c3 28       		.uleb128 0x28
 5727 19c4 CE190000 		.4byte	0x19ce
 5728 19c8 28       		.uleb128 0x28
 5729 19c9 E6000000 		.4byte	0xe6
 5730 19cd 00       		.byte	0
 5731 19ce 05       		.uleb128 0x5
 5732 19cf 04       		.byte	0x4
 5733 19d0 D4190000 		.4byte	0x19d4
 5734 19d4 33       		.uleb128 0x33
 5735 19d5 34       		.uleb128 0x34
 5736 19d6 22000000 		.4byte	.LASF115
 5737 19da 15       		.byte	0x15
 5738 19db 21       		.byte	0x21
 5739 19dc DB000000 		.4byte	0xdb
 5740 19e0 28       		.uleb128 0x28
 5741 19e1 F5000000 		.4byte	0xf5
 5742 19e5 00       		.byte	0
 5743 19e6 00       		.byte	0
 5744              		.section	.debug_abbrev,"",%progbits
 5745              	.Ldebug_abbrev0:
 5746 0000 01       		.uleb128 0x1
 5747 0001 11       		.uleb128 0x11
 5748 0002 01       		.byte	0x1
 5749 0003 25       		.uleb128 0x25
 5750 0004 0E       		.uleb128 0xe
 5751 0005 13       		.uleb128 0x13
ARM GAS  C:\Users\Svilen\AppData\Local\Temp\ccuaxGpF.s 			page 119


 5752 0006 0B       		.uleb128 0xb
 5753 0007 03       		.uleb128 0x3
 5754 0008 0E       		.uleb128 0xe
 5755 0009 1B       		.uleb128 0x1b
 5756 000a 0E       		.uleb128 0xe
 5757 000b 55       		.uleb128 0x55
 5758 000c 17       		.uleb128 0x17
 5759 000d 11       		.uleb128 0x11
 5760 000e 01       		.uleb128 0x1
 5761 000f 10       		.uleb128 0x10
 5762 0010 17       		.uleb128 0x17
 5763 0011 00       		.byte	0
 5764 0012 00       		.byte	0
 5765 0013 02       		.uleb128 0x2
 5766 0014 24       		.uleb128 0x24
 5767 0015 00       		.byte	0
 5768 0016 0B       		.uleb128 0xb
 5769 0017 0B       		.uleb128 0xb
 5770 0018 3E       		.uleb128 0x3e
 5771 0019 0B       		.uleb128 0xb
 5772 001a 03       		.uleb128 0x3
 5773 001b 0E       		.uleb128 0xe
 5774 001c 00       		.byte	0
 5775 001d 00       		.byte	0
 5776 001e 03       		.uleb128 0x3
 5777 001f 24       		.uleb128 0x24
 5778 0020 00       		.byte	0
 5779 0021 0B       		.uleb128 0xb
 5780 0022 0B       		.uleb128 0xb
 5781 0023 3E       		.uleb128 0x3e
 5782 0024 0B       		.uleb128 0xb
 5783 0025 03       		.uleb128 0x3
 5784 0026 08       		.uleb128 0x8
 5785 0027 00       		.byte	0
 5786 0028 00       		.byte	0
 5787 0029 04       		.uleb128 0x4
 5788 002a 16       		.uleb128 0x16
 5789 002b 00       		.byte	0
 5790 002c 03       		.uleb128 0x3
 5791 002d 0E       		.uleb128 0xe
 5792 002e 3A       		.uleb128 0x3a
 5793 002f 0B       		.uleb128 0xb
 5794 0030 3B       		.uleb128 0x3b
 5795 0031 05       		.uleb128 0x5
 5796 0032 49       		.uleb128 0x49
 5797 0033 13       		.uleb128 0x13
 5798 0034 00       		.byte	0
 5799 0035 00       		.byte	0
 5800 0036 05       		.uleb128 0x5
 5801 0037 0F       		.uleb128 0xf
 5802 0038 00       		.byte	0
 5803 0039 0B       		.uleb128 0xb
 5804 003a 0B       		.uleb128 0xb
 5805 003b 49       		.uleb128 0x49
 5806 003c 13       		.uleb128 0x13
 5807 003d 00       		.byte	0
 5808 003e 00       		.byte	0
ARM GAS  C:\Users\Svilen\AppData\Local\Temp\ccuaxGpF.s 			page 120


 5809 003f 06       		.uleb128 0x6
 5810 0040 15       		.uleb128 0x15
 5811 0041 00       		.byte	0
 5812 0042 27       		.uleb128 0x27
 5813 0043 19       		.uleb128 0x19
 5814 0044 00       		.byte	0
 5815 0045 00       		.byte	0
 5816 0046 07       		.uleb128 0x7
 5817 0047 16       		.uleb128 0x16
 5818 0048 00       		.byte	0
 5819 0049 03       		.uleb128 0x3
 5820 004a 0E       		.uleb128 0xe
 5821 004b 3A       		.uleb128 0x3a
 5822 004c 0B       		.uleb128 0xb
 5823 004d 3B       		.uleb128 0x3b
 5824 004e 0B       		.uleb128 0xb
 5825 004f 49       		.uleb128 0x49
 5826 0050 13       		.uleb128 0x13
 5827 0051 00       		.byte	0
 5828 0052 00       		.byte	0
 5829 0053 08       		.uleb128 0x8
 5830 0054 0F       		.uleb128 0xf
 5831 0055 00       		.byte	0
 5832 0056 0B       		.uleb128 0xb
 5833 0057 0B       		.uleb128 0xb
 5834 0058 00       		.byte	0
 5835 0059 00       		.byte	0
 5836 005a 09       		.uleb128 0x9
 5837 005b 26       		.uleb128 0x26
 5838 005c 00       		.byte	0
 5839 005d 49       		.uleb128 0x49
 5840 005e 13       		.uleb128 0x13
 5841 005f 00       		.byte	0
 5842 0060 00       		.byte	0
 5843 0061 0A       		.uleb128 0xa
 5844 0062 2E       		.uleb128 0x2e
 5845 0063 00       		.byte	0
 5846 0064 3F       		.uleb128 0x3f
 5847 0065 19       		.uleb128 0x19
 5848 0066 03       		.uleb128 0x3
 5849 0067 0E       		.uleb128 0xe
 5850 0068 3A       		.uleb128 0x3a
 5851 0069 0B       		.uleb128 0xb
 5852 006a 3B       		.uleb128 0x3b
 5853 006b 0B       		.uleb128 0xb
 5854 006c 27       		.uleb128 0x27
 5855 006d 19       		.uleb128 0x19
 5856 006e 11       		.uleb128 0x11
 5857 006f 01       		.uleb128 0x1
 5858 0070 12       		.uleb128 0x12
 5859 0071 06       		.uleb128 0x6
 5860 0072 40       		.uleb128 0x40
 5861 0073 18       		.uleb128 0x18
 5862 0074 9742     		.uleb128 0x2117
 5863 0076 19       		.uleb128 0x19
 5864 0077 00       		.byte	0
 5865 0078 00       		.byte	0
ARM GAS  C:\Users\Svilen\AppData\Local\Temp\ccuaxGpF.s 			page 121


 5866 0079 0B       		.uleb128 0xb
 5867 007a 2E       		.uleb128 0x2e
 5868 007b 01       		.byte	0x1
 5869 007c 3F       		.uleb128 0x3f
 5870 007d 19       		.uleb128 0x19
 5871 007e 03       		.uleb128 0x3
 5872 007f 0E       		.uleb128 0xe
 5873 0080 3A       		.uleb128 0x3a
 5874 0081 0B       		.uleb128 0xb
 5875 0082 3B       		.uleb128 0x3b
 5876 0083 0B       		.uleb128 0xb
 5877 0084 27       		.uleb128 0x27
 5878 0085 19       		.uleb128 0x19
 5879 0086 11       		.uleb128 0x11
 5880 0087 01       		.uleb128 0x1
 5881 0088 12       		.uleb128 0x12
 5882 0089 06       		.uleb128 0x6
 5883 008a 40       		.uleb128 0x40
 5884 008b 18       		.uleb128 0x18
 5885 008c 9742     		.uleb128 0x2117
 5886 008e 19       		.uleb128 0x19
 5887 008f 01       		.uleb128 0x1
 5888 0090 13       		.uleb128 0x13
 5889 0091 00       		.byte	0
 5890 0092 00       		.byte	0
 5891 0093 0C       		.uleb128 0xc
 5892 0094 898201   		.uleb128 0x4109
 5893 0097 01       		.byte	0x1
 5894 0098 11       		.uleb128 0x11
 5895 0099 01       		.uleb128 0x1
 5896 009a 31       		.uleb128 0x31
 5897 009b 13       		.uleb128 0x13
 5898 009c 00       		.byte	0
 5899 009d 00       		.byte	0
 5900 009e 0D       		.uleb128 0xd
 5901 009f 8A8201   		.uleb128 0x410a
 5902 00a2 00       		.byte	0
 5903 00a3 02       		.uleb128 0x2
 5904 00a4 18       		.uleb128 0x18
 5905 00a5 9142     		.uleb128 0x2111
 5906 00a7 18       		.uleb128 0x18
 5907 00a8 00       		.byte	0
 5908 00a9 00       		.byte	0
 5909 00aa 0E       		.uleb128 0xe
 5910 00ab 2E       		.uleb128 0x2e
 5911 00ac 01       		.byte	0x1
 5912 00ad 3F       		.uleb128 0x3f
 5913 00ae 19       		.uleb128 0x19
 5914 00af 03       		.uleb128 0x3
 5915 00b0 0E       		.uleb128 0xe
 5916 00b1 3A       		.uleb128 0x3a
 5917 00b2 0B       		.uleb128 0xb
 5918 00b3 3B       		.uleb128 0x3b
 5919 00b4 05       		.uleb128 0x5
 5920 00b5 49       		.uleb128 0x49
 5921 00b6 13       		.uleb128 0x13
 5922 00b7 11       		.uleb128 0x11
ARM GAS  C:\Users\Svilen\AppData\Local\Temp\ccuaxGpF.s 			page 122


 5923 00b8 01       		.uleb128 0x1
 5924 00b9 12       		.uleb128 0x12
 5925 00ba 06       		.uleb128 0x6
 5926 00bb 40       		.uleb128 0x40
 5927 00bc 18       		.uleb128 0x18
 5928 00bd 9742     		.uleb128 0x2117
 5929 00bf 19       		.uleb128 0x19
 5930 00c0 01       		.uleb128 0x1
 5931 00c1 13       		.uleb128 0x13
 5932 00c2 00       		.byte	0
 5933 00c3 00       		.byte	0
 5934 00c4 0F       		.uleb128 0xf
 5935 00c5 34       		.uleb128 0x34
 5936 00c6 00       		.byte	0
 5937 00c7 03       		.uleb128 0x3
 5938 00c8 08       		.uleb128 0x8
 5939 00c9 3A       		.uleb128 0x3a
 5940 00ca 0B       		.uleb128 0xb
 5941 00cb 3B       		.uleb128 0x3b
 5942 00cc 05       		.uleb128 0x5
 5943 00cd 49       		.uleb128 0x49
 5944 00ce 13       		.uleb128 0x13
 5945 00cf 02       		.uleb128 0x2
 5946 00d0 17       		.uleb128 0x17
 5947 00d1 00       		.byte	0
 5948 00d2 00       		.byte	0
 5949 00d3 10       		.uleb128 0x10
 5950 00d4 34       		.uleb128 0x34
 5951 00d5 00       		.byte	0
 5952 00d6 03       		.uleb128 0x3
 5953 00d7 0E       		.uleb128 0xe
 5954 00d8 3A       		.uleb128 0x3a
 5955 00d9 0B       		.uleb128 0xb
 5956 00da 3B       		.uleb128 0x3b
 5957 00db 05       		.uleb128 0x5
 5958 00dc 49       		.uleb128 0x49
 5959 00dd 13       		.uleb128 0x13
 5960 00de 02       		.uleb128 0x2
 5961 00df 17       		.uleb128 0x17
 5962 00e0 00       		.byte	0
 5963 00e1 00       		.byte	0
 5964 00e2 11       		.uleb128 0x11
 5965 00e3 898201   		.uleb128 0x4109
 5966 00e6 01       		.byte	0x1
 5967 00e7 11       		.uleb128 0x11
 5968 00e8 01       		.uleb128 0x1
 5969 00e9 31       		.uleb128 0x31
 5970 00ea 13       		.uleb128 0x13
 5971 00eb 01       		.uleb128 0x1
 5972 00ec 13       		.uleb128 0x13
 5973 00ed 00       		.byte	0
 5974 00ee 00       		.byte	0
 5975 00ef 12       		.uleb128 0x12
 5976 00f0 898201   		.uleb128 0x4109
 5977 00f3 00       		.byte	0
 5978 00f4 11       		.uleb128 0x11
 5979 00f5 01       		.uleb128 0x1
ARM GAS  C:\Users\Svilen\AppData\Local\Temp\ccuaxGpF.s 			page 123


 5980 00f6 31       		.uleb128 0x31
 5981 00f7 13       		.uleb128 0x13
 5982 00f8 00       		.byte	0
 5983 00f9 00       		.byte	0
 5984 00fa 13       		.uleb128 0x13
 5985 00fb 2E       		.uleb128 0x2e
 5986 00fc 01       		.byte	0x1
 5987 00fd 3F       		.uleb128 0x3f
 5988 00fe 19       		.uleb128 0x19
 5989 00ff 03       		.uleb128 0x3
 5990 0100 0E       		.uleb128 0xe
 5991 0101 3A       		.uleb128 0x3a
 5992 0102 0B       		.uleb128 0xb
 5993 0103 3B       		.uleb128 0x3b
 5994 0104 05       		.uleb128 0x5
 5995 0105 27       		.uleb128 0x27
 5996 0106 19       		.uleb128 0x19
 5997 0107 49       		.uleb128 0x49
 5998 0108 13       		.uleb128 0x13
 5999 0109 11       		.uleb128 0x11
 6000 010a 01       		.uleb128 0x1
 6001 010b 12       		.uleb128 0x12
 6002 010c 06       		.uleb128 0x6
 6003 010d 40       		.uleb128 0x40
 6004 010e 18       		.uleb128 0x18
 6005 010f 9742     		.uleb128 0x2117
 6006 0111 19       		.uleb128 0x19
 6007 0112 01       		.uleb128 0x1
 6008 0113 13       		.uleb128 0x13
 6009 0114 00       		.byte	0
 6010 0115 00       		.byte	0
 6011 0116 14       		.uleb128 0x14
 6012 0117 05       		.uleb128 0x5
 6013 0118 00       		.byte	0
 6014 0119 03       		.uleb128 0x3
 6015 011a 08       		.uleb128 0x8
 6016 011b 3A       		.uleb128 0x3a
 6017 011c 0B       		.uleb128 0xb
 6018 011d 3B       		.uleb128 0x3b
 6019 011e 05       		.uleb128 0x5
 6020 011f 49       		.uleb128 0x49
 6021 0120 13       		.uleb128 0x13
 6022 0121 02       		.uleb128 0x2
 6023 0122 17       		.uleb128 0x17
 6024 0123 00       		.byte	0
 6025 0124 00       		.byte	0
 6026 0125 15       		.uleb128 0x15
 6027 0126 34       		.uleb128 0x34
 6028 0127 00       		.byte	0
 6029 0128 03       		.uleb128 0x3
 6030 0129 0E       		.uleb128 0xe
 6031 012a 3A       		.uleb128 0x3a
 6032 012b 0B       		.uleb128 0xb
 6033 012c 3B       		.uleb128 0x3b
 6034 012d 05       		.uleb128 0x5
 6035 012e 49       		.uleb128 0x49
 6036 012f 13       		.uleb128 0x13
ARM GAS  C:\Users\Svilen\AppData\Local\Temp\ccuaxGpF.s 			page 124


 6037 0130 02       		.uleb128 0x2
 6038 0131 18       		.uleb128 0x18
 6039 0132 00       		.byte	0
 6040 0133 00       		.byte	0
 6041 0134 16       		.uleb128 0x16
 6042 0135 2E       		.uleb128 0x2e
 6043 0136 01       		.byte	0x1
 6044 0137 3F       		.uleb128 0x3f
 6045 0138 19       		.uleb128 0x19
 6046 0139 03       		.uleb128 0x3
 6047 013a 0E       		.uleb128 0xe
 6048 013b 3A       		.uleb128 0x3a
 6049 013c 0B       		.uleb128 0xb
 6050 013d 3B       		.uleb128 0x3b
 6051 013e 05       		.uleb128 0x5
 6052 013f 27       		.uleb128 0x27
 6053 0140 19       		.uleb128 0x19
 6054 0141 11       		.uleb128 0x11
 6055 0142 01       		.uleb128 0x1
 6056 0143 12       		.uleb128 0x12
 6057 0144 06       		.uleb128 0x6
 6058 0145 40       		.uleb128 0x40
 6059 0146 18       		.uleb128 0x18
 6060 0147 9742     		.uleb128 0x2117
 6061 0149 19       		.uleb128 0x19
 6062 014a 01       		.uleb128 0x1
 6063 014b 13       		.uleb128 0x13
 6064 014c 00       		.byte	0
 6065 014d 00       		.byte	0
 6066 014e 17       		.uleb128 0x17
 6067 014f 2E       		.uleb128 0x2e
 6068 0150 01       		.byte	0x1
 6069 0151 3F       		.uleb128 0x3f
 6070 0152 19       		.uleb128 0x19
 6071 0153 03       		.uleb128 0x3
 6072 0154 0E       		.uleb128 0xe
 6073 0155 3A       		.uleb128 0x3a
 6074 0156 0B       		.uleb128 0xb
 6075 0157 3B       		.uleb128 0x3b
 6076 0158 05       		.uleb128 0x5
 6077 0159 49       		.uleb128 0x49
 6078 015a 13       		.uleb128 0x13
 6079 015b 11       		.uleb128 0x11
 6080 015c 01       		.uleb128 0x1
 6081 015d 12       		.uleb128 0x12
 6082 015e 06       		.uleb128 0x6
 6083 015f 40       		.uleb128 0x40
 6084 0160 18       		.uleb128 0x18
 6085 0161 9642     		.uleb128 0x2116
 6086 0163 19       		.uleb128 0x19
 6087 0164 01       		.uleb128 0x1
 6088 0165 13       		.uleb128 0x13
 6089 0166 00       		.byte	0
 6090 0167 00       		.byte	0
 6091 0168 18       		.uleb128 0x18
 6092 0169 34       		.uleb128 0x34
 6093 016a 00       		.byte	0
ARM GAS  C:\Users\Svilen\AppData\Local\Temp\ccuaxGpF.s 			page 125


 6094 016b 03       		.uleb128 0x3
 6095 016c 08       		.uleb128 0x8
 6096 016d 3A       		.uleb128 0x3a
 6097 016e 0B       		.uleb128 0xb
 6098 016f 3B       		.uleb128 0x3b
 6099 0170 05       		.uleb128 0x5
 6100 0171 49       		.uleb128 0x49
 6101 0172 13       		.uleb128 0x13
 6102 0173 02       		.uleb128 0x2
 6103 0174 18       		.uleb128 0x18
 6104 0175 00       		.byte	0
 6105 0176 00       		.byte	0
 6106 0177 19       		.uleb128 0x19
 6107 0178 2E       		.uleb128 0x2e
 6108 0179 01       		.byte	0x1
 6109 017a 3F       		.uleb128 0x3f
 6110 017b 19       		.uleb128 0x19
 6111 017c 03       		.uleb128 0x3
 6112 017d 0E       		.uleb128 0xe
 6113 017e 3A       		.uleb128 0x3a
 6114 017f 0B       		.uleb128 0xb
 6115 0180 3B       		.uleb128 0x3b
 6116 0181 05       		.uleb128 0x5
 6117 0182 27       		.uleb128 0x27
 6118 0183 19       		.uleb128 0x19
 6119 0184 49       		.uleb128 0x49
 6120 0185 13       		.uleb128 0x13
 6121 0186 11       		.uleb128 0x11
 6122 0187 01       		.uleb128 0x1
 6123 0188 12       		.uleb128 0x12
 6124 0189 06       		.uleb128 0x6
 6125 018a 40       		.uleb128 0x40
 6126 018b 18       		.uleb128 0x18
 6127 018c 9642     		.uleb128 0x2116
 6128 018e 19       		.uleb128 0x19
 6129 018f 01       		.uleb128 0x1
 6130 0190 13       		.uleb128 0x13
 6131 0191 00       		.byte	0
 6132 0192 00       		.byte	0
 6133 0193 1A       		.uleb128 0x1a
 6134 0194 05       		.uleb128 0x5
 6135 0195 00       		.byte	0
 6136 0196 03       		.uleb128 0x3
 6137 0197 0E       		.uleb128 0xe
 6138 0198 3A       		.uleb128 0x3a
 6139 0199 0B       		.uleb128 0xb
 6140 019a 3B       		.uleb128 0x3b
 6141 019b 05       		.uleb128 0x5
 6142 019c 49       		.uleb128 0x49
 6143 019d 13       		.uleb128 0x13
 6144 019e 02       		.uleb128 0x2
 6145 019f 17       		.uleb128 0x17
 6146 01a0 00       		.byte	0
 6147 01a1 00       		.byte	0
 6148 01a2 1B       		.uleb128 0x1b
 6149 01a3 2E       		.uleb128 0x2e
 6150 01a4 01       		.byte	0x1
ARM GAS  C:\Users\Svilen\AppData\Local\Temp\ccuaxGpF.s 			page 126


 6151 01a5 3F       		.uleb128 0x3f
 6152 01a6 19       		.uleb128 0x19
 6153 01a7 03       		.uleb128 0x3
 6154 01a8 0E       		.uleb128 0xe
 6155 01a9 3A       		.uleb128 0x3a
 6156 01aa 0B       		.uleb128 0xb
 6157 01ab 3B       		.uleb128 0x3b
 6158 01ac 05       		.uleb128 0x5
 6159 01ad 11       		.uleb128 0x11
 6160 01ae 01       		.uleb128 0x1
 6161 01af 12       		.uleb128 0x12
 6162 01b0 06       		.uleb128 0x6
 6163 01b1 40       		.uleb128 0x40
 6164 01b2 18       		.uleb128 0x18
 6165 01b3 9742     		.uleb128 0x2117
 6166 01b5 19       		.uleb128 0x19
 6167 01b6 01       		.uleb128 0x1
 6168 01b7 13       		.uleb128 0x13
 6169 01b8 00       		.byte	0
 6170 01b9 00       		.byte	0
 6171 01ba 1C       		.uleb128 0x1c
 6172 01bb 34       		.uleb128 0x34
 6173 01bc 00       		.byte	0
 6174 01bd 03       		.uleb128 0x3
 6175 01be 0E       		.uleb128 0xe
 6176 01bf 3A       		.uleb128 0x3a
 6177 01c0 0B       		.uleb128 0xb
 6178 01c1 3B       		.uleb128 0x3b
 6179 01c2 05       		.uleb128 0x5
 6180 01c3 49       		.uleb128 0x49
 6181 01c4 13       		.uleb128 0x13
 6182 01c5 00       		.byte	0
 6183 01c6 00       		.byte	0
 6184 01c7 1D       		.uleb128 0x1d
 6185 01c8 2E       		.uleb128 0x2e
 6186 01c9 01       		.byte	0x1
 6187 01ca 3F       		.uleb128 0x3f
 6188 01cb 19       		.uleb128 0x19
 6189 01cc 03       		.uleb128 0x3
 6190 01cd 0E       		.uleb128 0xe
 6191 01ce 3A       		.uleb128 0x3a
 6192 01cf 0B       		.uleb128 0xb
 6193 01d0 3B       		.uleb128 0x3b
 6194 01d1 0B       		.uleb128 0xb
 6195 01d2 49       		.uleb128 0x49
 6196 01d3 13       		.uleb128 0x13
 6197 01d4 11       		.uleb128 0x11
 6198 01d5 01       		.uleb128 0x1
 6199 01d6 12       		.uleb128 0x12
 6200 01d7 06       		.uleb128 0x6
 6201 01d8 40       		.uleb128 0x40
 6202 01d9 18       		.uleb128 0x18
 6203 01da 9642     		.uleb128 0x2116
 6204 01dc 19       		.uleb128 0x19
 6205 01dd 01       		.uleb128 0x1
 6206 01de 13       		.uleb128 0x13
 6207 01df 00       		.byte	0
ARM GAS  C:\Users\Svilen\AppData\Local\Temp\ccuaxGpF.s 			page 127


 6208 01e0 00       		.byte	0
 6209 01e1 1E       		.uleb128 0x1e
 6210 01e2 34       		.uleb128 0x34
 6211 01e3 00       		.byte	0
 6212 01e4 03       		.uleb128 0x3
 6213 01e5 0E       		.uleb128 0xe
 6214 01e6 3A       		.uleb128 0x3a
 6215 01e7 0B       		.uleb128 0xb
 6216 01e8 3B       		.uleb128 0x3b
 6217 01e9 0B       		.uleb128 0xb
 6218 01ea 49       		.uleb128 0x49
 6219 01eb 13       		.uleb128 0x13
 6220 01ec 02       		.uleb128 0x2
 6221 01ed 18       		.uleb128 0x18
 6222 01ee 00       		.byte	0
 6223 01ef 00       		.byte	0
 6224 01f0 1F       		.uleb128 0x1f
 6225 01f1 34       		.uleb128 0x34
 6226 01f2 00       		.byte	0
 6227 01f3 03       		.uleb128 0x3
 6228 01f4 08       		.uleb128 0x8
 6229 01f5 3A       		.uleb128 0x3a
 6230 01f6 0B       		.uleb128 0xb
 6231 01f7 3B       		.uleb128 0x3b
 6232 01f8 0B       		.uleb128 0xb
 6233 01f9 49       		.uleb128 0x49
 6234 01fa 13       		.uleb128 0x13
 6235 01fb 02       		.uleb128 0x2
 6236 01fc 17       		.uleb128 0x17
 6237 01fd 00       		.byte	0
 6238 01fe 00       		.byte	0
 6239 01ff 20       		.uleb128 0x20
 6240 0200 34       		.uleb128 0x34
 6241 0201 00       		.byte	0
 6242 0202 03       		.uleb128 0x3
 6243 0203 0E       		.uleb128 0xe
 6244 0204 3A       		.uleb128 0x3a
 6245 0205 0B       		.uleb128 0xb
 6246 0206 3B       		.uleb128 0x3b
 6247 0207 0B       		.uleb128 0xb
 6248 0208 49       		.uleb128 0x49
 6249 0209 13       		.uleb128 0x13
 6250 020a 02       		.uleb128 0x2
 6251 020b 17       		.uleb128 0x17
 6252 020c 00       		.byte	0
 6253 020d 00       		.byte	0
 6254 020e 21       		.uleb128 0x21
 6255 020f 34       		.uleb128 0x34
 6256 0210 00       		.byte	0
 6257 0211 03       		.uleb128 0x3
 6258 0212 08       		.uleb128 0x8
 6259 0213 3A       		.uleb128 0x3a
 6260 0214 0B       		.uleb128 0xb
 6261 0215 3B       		.uleb128 0x3b
 6262 0216 0B       		.uleb128 0xb
 6263 0217 49       		.uleb128 0x49
 6264 0218 13       		.uleb128 0x13
ARM GAS  C:\Users\Svilen\AppData\Local\Temp\ccuaxGpF.s 			page 128


 6265 0219 02       		.uleb128 0x2
 6266 021a 18       		.uleb128 0x18
 6267 021b 00       		.byte	0
 6268 021c 00       		.byte	0
 6269 021d 22       		.uleb128 0x22
 6270 021e 0A       		.uleb128 0xa
 6271 021f 00       		.byte	0
 6272 0220 03       		.uleb128 0x3
 6273 0221 0E       		.uleb128 0xe
 6274 0222 3A       		.uleb128 0x3a
 6275 0223 0B       		.uleb128 0xb
 6276 0224 3B       		.uleb128 0x3b
 6277 0225 0B       		.uleb128 0xb
 6278 0226 11       		.uleb128 0x11
 6279 0227 01       		.uleb128 0x1
 6280 0228 00       		.byte	0
 6281 0229 00       		.byte	0
 6282 022a 23       		.uleb128 0x23
 6283 022b 01       		.uleb128 0x1
 6284 022c 01       		.byte	0x1
 6285 022d 49       		.uleb128 0x49
 6286 022e 13       		.uleb128 0x13
 6287 022f 01       		.uleb128 0x1
 6288 0230 13       		.uleb128 0x13
 6289 0231 00       		.byte	0
 6290 0232 00       		.byte	0
 6291 0233 24       		.uleb128 0x24
 6292 0234 21       		.uleb128 0x21
 6293 0235 00       		.byte	0
 6294 0236 49       		.uleb128 0x49
 6295 0237 13       		.uleb128 0x13
 6296 0238 2F       		.uleb128 0x2f
 6297 0239 0B       		.uleb128 0xb
 6298 023a 00       		.byte	0
 6299 023b 00       		.byte	0
 6300 023c 25       		.uleb128 0x25
 6301 023d 34       		.uleb128 0x34
 6302 023e 00       		.byte	0
 6303 023f 03       		.uleb128 0x3
 6304 0240 0E       		.uleb128 0xe
 6305 0241 3A       		.uleb128 0x3a
 6306 0242 0B       		.uleb128 0xb
 6307 0243 3B       		.uleb128 0x3b
 6308 0244 0B       		.uleb128 0xb
 6309 0245 49       		.uleb128 0x49
 6310 0246 13       		.uleb128 0x13
 6311 0247 3F       		.uleb128 0x3f
 6312 0248 19       		.uleb128 0x19
 6313 0249 02       		.uleb128 0x2
 6314 024a 18       		.uleb128 0x18
 6315 024b 00       		.byte	0
 6316 024c 00       		.byte	0
 6317 024d 26       		.uleb128 0x26
 6318 024e 34       		.uleb128 0x34
 6319 024f 00       		.byte	0
 6320 0250 03       		.uleb128 0x3
 6321 0251 08       		.uleb128 0x8
ARM GAS  C:\Users\Svilen\AppData\Local\Temp\ccuaxGpF.s 			page 129


 6322 0252 3A       		.uleb128 0x3a
 6323 0253 0B       		.uleb128 0xb
 6324 0254 3B       		.uleb128 0x3b
 6325 0255 0B       		.uleb128 0xb
 6326 0256 49       		.uleb128 0x49
 6327 0257 13       		.uleb128 0x13
 6328 0258 3F       		.uleb128 0x3f
 6329 0259 19       		.uleb128 0x19
 6330 025a 02       		.uleb128 0x2
 6331 025b 18       		.uleb128 0x18
 6332 025c 00       		.byte	0
 6333 025d 00       		.byte	0
 6334 025e 27       		.uleb128 0x27
 6335 025f 2E       		.uleb128 0x2e
 6336 0260 01       		.byte	0x1
 6337 0261 3F       		.uleb128 0x3f
 6338 0262 19       		.uleb128 0x19
 6339 0263 03       		.uleb128 0x3
 6340 0264 0E       		.uleb128 0xe
 6341 0265 3A       		.uleb128 0x3a
 6342 0266 0B       		.uleb128 0xb
 6343 0267 3B       		.uleb128 0x3b
 6344 0268 05       		.uleb128 0x5
 6345 0269 27       		.uleb128 0x27
 6346 026a 19       		.uleb128 0x19
 6347 026b 3C       		.uleb128 0x3c
 6348 026c 19       		.uleb128 0x19
 6349 026d 01       		.uleb128 0x1
 6350 026e 13       		.uleb128 0x13
 6351 026f 00       		.byte	0
 6352 0270 00       		.byte	0
 6353 0271 28       		.uleb128 0x28
 6354 0272 05       		.uleb128 0x5
 6355 0273 00       		.byte	0
 6356 0274 49       		.uleb128 0x49
 6357 0275 13       		.uleb128 0x13
 6358 0276 00       		.byte	0
 6359 0277 00       		.byte	0
 6360 0278 29       		.uleb128 0x29
 6361 0279 2E       		.uleb128 0x2e
 6362 027a 01       		.byte	0x1
 6363 027b 3F       		.uleb128 0x3f
 6364 027c 19       		.uleb128 0x19
 6365 027d 03       		.uleb128 0x3
 6366 027e 0E       		.uleb128 0xe
 6367 027f 3A       		.uleb128 0x3a
 6368 0280 0B       		.uleb128 0xb
 6369 0281 3B       		.uleb128 0x3b
 6370 0282 0B       		.uleb128 0xb
 6371 0283 27       		.uleb128 0x27
 6372 0284 19       		.uleb128 0x19
 6373 0285 3C       		.uleb128 0x3c
 6374 0286 19       		.uleb128 0x19
 6375 0287 01       		.uleb128 0x1
 6376 0288 13       		.uleb128 0x13
 6377 0289 00       		.byte	0
 6378 028a 00       		.byte	0
ARM GAS  C:\Users\Svilen\AppData\Local\Temp\ccuaxGpF.s 			page 130


 6379 028b 2A       		.uleb128 0x2a
 6380 028c 2E       		.uleb128 0x2e
 6381 028d 00       		.byte	0
 6382 028e 3F       		.uleb128 0x3f
 6383 028f 19       		.uleb128 0x19
 6384 0290 03       		.uleb128 0x3
 6385 0291 0E       		.uleb128 0xe
 6386 0292 3A       		.uleb128 0x3a
 6387 0293 0B       		.uleb128 0xb
 6388 0294 3B       		.uleb128 0x3b
 6389 0295 0B       		.uleb128 0xb
 6390 0296 27       		.uleb128 0x27
 6391 0297 19       		.uleb128 0x19
 6392 0298 49       		.uleb128 0x49
 6393 0299 13       		.uleb128 0x13
 6394 029a 3C       		.uleb128 0x3c
 6395 029b 19       		.uleb128 0x19
 6396 029c 00       		.byte	0
 6397 029d 00       		.byte	0
 6398 029e 2B       		.uleb128 0x2b
 6399 029f 2E       		.uleb128 0x2e
 6400 02a0 00       		.byte	0
 6401 02a1 3F       		.uleb128 0x3f
 6402 02a2 19       		.uleb128 0x19
 6403 02a3 03       		.uleb128 0x3
 6404 02a4 0E       		.uleb128 0xe
 6405 02a5 3A       		.uleb128 0x3a
 6406 02a6 0B       		.uleb128 0xb
 6407 02a7 3B       		.uleb128 0x3b
 6408 02a8 05       		.uleb128 0x5
 6409 02a9 27       		.uleb128 0x27
 6410 02aa 19       		.uleb128 0x19
 6411 02ab 49       		.uleb128 0x49
 6412 02ac 13       		.uleb128 0x13
 6413 02ad 3C       		.uleb128 0x3c
 6414 02ae 19       		.uleb128 0x19
 6415 02af 00       		.byte	0
 6416 02b0 00       		.byte	0
 6417 02b1 2C       		.uleb128 0x2c
 6418 02b2 2E       		.uleb128 0x2e
 6419 02b3 01       		.byte	0x1
 6420 02b4 3F       		.uleb128 0x3f
 6421 02b5 19       		.uleb128 0x19
 6422 02b6 03       		.uleb128 0x3
 6423 02b7 0E       		.uleb128 0xe
 6424 02b8 3A       		.uleb128 0x3a
 6425 02b9 0B       		.uleb128 0xb
 6426 02ba 3B       		.uleb128 0x3b
 6427 02bb 05       		.uleb128 0x5
 6428 02bc 27       		.uleb128 0x27
 6429 02bd 19       		.uleb128 0x19
 6430 02be 49       		.uleb128 0x49
 6431 02bf 13       		.uleb128 0x13
 6432 02c0 3C       		.uleb128 0x3c
 6433 02c1 19       		.uleb128 0x19
 6434 02c2 01       		.uleb128 0x1
 6435 02c3 13       		.uleb128 0x13
ARM GAS  C:\Users\Svilen\AppData\Local\Temp\ccuaxGpF.s 			page 131


 6436 02c4 00       		.byte	0
 6437 02c5 00       		.byte	0
 6438 02c6 2D       		.uleb128 0x2d
 6439 02c7 2E       		.uleb128 0x2e
 6440 02c8 00       		.byte	0
 6441 02c9 3F       		.uleb128 0x3f
 6442 02ca 19       		.uleb128 0x19
 6443 02cb 03       		.uleb128 0x3
 6444 02cc 0E       		.uleb128 0xe
 6445 02cd 3A       		.uleb128 0x3a
 6446 02ce 0B       		.uleb128 0xb
 6447 02cf 3B       		.uleb128 0x3b
 6448 02d0 05       		.uleb128 0x5
 6449 02d1 27       		.uleb128 0x27
 6450 02d2 19       		.uleb128 0x19
 6451 02d3 3C       		.uleb128 0x3c
 6452 02d4 19       		.uleb128 0x19
 6453 02d5 00       		.byte	0
 6454 02d6 00       		.byte	0
 6455 02d7 2E       		.uleb128 0x2e
 6456 02d8 2E       		.uleb128 0x2e
 6457 02d9 00       		.byte	0
 6458 02da 3F       		.uleb128 0x3f
 6459 02db 19       		.uleb128 0x19
 6460 02dc 03       		.uleb128 0x3
 6461 02dd 0E       		.uleb128 0xe
 6462 02de 3A       		.uleb128 0x3a
 6463 02df 0B       		.uleb128 0xb
 6464 02e0 3B       		.uleb128 0x3b
 6465 02e1 0B       		.uleb128 0xb
 6466 02e2 27       		.uleb128 0x27
 6467 02e3 19       		.uleb128 0x19
 6468 02e4 3C       		.uleb128 0x3c
 6469 02e5 19       		.uleb128 0x19
 6470 02e6 00       		.byte	0
 6471 02e7 00       		.byte	0
 6472 02e8 2F       		.uleb128 0x2f
 6473 02e9 2E       		.uleb128 0x2e
 6474 02ea 01       		.byte	0x1
 6475 02eb 3F       		.uleb128 0x3f
 6476 02ec 19       		.uleb128 0x19
 6477 02ed 03       		.uleb128 0x3
 6478 02ee 0E       		.uleb128 0xe
 6479 02ef 27       		.uleb128 0x27
 6480 02f0 19       		.uleb128 0x19
 6481 02f1 49       		.uleb128 0x49
 6482 02f2 13       		.uleb128 0x13
 6483 02f3 34       		.uleb128 0x34
 6484 02f4 19       		.uleb128 0x19
 6485 02f5 3C       		.uleb128 0x3c
 6486 02f6 19       		.uleb128 0x19
 6487 02f7 01       		.uleb128 0x1
 6488 02f8 13       		.uleb128 0x13
 6489 02f9 00       		.byte	0
 6490 02fa 00       		.byte	0
 6491 02fb 30       		.uleb128 0x30
 6492 02fc 2E       		.uleb128 0x2e
ARM GAS  C:\Users\Svilen\AppData\Local\Temp\ccuaxGpF.s 			page 132


 6493 02fd 01       		.byte	0x1
 6494 02fe 3F       		.uleb128 0x3f
 6495 02ff 19       		.uleb128 0x19
 6496 0300 03       		.uleb128 0x3
 6497 0301 0E       		.uleb128 0xe
 6498 0302 3A       		.uleb128 0x3a
 6499 0303 0B       		.uleb128 0xb
 6500 0304 3B       		.uleb128 0x3b
 6501 0305 0B       		.uleb128 0xb
 6502 0306 27       		.uleb128 0x27
 6503 0307 19       		.uleb128 0x19
 6504 0308 49       		.uleb128 0x49
 6505 0309 13       		.uleb128 0x13
 6506 030a 3C       		.uleb128 0x3c
 6507 030b 19       		.uleb128 0x19
 6508 030c 01       		.uleb128 0x1
 6509 030d 13       		.uleb128 0x13
 6510 030e 00       		.byte	0
 6511 030f 00       		.byte	0
 6512 0310 31       		.uleb128 0x31
 6513 0311 18       		.uleb128 0x18
 6514 0312 00       		.byte	0
 6515 0313 00       		.byte	0
 6516 0314 00       		.byte	0
 6517 0315 32       		.uleb128 0x32
 6518 0316 2E       		.uleb128 0x2e
 6519 0317 01       		.byte	0x1
 6520 0318 3F       		.uleb128 0x3f
 6521 0319 19       		.uleb128 0x19
 6522 031a 03       		.uleb128 0x3
 6523 031b 0E       		.uleb128 0xe
 6524 031c 3A       		.uleb128 0x3a
 6525 031d 0B       		.uleb128 0xb
 6526 031e 3B       		.uleb128 0x3b
 6527 031f 0B       		.uleb128 0xb
 6528 0320 6E       		.uleb128 0x6e
 6529 0321 0E       		.uleb128 0xe
 6530 0322 27       		.uleb128 0x27
 6531 0323 19       		.uleb128 0x19
 6532 0324 49       		.uleb128 0x49
 6533 0325 13       		.uleb128 0x13
 6534 0326 3C       		.uleb128 0x3c
 6535 0327 19       		.uleb128 0x19
 6536 0328 01       		.uleb128 0x1
 6537 0329 13       		.uleb128 0x13
 6538 032a 00       		.byte	0
 6539 032b 00       		.byte	0
 6540 032c 33       		.uleb128 0x33
 6541 032d 26       		.uleb128 0x26
 6542 032e 00       		.byte	0
 6543 032f 00       		.byte	0
 6544 0330 00       		.byte	0
 6545 0331 34       		.uleb128 0x34
 6546 0332 2E       		.uleb128 0x2e
 6547 0333 01       		.byte	0x1
 6548 0334 3F       		.uleb128 0x3f
 6549 0335 19       		.uleb128 0x19
ARM GAS  C:\Users\Svilen\AppData\Local\Temp\ccuaxGpF.s 			page 133


 6550 0336 03       		.uleb128 0x3
 6551 0337 0E       		.uleb128 0xe
 6552 0338 3A       		.uleb128 0x3a
 6553 0339 0B       		.uleb128 0xb
 6554 033a 3B       		.uleb128 0x3b
 6555 033b 0B       		.uleb128 0xb
 6556 033c 27       		.uleb128 0x27
 6557 033d 19       		.uleb128 0x19
 6558 033e 49       		.uleb128 0x49
 6559 033f 13       		.uleb128 0x13
 6560 0340 3C       		.uleb128 0x3c
 6561 0341 19       		.uleb128 0x19
 6562 0342 00       		.byte	0
 6563 0343 00       		.byte	0
 6564 0344 00       		.byte	0
 6565              		.section	.debug_loc,"",%progbits
 6566              	.Ldebug_loc0:
 6567              	.LLST0:
 6568 0000 58000000 		.4byte	.LVL18
 6569 0004 94000000 		.4byte	.LVL31
 6570 0008 0100     		.2byte	0x1
 6571 000a 56       		.byte	0x56
 6572 000b 96000000 		.4byte	.LVL32
 6573 000f DA000000 		.4byte	.LVL44
 6574 0013 0100     		.2byte	0x1
 6575 0015 56       		.byte	0x56
 6576 0016 E6000000 		.4byte	.LVL45
 6577 001a F4000000 		.4byte	.LVL47
 6578 001e 0100     		.2byte	0x1
 6579 0020 56       		.byte	0x56
 6580 0021 00000000 		.4byte	0
 6581 0025 00000000 		.4byte	0
 6582              	.LLST1:
 6583 0029 18000000 		.4byte	.LVL3
 6584 002d 1C000000 		.4byte	.LVL4
 6585 0031 0200     		.2byte	0x2
 6586 0033 30       		.byte	0x30
 6587 0034 9F       		.byte	0x9f
 6588 0035 1C000000 		.4byte	.LVL4
 6589 0039 2C000000 		.4byte	.LVL8
 6590 003d 0100     		.2byte	0x1
 6591 003f 54       		.byte	0x54
 6592 0040 2E000000 		.4byte	.LVL9
 6593 0044 3E000000 		.4byte	.LVL13
 6594 0048 0100     		.2byte	0x1
 6595 004a 54       		.byte	0x54
 6596 004b 40000000 		.4byte	.LVL14
 6597 004f 6C000000 		.4byte	.LVL22
 6598 0053 0100     		.2byte	0x1
 6599 0055 54       		.byte	0x54
 6600 0056 6E000000 		.4byte	.LVL23
 6601 005a AA000000 		.4byte	.LVL36
 6602 005e 0100     		.2byte	0x1
 6603 0060 54       		.byte	0x54
 6604 0061 AC000000 		.4byte	.LVL37
 6605 0065 F4000000 		.4byte	.LVL48
 6606 0069 0100     		.2byte	0x1
ARM GAS  C:\Users\Svilen\AppData\Local\Temp\ccuaxGpF.s 			page 134


 6607 006b 54       		.byte	0x54
 6608 006c 00000000 		.4byte	0
 6609 0070 00000000 		.4byte	0
 6610              	.LLST2:
 6611 0074 58000000 		.4byte	.LVL18
 6612 0078 90000000 		.4byte	.LVL30
 6613 007c 0100     		.2byte	0x1
 6614 007e 57       		.byte	0x57
 6615 007f 96000000 		.4byte	.LVL32
 6616 0083 DA000000 		.4byte	.LVL44
 6617 0087 0100     		.2byte	0x1
 6618 0089 57       		.byte	0x57
 6619 008a E6000000 		.4byte	.LVL45
 6620 008e F4000000 		.4byte	.LVL47
 6621 0092 0100     		.2byte	0x1
 6622 0094 57       		.byte	0x57
 6623 0095 00000000 		.4byte	0
 6624 0099 00000000 		.4byte	0
 6625              	.LLST3:
 6626 009d 58000000 		.4byte	.LVL18
 6627 00a1 DA000000 		.4byte	.LVL44
 6628 00a5 0100     		.2byte	0x1
 6629 00a7 55       		.byte	0x55
 6630 00a8 E6000000 		.4byte	.LVL45
 6631 00ac F4000000 		.4byte	.LVL47
 6632 00b0 0100     		.2byte	0x1
 6633 00b2 55       		.byte	0x55
 6634 00b3 00000000 		.4byte	0
 6635 00b7 00000000 		.4byte	0
 6636              	.LLST4:
 6637 00bb 96000000 		.4byte	.LVL32
 6638 00bf DA000000 		.4byte	.LVL44
 6639 00c3 0100     		.2byte	0x1
 6640 00c5 58       		.byte	0x58
 6641 00c6 EE000000 		.4byte	.LVL46
 6642 00ca F4000000 		.4byte	.LVL47
 6643 00ce 0100     		.2byte	0x1
 6644 00d0 58       		.byte	0x58
 6645 00d1 00000000 		.4byte	0
 6646 00d5 00000000 		.4byte	0
 6647              	.LLST5:
 6648 00d9 00000000 		.4byte	.LVL49
 6649 00dd 07000000 		.4byte	.LVL50-1
 6650 00e1 0100     		.2byte	0x1
 6651 00e3 50       		.byte	0x50
 6652 00e4 07000000 		.4byte	.LVL50-1
 6653 00e8 26000000 		.4byte	.LVL55
 6654 00ec 0100     		.2byte	0x1
 6655 00ee 54       		.byte	0x54
 6656 00ef 26000000 		.4byte	.LVL55
 6657 00f3 2E000000 		.4byte	.LFE38
 6658 00f7 0400     		.2byte	0x4
 6659 00f9 F3       		.byte	0xf3
 6660 00fa 01       		.uleb128 0x1
 6661 00fb 50       		.byte	0x50
 6662 00fc 9F       		.byte	0x9f
 6663 00fd 00000000 		.4byte	0
ARM GAS  C:\Users\Svilen\AppData\Local\Temp\ccuaxGpF.s 			page 135


 6664 0101 00000000 		.4byte	0
 6665              	.LLST6:
 6666 0105 26000000 		.4byte	.LVL55
 6667 0109 29000000 		.4byte	.LVL56-1
 6668 010d 0100     		.2byte	0x1
 6669 010f 50       		.byte	0x50
 6670 0110 29000000 		.4byte	.LVL56-1
 6671 0114 2C000000 		.4byte	.LVL57
 6672 0118 0100     		.2byte	0x1
 6673 011a 54       		.byte	0x54
 6674 011b 2C000000 		.4byte	.LVL57
 6675 011f 2E000000 		.4byte	.LFE38
 6676 0123 0100     		.2byte	0x1
 6677 0125 50       		.byte	0x50
 6678 0126 00000000 		.4byte	0
 6679 012a 00000000 		.4byte	0
 6680              	.LLST7:
 6681 012e 00000000 		.4byte	.LVL58
 6682 0132 07000000 		.4byte	.LVL59-1
 6683 0136 0100     		.2byte	0x1
 6684 0138 50       		.byte	0x50
 6685 0139 07000000 		.4byte	.LVL59-1
 6686 013d 18000000 		.4byte	.LVL64
 6687 0141 0100     		.2byte	0x1
 6688 0143 55       		.byte	0x55
 6689 0144 18000000 		.4byte	.LVL64
 6690 0148 1A000000 		.4byte	.LFE39
 6691 014c 0400     		.2byte	0x4
 6692 014e F3       		.byte	0xf3
 6693 014f 01       		.uleb128 0x1
 6694 0150 50       		.byte	0x50
 6695 0151 9F       		.byte	0x9f
 6696 0152 00000000 		.4byte	0
 6697 0156 00000000 		.4byte	0
 6698              	.LLST8:
 6699 015a 0A000000 		.4byte	.LVL60
 6700 015e 12000000 		.4byte	.LVL62
 6701 0162 0100     		.2byte	0x1
 6702 0164 54       		.byte	0x54
 6703 0165 00000000 		.4byte	0
 6704 0169 00000000 		.4byte	0
 6705              	.LLST9:
 6706 016d 10000000 		.4byte	.LVL61
 6707 0171 16000000 		.4byte	.LVL63
 6708 0175 0100     		.2byte	0x1
 6709 0177 50       		.byte	0x50
 6710 0178 00000000 		.4byte	0
 6711 017c 00000000 		.4byte	0
 6712              	.LLST10:
 6713 0180 00000000 		.4byte	.LVL65
 6714 0184 07000000 		.4byte	.LVL66-1
 6715 0188 0100     		.2byte	0x1
 6716 018a 50       		.byte	0x50
 6717 018b 07000000 		.4byte	.LVL66-1
 6718 018f 18000000 		.4byte	.LVL72
 6719 0193 0100     		.2byte	0x1
 6720 0195 55       		.byte	0x55
ARM GAS  C:\Users\Svilen\AppData\Local\Temp\ccuaxGpF.s 			page 136


 6721 0196 18000000 		.4byte	.LVL72
 6722 019a 1A000000 		.4byte	.LFE40
 6723 019e 0400     		.2byte	0x4
 6724 01a0 F3       		.byte	0xf3
 6725 01a1 01       		.uleb128 0x1
 6726 01a2 50       		.byte	0x50
 6727 01a3 9F       		.byte	0x9f
 6728 01a4 00000000 		.4byte	0
 6729 01a8 00000000 		.4byte	0
 6730              	.LLST11:
 6731 01ac 0A000000 		.4byte	.LVL67
 6732 01b0 12000000 		.4byte	.LVL69
 6733 01b4 0100     		.2byte	0x1
 6734 01b6 54       		.byte	0x54
 6735 01b7 00000000 		.4byte	0
 6736 01bb 00000000 		.4byte	0
 6737              	.LLST12:
 6738 01bf 10000000 		.4byte	.LVL68
 6739 01c3 16000000 		.4byte	.LVL70
 6740 01c7 0100     		.2byte	0x1
 6741 01c9 50       		.byte	0x50
 6742 01ca 00000000 		.4byte	0
 6743 01ce 00000000 		.4byte	0
 6744              	.LLST13:
 6745 01d2 00000000 		.4byte	.LVL73
 6746 01d6 09000000 		.4byte	.LVL74-1
 6747 01da 0100     		.2byte	0x1
 6748 01dc 50       		.byte	0x50
 6749 01dd 09000000 		.4byte	.LVL74-1
 6750 01e1 22000000 		.4byte	.LVL80
 6751 01e5 0100     		.2byte	0x1
 6752 01e7 55       		.byte	0x55
 6753 01e8 22000000 		.4byte	.LVL80
 6754 01ec 24000000 		.4byte	.LFE41
 6755 01f0 0400     		.2byte	0x4
 6756 01f2 F3       		.byte	0xf3
 6757 01f3 01       		.uleb128 0x1
 6758 01f4 50       		.byte	0x50
 6759 01f5 9F       		.byte	0x9f
 6760 01f6 00000000 		.4byte	0
 6761 01fa 00000000 		.4byte	0
 6762              	.LLST14:
 6763 01fe 00000000 		.4byte	.LVL73
 6764 0202 09000000 		.4byte	.LVL74-1
 6765 0206 0100     		.2byte	0x1
 6766 0208 51       		.byte	0x51
 6767 0209 09000000 		.4byte	.LVL74-1
 6768 020d 22000000 		.4byte	.LVL79
 6769 0211 0100     		.2byte	0x1
 6770 0213 54       		.byte	0x54
 6771 0214 22000000 		.4byte	.LVL79
 6772 0218 24000000 		.4byte	.LFE41
 6773 021c 0400     		.2byte	0x4
 6774 021e F3       		.byte	0xf3
 6775 021f 01       		.uleb128 0x1
 6776 0220 51       		.byte	0x51
 6777 0221 9F       		.byte	0x9f
ARM GAS  C:\Users\Svilen\AppData\Local\Temp\ccuaxGpF.s 			page 137


 6778 0222 00000000 		.4byte	0
 6779 0226 00000000 		.4byte	0
 6780              	.LLST15:
 6781 022a 16000000 		.4byte	.LVL83
 6782 022e 20000000 		.4byte	.LVL84
 6783 0232 0100     		.2byte	0x1
 6784 0234 50       		.byte	0x50
 6785 0235 00000000 		.4byte	0
 6786 0239 00000000 		.4byte	0
 6787              	.LLST16:
 6788 023d 2A000000 		.4byte	.LVL85
 6789 0241 40000000 		.4byte	.LVL87
 6790 0245 0100     		.2byte	0x1
 6791 0247 54       		.byte	0x54
 6792 0248 00000000 		.4byte	0
 6793 024c 00000000 		.4byte	0
 6794              	.LLST17:
 6795 0250 3E000000 		.4byte	.LVL86
 6796 0254 44000000 		.4byte	.LVL88
 6797 0258 0100     		.2byte	0x1
 6798 025a 50       		.byte	0x50
 6799 025b 00000000 		.4byte	0
 6800 025f 00000000 		.4byte	0
 6801              	.LLST18:
 6802 0263 00000000 		.4byte	.LVL90
 6803 0267 36000000 		.4byte	.LVL97
 6804 026b 0100     		.2byte	0x1
 6805 026d 50       		.byte	0x50
 6806 026e 36000000 		.4byte	.LVL97
 6807 0272 68000000 		.4byte	.LVL110
 6808 0276 0100     		.2byte	0x1
 6809 0278 55       		.byte	0x55
 6810 0279 68000000 		.4byte	.LVL110
 6811 027d 34010000 		.4byte	.LFE43
 6812 0281 0400     		.2byte	0x4
 6813 0283 F3       		.byte	0xf3
 6814 0284 01       		.uleb128 0x1
 6815 0285 50       		.byte	0x50
 6816 0286 9F       		.byte	0x9f
 6817 0287 00000000 		.4byte	0
 6818 028b 00000000 		.4byte	0
 6819              	.LLST19:
 6820 028f 00000000 		.4byte	.LVL90
 6821 0293 32000000 		.4byte	.LVL96
 6822 0297 0100     		.2byte	0x1
 6823 0299 51       		.byte	0x51
 6824 029a 32000000 		.4byte	.LVL96
 6825 029e 0E010000 		.4byte	.LVL137
 6826 02a2 0100     		.2byte	0x1
 6827 02a4 54       		.byte	0x54
 6828 02a5 0E010000 		.4byte	.LVL137
 6829 02a9 34010000 		.4byte	.LFE43
 6830 02ad 0400     		.2byte	0x4
 6831 02af F3       		.byte	0xf3
 6832 02b0 01       		.uleb128 0x1
 6833 02b1 51       		.byte	0x51
 6834 02b2 9F       		.byte	0x9f
ARM GAS  C:\Users\Svilen\AppData\Local\Temp\ccuaxGpF.s 			page 138


 6835 02b3 00000000 		.4byte	0
 6836 02b7 00000000 		.4byte	0
 6837              	.LLST20:
 6838 02bb 48000000 		.4byte	.LVL101
 6839 02bf 4A000000 		.4byte	.LVL102
 6840 02c3 0100     		.2byte	0x1
 6841 02c5 50       		.byte	0x50
 6842 02c6 4A000000 		.4byte	.LVL102
 6843 02ca 58000000 		.4byte	.LVL107
 6844 02ce 0100     		.2byte	0x1
 6845 02d0 56       		.byte	0x56
 6846 02d1 00000000 		.4byte	0
 6847 02d5 00000000 		.4byte	0
 6848              	.LLST21:
 6849 02d9 50000000 		.4byte	.LVL104
 6850 02dd 52000000 		.4byte	.LVL105
 6851 02e1 0100     		.2byte	0x1
 6852 02e3 50       		.byte	0x50
 6853 02e4 52000000 		.4byte	.LVL105
 6854 02e8 5A000000 		.4byte	.LVL108
 6855 02ec 0100     		.2byte	0x1
 6856 02ee 57       		.byte	0x57
 6857 02ef 00000000 		.4byte	0
 6858 02f3 00000000 		.4byte	0
 6859              	.LLST22:
 6860 02f7 56000000 		.4byte	.LVL106
 6861 02fb 8E000000 		.4byte	.LVL114
 6862 02ff 0100     		.2byte	0x1
 6863 0301 50       		.byte	0x50
 6864 0302 00000000 		.4byte	0
 6865 0306 00000000 		.4byte	0
 6866              	.LLST23:
 6867 030a 66000000 		.4byte	.LVL109
 6868 030e 0E010000 		.4byte	.LVL138
 6869 0312 0100     		.2byte	0x1
 6870 0314 56       		.byte	0x56
 6871 0315 0E010000 		.4byte	.LVL138
 6872 0319 0E010000 		.4byte	.LVL139
 6873 031d 0900     		.2byte	0x9
 6874 031f 77       		.byte	0x77
 6875 0320 00       		.sleb128 0
 6876 0321 38       		.byte	0x38
 6877 0322 F3       		.byte	0xf3
 6878 0323 01       		.uleb128 0x1
 6879 0324 51       		.byte	0x51
 6880 0325 1C       		.byte	0x1c
 6881 0326 25       		.byte	0x25
 6882 0327 9F       		.byte	0x9f
 6883 0328 00000000 		.4byte	0
 6884 032c 00000000 		.4byte	0
 6885              	.LLST24:
 6886 0330 22000000 		.4byte	.LVL91
 6887 0334 26000000 		.4byte	.LVL92
 6888 0338 0200     		.2byte	0x2
 6889 033a 3F       		.byte	0x3f
 6890 033b 9F       		.byte	0x9f
 6891 033c 26000000 		.4byte	.LVL92
ARM GAS  C:\Users\Svilen\AppData\Local\Temp\ccuaxGpF.s 			page 139


 6892 0340 2A000000 		.4byte	.LVL93
 6893 0344 0200     		.2byte	0x2
 6894 0346 4B       		.byte	0x4b
 6895 0347 9F       		.byte	0x9f
 6896 0348 2A000000 		.4byte	.LVL93
 6897 034c 2E000000 		.4byte	.LVL94
 6898 0350 0300     		.2byte	0x3
 6899 0352 08       		.byte	0x8
 6900 0353 20       		.byte	0x20
 6901 0354 9F       		.byte	0x9f
 6902 0355 30000000 		.4byte	.LVL95
 6903 0359 48000000 		.4byte	.LVL101
 6904 035d 0100     		.2byte	0x1
 6905 035f 56       		.byte	0x56
 6906 0360 00000000 		.4byte	0
 6907 0364 00000000 		.4byte	0
 6908              	.LLST25:
 6909 0368 68000000 		.4byte	.LVL110
 6910 036c 74000000 		.4byte	.LVL112
 6911 0370 0300     		.2byte	0x3
 6912 0372 75       		.byte	0x75
 6913 0373 78       		.sleb128 -8
 6914 0374 9F       		.byte	0x9f
 6915 0375 74000000 		.4byte	.LVL112
 6916 0379 90000000 		.4byte	.LVL115
 6917 037d 0400     		.2byte	0x4
 6918 037f 72       		.byte	0x72
 6919 0380 A01F     		.sleb128 4000
 6920 0382 9F       		.byte	0x9f
 6921 0383 90000000 		.4byte	.LVL115
 6922 0387 34010000 		.4byte	.LFE43
 6923 038b 0800     		.2byte	0x8
 6924 038d F3       		.byte	0xf3
 6925 038e 01       		.uleb128 0x1
 6926 038f 50       		.byte	0x50
 6927 0390 34       		.byte	0x34
 6928 0391 24       		.byte	0x24
 6929 0392 38       		.byte	0x38
 6930 0393 1C       		.byte	0x1c
 6931 0394 9F       		.byte	0x9f
 6932 0395 00000000 		.4byte	0
 6933 0399 00000000 		.4byte	0
 6934              	.LLST26:
 6935 039d 6C000000 		.4byte	.LVL111
 6936 03a1 90000000 		.4byte	.LVL115
 6937 03a5 0100     		.2byte	0x1
 6938 03a7 52       		.byte	0x52
 6939 03a8 90000000 		.4byte	.LVL115
 6940 03ac 34010000 		.4byte	.LFE43
 6941 03b0 0A00     		.2byte	0xa
 6942 03b2 F3       		.byte	0xf3
 6943 03b3 01       		.uleb128 0x1
 6944 03b4 50       		.byte	0x50
 6945 03b5 34       		.byte	0x34
 6946 03b6 24       		.byte	0x24
 6947 03b7 0A       		.byte	0xa
 6948 03b8 A80F     		.2byte	0xfa8
ARM GAS  C:\Users\Svilen\AppData\Local\Temp\ccuaxGpF.s 			page 140


 6949 03ba 1C       		.byte	0x1c
 6950 03bb 9F       		.byte	0x9f
 6951 03bc 00000000 		.4byte	0
 6952 03c0 00000000 		.4byte	0
 6953              	.LLST27:
 6954 03c4 88000000 		.4byte	.LVL113
 6955 03c8 A0000000 		.4byte	.LVL119
 6956 03cc 0100     		.2byte	0x1
 6957 03ce 51       		.byte	0x51
 6958 03cf A0000000 		.4byte	.LVL119
 6959 03d3 D1000000 		.4byte	.LVL126-1
 6960 03d7 2400     		.2byte	0x24
 6961 03d9 03       		.byte	0x3
 6962 03da 00000000 		.4byte	B2
 6963 03de 94       		.byte	0x94
 6964 03df 02       		.byte	0x2
 6965 03e0 40       		.byte	0x40
 6966 03e1 24       		.byte	0x24
 6967 03e2 40       		.byte	0x40
 6968 03e3 26       		.byte	0x26
 6969 03e4 75       		.byte	0x75
 6970 03e5 00       		.sleb128 0
 6971 03e6 1E       		.byte	0x1e
 6972 03e7 03       		.byte	0x3
 6973 03e8 00000000 		.4byte	B2
 6974 03ec 94       		.byte	0x94
 6975 03ed 02       		.byte	0x2
 6976 03ee 40       		.byte	0x40
 6977 03ef 24       		.byte	0x24
 6978 03f0 40       		.byte	0x40
 6979 03f1 26       		.byte	0x26
 6980 03f2 75       		.byte	0x75
 6981 03f3 00       		.sleb128 0
 6982 03f4 1E       		.byte	0x1e
 6983 03f5 4F       		.byte	0x4f
 6984 03f6 26       		.byte	0x26
 6985 03f7 45       		.byte	0x45
 6986 03f8 25       		.byte	0x25
 6987 03f9 22       		.byte	0x22
 6988 03fa 3B       		.byte	0x3b
 6989 03fb 26       		.byte	0x26
 6990 03fc 9F       		.byte	0x9f
 6991 03fd D4000000 		.4byte	.LVL127
 6992 0401 D7000000 		.4byte	.LVL128-1
 6993 0405 2400     		.2byte	0x24
 6994 0407 03       		.byte	0x3
 6995 0408 00000000 		.4byte	B2
 6996 040c 94       		.byte	0x94
 6997 040d 02       		.byte	0x2
 6998 040e 40       		.byte	0x40
 6999 040f 24       		.byte	0x24
 7000 0410 40       		.byte	0x40
 7001 0411 26       		.byte	0x26
 7002 0412 75       		.byte	0x75
 7003 0413 00       		.sleb128 0
 7004 0414 1E       		.byte	0x1e
 7005 0415 03       		.byte	0x3
ARM GAS  C:\Users\Svilen\AppData\Local\Temp\ccuaxGpF.s 			page 141


 7006 0416 00000000 		.4byte	B2
 7007 041a 94       		.byte	0x94
 7008 041b 02       		.byte	0x2
 7009 041c 40       		.byte	0x40
 7010 041d 24       		.byte	0x24
 7011 041e 40       		.byte	0x40
 7012 041f 26       		.byte	0x26
 7013 0420 75       		.byte	0x75
 7014 0421 00       		.sleb128 0
 7015 0422 1E       		.byte	0x1e
 7016 0423 4F       		.byte	0x4f
 7017 0424 26       		.byte	0x26
 7018 0425 45       		.byte	0x45
 7019 0426 25       		.byte	0x25
 7020 0427 22       		.byte	0x22
 7021 0428 3B       		.byte	0x3b
 7022 0429 26       		.byte	0x26
 7023 042a 9F       		.byte	0x9f
 7024 042b E4000000 		.4byte	.LVL130
 7025 042f E8000000 		.4byte	.LVL131
 7026 0433 0100     		.2byte	0x1
 7027 0435 52       		.byte	0x52
 7028 0436 E8000000 		.4byte	.LVL131
 7029 043a F0000000 		.4byte	.LVL132
 7030 043e 1800     		.2byte	0x18
 7031 0440 70       		.byte	0x70
 7032 0441 00       		.sleb128 0
 7033 0442 4F       		.byte	0x4f
 7034 0443 26       		.byte	0x26
 7035 0444 48       		.byte	0x48
 7036 0445 25       		.byte	0x25
 7037 0446 70       		.byte	0x70
 7038 0447 00       		.sleb128 0
 7039 0448 22       		.byte	0x22
 7040 0449 38       		.byte	0x38
 7041 044a 26       		.byte	0x26
 7042 044b 70       		.byte	0x70
 7043 044c 00       		.sleb128 0
 7044 044d 4F       		.byte	0x4f
 7045 044e 26       		.byte	0x26
 7046 044f 48       		.byte	0x48
 7047 0450 25       		.byte	0x25
 7048 0451 70       		.byte	0x70
 7049 0452 00       		.sleb128 0
 7050 0453 22       		.byte	0x22
 7051 0454 38       		.byte	0x38
 7052 0455 26       		.byte	0x26
 7053 0456 1E       		.byte	0x1e
 7054 0457 9F       		.byte	0x9f
 7055 0458 F0000000 		.4byte	.LVL132
 7056 045c FE000000 		.4byte	.LVL134
 7057 0460 0100     		.2byte	0x1
 7058 0462 53       		.byte	0x53
 7059 0463 FE000000 		.4byte	.LVL134
 7060 0467 0E010000 		.4byte	.LVL136
 7061 046b 3E00     		.2byte	0x3e
 7062 046d 70       		.byte	0x70
ARM GAS  C:\Users\Svilen\AppData\Local\Temp\ccuaxGpF.s 			page 142


 7063 046e 00       		.sleb128 0
 7064 046f 4F       		.byte	0x4f
 7065 0470 26       		.byte	0x26
 7066 0471 48       		.byte	0x48
 7067 0472 25       		.byte	0x25
 7068 0473 70       		.byte	0x70
 7069 0474 00       		.sleb128 0
 7070 0475 22       		.byte	0x22
 7071 0476 38       		.byte	0x38
 7072 0477 26       		.byte	0x26
 7073 0478 70       		.byte	0x70
 7074 0479 00       		.sleb128 0
 7075 047a 4F       		.byte	0x4f
 7076 047b 26       		.byte	0x26
 7077 047c 48       		.byte	0x48
 7078 047d 25       		.byte	0x25
 7079 047e 70       		.byte	0x70
 7080 047f 00       		.sleb128 0
 7081 0480 22       		.byte	0x22
 7082 0481 38       		.byte	0x38
 7083 0482 26       		.byte	0x26
 7084 0483 1E       		.byte	0x1e
 7085 0484 0A       		.byte	0xa
 7086 0485 DE0B     		.2byte	0xbde
 7087 0487 1E       		.byte	0x1e
 7088 0488 70       		.byte	0x70
 7089 0489 00       		.sleb128 0
 7090 048a 4F       		.byte	0x4f
 7091 048b 26       		.byte	0x26
 7092 048c 48       		.byte	0x48
 7093 048d 25       		.byte	0x25
 7094 048e 70       		.byte	0x70
 7095 048f 00       		.sleb128 0
 7096 0490 22       		.byte	0x22
 7097 0491 38       		.byte	0x38
 7098 0492 26       		.byte	0x26
 7099 0493 70       		.byte	0x70
 7100 0494 00       		.sleb128 0
 7101 0495 4F       		.byte	0x4f
 7102 0496 26       		.byte	0x26
 7103 0497 48       		.byte	0x48
 7104 0498 25       		.byte	0x25
 7105 0499 70       		.byte	0x70
 7106 049a 00       		.sleb128 0
 7107 049b 22       		.byte	0x22
 7108 049c 38       		.byte	0x38
 7109 049d 26       		.byte	0x26
 7110 049e 1E       		.byte	0x1e
 7111 049f 0A       		.byte	0xa
 7112 04a0 DE0B     		.2byte	0xbde
 7113 04a2 1E       		.byte	0x1e
 7114 04a3 4F       		.byte	0x4f
 7115 04a4 26       		.byte	0x26
 7116 04a5 40       		.byte	0x40
 7117 04a6 25       		.byte	0x25
 7118 04a7 22       		.byte	0x22
 7119 04a8 40       		.byte	0x40
ARM GAS  C:\Users\Svilen\AppData\Local\Temp\ccuaxGpF.s 			page 143


 7120 04a9 26       		.byte	0x26
 7121 04aa 9F       		.byte	0x9f
 7122 04ab 00000000 		.4byte	0
 7123 04af 00000000 		.4byte	0
 7124              	.LLST28:
 7125 04b3 98000000 		.4byte	.LVL116
 7126 04b7 9A000000 		.4byte	.LVL117
 7127 04bb 0100     		.2byte	0x1
 7128 04bd 52       		.byte	0x52
 7129 04be 9A000000 		.4byte	.LVL117
 7130 04c2 9C000000 		.4byte	.LVL118
 7131 04c6 1B00     		.2byte	0x1b
 7132 04c8 F3       		.byte	0xf3
 7133 04c9 01       		.uleb128 0x1
 7134 04ca 50       		.byte	0x50
 7135 04cb 34       		.byte	0x34
 7136 04cc 24       		.byte	0x24
 7137 04cd 0A       		.byte	0xa
 7138 04ce A80F     		.2byte	0xfa8
 7139 04d0 1C       		.byte	0x1c
 7140 04d1 03       		.byte	0x3
 7141 04d2 00000000 		.4byte	AC2
 7142 04d6 94       		.byte	0x94
 7143 04d7 02       		.byte	0x2
 7144 04d8 40       		.byte	0x40
 7145 04d9 24       		.byte	0x24
 7146 04da 40       		.byte	0x40
 7147 04db 26       		.byte	0x26
 7148 04dc 1E       		.byte	0x1e
 7149 04dd 73       		.byte	0x73
 7150 04de 00       		.sleb128 0
 7151 04df 22       		.byte	0x22
 7152 04e0 3B       		.byte	0x3b
 7153 04e1 26       		.byte	0x26
 7154 04e2 9F       		.byte	0x9f
 7155 04e3 9C000000 		.4byte	.LVL118
 7156 04e7 D1000000 		.4byte	.LVL126-1
 7157 04eb 3200     		.2byte	0x32
 7158 04ed F3       		.byte	0xf3
 7159 04ee 01       		.uleb128 0x1
 7160 04ef 50       		.byte	0x50
 7161 04f0 34       		.byte	0x34
 7162 04f1 24       		.byte	0x24
 7163 04f2 0A       		.byte	0xa
 7164 04f3 A80F     		.2byte	0xfa8
 7165 04f5 1C       		.byte	0x1c
 7166 04f6 03       		.byte	0x3
 7167 04f7 00000000 		.4byte	AC2
 7168 04fb 94       		.byte	0x94
 7169 04fc 02       		.byte	0x2
 7170 04fd 40       		.byte	0x40
 7171 04fe 24       		.byte	0x24
 7172 04ff 40       		.byte	0x40
 7173 0500 26       		.byte	0x26
 7174 0501 1E       		.byte	0x1e
 7175 0502 F3       		.byte	0xf3
 7176 0503 01       		.uleb128 0x1
ARM GAS  C:\Users\Svilen\AppData\Local\Temp\ccuaxGpF.s 			page 144


 7177 0504 50       		.byte	0x50
 7178 0505 34       		.byte	0x34
 7179 0506 24       		.byte	0x24
 7180 0507 0A       		.byte	0xa
 7181 0508 A80F     		.2byte	0xfa8
 7182 050a 1C       		.byte	0x1c
 7183 050b 03       		.byte	0x3
 7184 050c 00000000 		.4byte	AC2
 7185 0510 94       		.byte	0x94
 7186 0511 02       		.byte	0x2
 7187 0512 40       		.byte	0x40
 7188 0513 24       		.byte	0x24
 7189 0514 40       		.byte	0x40
 7190 0515 26       		.byte	0x26
 7191 0516 1E       		.byte	0x1e
 7192 0517 4F       		.byte	0x4f
 7193 0518 26       		.byte	0x26
 7194 0519 45       		.byte	0x45
 7195 051a 25       		.byte	0x25
 7196 051b 22       		.byte	0x22
 7197 051c 3B       		.byte	0x3b
 7198 051d 26       		.byte	0x26
 7199 051e 9F       		.byte	0x9f
 7200 051f D4000000 		.4byte	.LVL127
 7201 0523 D7000000 		.4byte	.LVL128-1
 7202 0527 3200     		.2byte	0x32
 7203 0529 F3       		.byte	0xf3
 7204 052a 01       		.uleb128 0x1
 7205 052b 50       		.byte	0x50
 7206 052c 34       		.byte	0x34
 7207 052d 24       		.byte	0x24
 7208 052e 0A       		.byte	0xa
 7209 052f A80F     		.2byte	0xfa8
 7210 0531 1C       		.byte	0x1c
 7211 0532 03       		.byte	0x3
 7212 0533 00000000 		.4byte	AC2
 7213 0537 94       		.byte	0x94
 7214 0538 02       		.byte	0x2
 7215 0539 40       		.byte	0x40
 7216 053a 24       		.byte	0x24
 7217 053b 40       		.byte	0x40
 7218 053c 26       		.byte	0x26
 7219 053d 1E       		.byte	0x1e
 7220 053e F3       		.byte	0xf3
 7221 053f 01       		.uleb128 0x1
 7222 0540 50       		.byte	0x50
 7223 0541 34       		.byte	0x34
 7224 0542 24       		.byte	0x24
 7225 0543 0A       		.byte	0xa
 7226 0544 A80F     		.2byte	0xfa8
 7227 0546 1C       		.byte	0x1c
 7228 0547 03       		.byte	0x3
 7229 0548 00000000 		.4byte	AC2
 7230 054c 94       		.byte	0x94
 7231 054d 02       		.byte	0x2
 7232 054e 40       		.byte	0x40
 7233 054f 24       		.byte	0x24
ARM GAS  C:\Users\Svilen\AppData\Local\Temp\ccuaxGpF.s 			page 145


 7234 0550 40       		.byte	0x40
 7235 0551 26       		.byte	0x26
 7236 0552 1E       		.byte	0x1e
 7237 0553 4F       		.byte	0x4f
 7238 0554 26       		.byte	0x26
 7239 0555 45       		.byte	0x45
 7240 0556 25       		.byte	0x25
 7241 0557 22       		.byte	0x22
 7242 0558 3B       		.byte	0x3b
 7243 0559 26       		.byte	0x26
 7244 055a 9F       		.byte	0x9f
 7245 055b FC000000 		.4byte	.LVL133
 7246 055f 00010000 		.4byte	.LVL135
 7247 0563 0100     		.2byte	0x1
 7248 0565 52       		.byte	0x52
 7249 0566 00010000 		.4byte	.LVL135
 7250 056a 0E010000 		.4byte	.LVL136
 7251 056e 0C00     		.2byte	0xc
 7252 0570 70       		.byte	0x70
 7253 0571 00       		.sleb128 0
 7254 0572 0B       		.byte	0xb
 7255 0573 43E3     		.2byte	0xe343
 7256 0575 1E       		.byte	0x1e
 7257 0576 71       		.byte	0x71
 7258 0577 00       		.sleb128 0
 7259 0578 22       		.byte	0x22
 7260 0579 40       		.byte	0x40
 7261 057a 26       		.byte	0x26
 7262 057b 9F       		.byte	0x9f
 7263 057c 00000000 		.4byte	0
 7264 0580 00000000 		.4byte	0
 7265              	.LLST29:
 7266 0584 9A000000 		.4byte	.LVL117
 7267 0588 BC000000 		.4byte	.LVL121
 7268 058c 0100     		.2byte	0x1
 7269 058e 52       		.byte	0x52
 7270 058f BC000000 		.4byte	.LVL121
 7271 0593 C4000000 		.4byte	.LVL123
 7272 0597 0500     		.2byte	0x5
 7273 0599 72       		.byte	0x72
 7274 059a 80807E   		.sleb128 -32768
 7275 059d 9F       		.byte	0x9f
 7276 059e C4000000 		.4byte	.LVL123
 7277 05a2 D1000000 		.4byte	.LVL126-1
 7278 05a6 5600     		.2byte	0x56
 7279 05a8 03       		.byte	0x3
 7280 05a9 00000000 		.4byte	B2
 7281 05ad 94       		.byte	0x94
 7282 05ae 02       		.byte	0x2
 7283 05af 40       		.byte	0x40
 7284 05b0 24       		.byte	0x24
 7285 05b1 40       		.byte	0x40
 7286 05b2 26       		.byte	0x26
 7287 05b3 75       		.byte	0x75
 7288 05b4 00       		.sleb128 0
 7289 05b5 1E       		.byte	0x1e
 7290 05b6 03       		.byte	0x3
ARM GAS  C:\Users\Svilen\AppData\Local\Temp\ccuaxGpF.s 			page 146


 7291 05b7 00000000 		.4byte	B2
 7292 05bb 94       		.byte	0x94
 7293 05bc 02       		.byte	0x2
 7294 05bd 40       		.byte	0x40
 7295 05be 24       		.byte	0x24
 7296 05bf 40       		.byte	0x40
 7297 05c0 26       		.byte	0x26
 7298 05c1 75       		.byte	0x75
 7299 05c2 00       		.sleb128 0
 7300 05c3 1E       		.byte	0x1e
 7301 05c4 4F       		.byte	0x4f
 7302 05c5 26       		.byte	0x26
 7303 05c6 45       		.byte	0x45
 7304 05c7 25       		.byte	0x25
 7305 05c8 22       		.byte	0x22
 7306 05c9 3B       		.byte	0x3b
 7307 05ca 26       		.byte	0x26
 7308 05cb F3       		.byte	0xf3
 7309 05cc 01       		.uleb128 0x1
 7310 05cd 50       		.byte	0x50
 7311 05ce 34       		.byte	0x34
 7312 05cf 24       		.byte	0x24
 7313 05d0 0A       		.byte	0xa
 7314 05d1 A80F     		.2byte	0xfa8
 7315 05d3 1C       		.byte	0x1c
 7316 05d4 03       		.byte	0x3
 7317 05d5 00000000 		.4byte	AC2
 7318 05d9 94       		.byte	0x94
 7319 05da 02       		.byte	0x2
 7320 05db 40       		.byte	0x40
 7321 05dc 24       		.byte	0x24
 7322 05dd 40       		.byte	0x40
 7323 05de 26       		.byte	0x26
 7324 05df 1E       		.byte	0x1e
 7325 05e0 F3       		.byte	0xf3
 7326 05e1 01       		.uleb128 0x1
 7327 05e2 50       		.byte	0x50
 7328 05e3 34       		.byte	0x34
 7329 05e4 24       		.byte	0x24
 7330 05e5 0A       		.byte	0xa
 7331 05e6 A80F     		.2byte	0xfa8
 7332 05e8 1C       		.byte	0x1c
 7333 05e9 03       		.byte	0x3
 7334 05ea 00000000 		.4byte	AC2
 7335 05ee 94       		.byte	0x94
 7336 05ef 02       		.byte	0x2
 7337 05f0 40       		.byte	0x40
 7338 05f1 24       		.byte	0x24
 7339 05f2 40       		.byte	0x40
 7340 05f3 26       		.byte	0x26
 7341 05f4 1E       		.byte	0x1e
 7342 05f5 4F       		.byte	0x4f
 7343 05f6 26       		.byte	0x26
 7344 05f7 45       		.byte	0x45
 7345 05f8 25       		.byte	0x25
 7346 05f9 22       		.byte	0x22
 7347 05fa 3B       		.byte	0x3b
ARM GAS  C:\Users\Svilen\AppData\Local\Temp\ccuaxGpF.s 			page 147


 7348 05fb 26       		.byte	0x26
 7349 05fc 22       		.byte	0x22
 7350 05fd 9F       		.byte	0x9f
 7351 05fe D4000000 		.4byte	.LVL127
 7352 0602 D7000000 		.4byte	.LVL128-1
 7353 0606 5600     		.2byte	0x56
 7354 0608 03       		.byte	0x3
 7355 0609 00000000 		.4byte	B2
 7356 060d 94       		.byte	0x94
 7357 060e 02       		.byte	0x2
 7358 060f 40       		.byte	0x40
 7359 0610 24       		.byte	0x24
 7360 0611 40       		.byte	0x40
 7361 0612 26       		.byte	0x26
 7362 0613 75       		.byte	0x75
 7363 0614 00       		.sleb128 0
 7364 0615 1E       		.byte	0x1e
 7365 0616 03       		.byte	0x3
 7366 0617 00000000 		.4byte	B2
 7367 061b 94       		.byte	0x94
 7368 061c 02       		.byte	0x2
 7369 061d 40       		.byte	0x40
 7370 061e 24       		.byte	0x24
 7371 061f 40       		.byte	0x40
 7372 0620 26       		.byte	0x26
 7373 0621 75       		.byte	0x75
 7374 0622 00       		.sleb128 0
 7375 0623 1E       		.byte	0x1e
 7376 0624 4F       		.byte	0x4f
 7377 0625 26       		.byte	0x26
 7378 0626 45       		.byte	0x45
 7379 0627 25       		.byte	0x25
 7380 0628 22       		.byte	0x22
 7381 0629 3B       		.byte	0x3b
 7382 062a 26       		.byte	0x26
 7383 062b F3       		.byte	0xf3
 7384 062c 01       		.uleb128 0x1
 7385 062d 50       		.byte	0x50
 7386 062e 34       		.byte	0x34
 7387 062f 24       		.byte	0x24
 7388 0630 0A       		.byte	0xa
 7389 0631 A80F     		.2byte	0xfa8
 7390 0633 1C       		.byte	0x1c
 7391 0634 03       		.byte	0x3
 7392 0635 00000000 		.4byte	AC2
 7393 0639 94       		.byte	0x94
 7394 063a 02       		.byte	0x2
 7395 063b 40       		.byte	0x40
 7396 063c 24       		.byte	0x24
 7397 063d 40       		.byte	0x40
 7398 063e 26       		.byte	0x26
 7399 063f 1E       		.byte	0x1e
 7400 0640 F3       		.byte	0xf3
 7401 0641 01       		.uleb128 0x1
 7402 0642 50       		.byte	0x50
 7403 0643 34       		.byte	0x34
 7404 0644 24       		.byte	0x24
ARM GAS  C:\Users\Svilen\AppData\Local\Temp\ccuaxGpF.s 			page 148


 7405 0645 0A       		.byte	0xa
 7406 0646 A80F     		.2byte	0xfa8
 7407 0648 1C       		.byte	0x1c
 7408 0649 03       		.byte	0x3
 7409 064a 00000000 		.4byte	AC2
 7410 064e 94       		.byte	0x94
 7411 064f 02       		.byte	0x2
 7412 0650 40       		.byte	0x40
 7413 0651 24       		.byte	0x24
 7414 0652 40       		.byte	0x40
 7415 0653 26       		.byte	0x26
 7416 0654 1E       		.byte	0x1e
 7417 0655 4F       		.byte	0x4f
 7418 0656 26       		.byte	0x26
 7419 0657 45       		.byte	0x45
 7420 0658 25       		.byte	0x25
 7421 0659 22       		.byte	0x22
 7422 065a 3B       		.byte	0x3b
 7423 065b 26       		.byte	0x26
 7424 065c 22       		.byte	0x22
 7425 065d 9F       		.byte	0x9f
 7426 065e 00000000 		.4byte	0
 7427 0662 00000000 		.4byte	0
 7428              	.LLST30:
 7429 0666 B0000000 		.4byte	.LVL120
 7430 066a D1000000 		.4byte	.LVL126-1
 7431 066e 0100     		.2byte	0x1
 7432 0670 53       		.byte	0x53
 7433 0671 D4000000 		.4byte	.LVL127
 7434 0675 D7000000 		.4byte	.LVL128-1
 7435 0679 0100     		.2byte	0x1
 7436 067b 53       		.byte	0x53
 7437 067c 00000000 		.4byte	0
 7438 0680 00000000 		.4byte	0
 7439              	.LLST31:
 7440 0684 C0000000 		.4byte	.LVL122
 7441 0688 D1000000 		.4byte	.LVL126-1
 7442 068c 0100     		.2byte	0x1
 7443 068e 51       		.byte	0x51
 7444 068f D4000000 		.4byte	.LVL127
 7445 0693 D7000000 		.4byte	.LVL128-1
 7446 0697 0100     		.2byte	0x1
 7447 0699 51       		.byte	0x51
 7448 069a 00000000 		.4byte	0
 7449 069e 00000000 		.4byte	0
 7450              	.LLST32:
 7451 06a2 C8000000 		.4byte	.LVL124
 7452 06a6 CE000000 		.4byte	.LVL125
 7453 06aa 0100     		.2byte	0x1
 7454 06ac 50       		.byte	0x50
 7455 06ad CE000000 		.4byte	.LVL125
 7456 06b1 D1000000 		.4byte	.LVL126-1
 7457 06b5 0900     		.2byte	0x9
 7458 06b7 76       		.byte	0x76
 7459 06b8 00       		.sleb128 0
 7460 06b9 73       		.byte	0x73
 7461 06ba 00       		.sleb128 0
ARM GAS  C:\Users\Svilen\AppData\Local\Temp\ccuaxGpF.s 			page 149


 7462 06bb 1C       		.byte	0x1c
 7463 06bc 72       		.byte	0x72
 7464 06bd 00       		.sleb128 0
 7465 06be 1E       		.byte	0x1e
 7466 06bf 9F       		.byte	0x9f
 7467 06c0 D4000000 		.4byte	.LVL127
 7468 06c4 D7000000 		.4byte	.LVL128-1
 7469 06c8 0100     		.2byte	0x1
 7470 06ca 50       		.byte	0x50
 7471 06cb 00000000 		.4byte	0
 7472 06cf 00000000 		.4byte	0
 7473              	.LLST33:
 7474 06d3 D2000000 		.4byte	.LVL126
 7475 06d7 D4000000 		.4byte	.LVL127
 7476 06db 0100     		.2byte	0x1
 7477 06dd 50       		.byte	0x50
 7478 06de DA000000 		.4byte	.LVL129
 7479 06e2 34010000 		.4byte	.LFE43
 7480 06e6 0100     		.2byte	0x1
 7481 06e8 50       		.byte	0x50
 7482 06e9 00000000 		.4byte	0
 7483 06ed 00000000 		.4byte	0
 7484              	.LLST34:
 7485 06f1 00000000 		.4byte	.LVL151
 7486 06f5 07000000 		.4byte	.LVL152-1
 7487 06f9 0100     		.2byte	0x1
 7488 06fb 50       		.byte	0x50
 7489 06fc 07000000 		.4byte	.LVL152-1
 7490 0700 24000000 		.4byte	.LFE45
 7491 0704 0400     		.2byte	0x4
 7492 0706 F3       		.byte	0xf3
 7493 0707 01       		.uleb128 0x1
 7494 0708 50       		.byte	0x50
 7495 0709 9F       		.byte	0x9f
 7496 070a 00000000 		.4byte	0
 7497 070e 00000000 		.4byte	0
 7498              	.LLST35:
 7499 0712 00000000 		.4byte	.LVL156
 7500 0716 06000000 		.4byte	.LVL158
 7501 071a 0100     		.2byte	0x1
 7502 071c 50       		.byte	0x50
 7503 071d 06000000 		.4byte	.LVL158
 7504 0721 32000000 		.4byte	.LVL165
 7505 0725 0100     		.2byte	0x1
 7506 0727 54       		.byte	0x54
 7507 0728 00000000 		.4byte	0
 7508 072c 00000000 		.4byte	0
 7509              	.LLST36:
 7510 0730 00000000 		.4byte	.LVL156
 7511 0734 09000000 		.4byte	.LVL159-1
 7512 0738 0100     		.2byte	0x1
 7513 073a 51       		.byte	0x51
 7514 073b 09000000 		.4byte	.LVL159-1
 7515 073f 38000000 		.4byte	.LFE46
 7516 0743 0400     		.2byte	0x4
 7517 0745 F3       		.byte	0xf3
 7518 0746 01       		.uleb128 0x1
ARM GAS  C:\Users\Svilen\AppData\Local\Temp\ccuaxGpF.s 			page 150


 7519 0747 51       		.byte	0x51
 7520 0748 9F       		.byte	0x9f
 7521 0749 00000000 		.4byte	0
 7522 074d 00000000 		.4byte	0
 7523              	.LLST37:
 7524 0751 04000000 		.4byte	.LVL157
 7525 0755 0C000000 		.4byte	.LVL160
 7526 0759 0200     		.2byte	0x2
 7527 075b 30       		.byte	0x30
 7528 075c 9F       		.byte	0x9f
 7529 075d 0C000000 		.4byte	.LVL160
 7530 0761 32000000 		.4byte	.LVL166
 7531 0765 0100     		.2byte	0x1
 7532 0767 55       		.byte	0x55
 7533 0768 32000000 		.4byte	.LVL166
 7534 076c 38000000 		.4byte	.LFE46
 7535 0770 0100     		.2byte	0x1
 7536 0772 50       		.byte	0x50
 7537 0773 00000000 		.4byte	0
 7538 0777 00000000 		.4byte	0
 7539              	.LLST38:
 7540 077b 10000000 		.4byte	.LVL161
 7541 077f 32000000 		.4byte	.LVL164
 7542 0783 0100     		.2byte	0x1
 7543 0785 50       		.byte	0x50
 7544 0786 00000000 		.4byte	0
 7545 078a 00000000 		.4byte	0
 7546              	.LLST39:
 7547 078e 46000000 		.4byte	.LVL173
 7548 0792 BC010000 		.4byte	.LVL235
 7549 0796 0200     		.2byte	0x2
 7550 0798 91       		.byte	0x91
 7551 0799 54       		.sleb128 -44
 7552 079a C0010000 		.4byte	.LVL236
 7553 079e C6010000 		.4byte	.LVL237
 7554 07a2 0200     		.2byte	0x2
 7555 07a4 91       		.byte	0x91
 7556 07a5 54       		.sleb128 -44
 7557 07a6 00000000 		.4byte	0
 7558 07aa 00000000 		.4byte	0
 7559              	.LLST40:
 7560 07ae BA000000 		.4byte	.LVL192
 7561 07b2 AE010000 		.4byte	.LVL232
 7562 07b6 0100     		.2byte	0x1
 7563 07b8 57       		.byte	0x57
 7564 07b9 C0010000 		.4byte	.LVL236
 7565 07bd C6010000 		.4byte	.LVL237
 7566 07c1 0100     		.2byte	0x1
 7567 07c3 57       		.byte	0x57
 7568 07c4 00000000 		.4byte	0
 7569 07c8 00000000 		.4byte	0
 7570              	.LLST41:
 7571 07cc 52010000 		.4byte	.LVL222
 7572 07d0 BC010000 		.4byte	.LVL235
 7573 07d4 0100     		.2byte	0x1
 7574 07d6 58       		.byte	0x58
 7575 07d7 C0010000 		.4byte	.LVL236
ARM GAS  C:\Users\Svilen\AppData\Local\Temp\ccuaxGpF.s 			page 151


 7576 07db C6010000 		.4byte	.LVL237
 7577 07df 0100     		.2byte	0x1
 7578 07e1 58       		.byte	0x58
 7579 07e2 00000000 		.4byte	0
 7580 07e6 00000000 		.4byte	0
 7581              	.LLST42:
 7582 07ea BA000000 		.4byte	.LVL192
 7583 07ee C6000000 		.4byte	.LVL195
 7584 07f2 0100     		.2byte	0x1
 7585 07f4 56       		.byte	0x56
 7586 07f5 C8000000 		.4byte	.LVL196
 7587 07f9 E2000000 		.4byte	.LVL200
 7588 07fd 0100     		.2byte	0x1
 7589 07ff 56       		.byte	0x56
 7590 0800 52010000 		.4byte	.LVL222
 7591 0804 62010000 		.4byte	.LVL225
 7592 0808 0100     		.2byte	0x1
 7593 080a 56       		.byte	0x56
 7594 080b 64010000 		.4byte	.LVL226
 7595 080f BC010000 		.4byte	.LVL235
 7596 0813 0100     		.2byte	0x1
 7597 0815 56       		.byte	0x56
 7598 0816 C0010000 		.4byte	.LVL236
 7599 081a C6010000 		.4byte	.LVL237
 7600 081e 0100     		.2byte	0x1
 7601 0820 56       		.byte	0x56
 7602 0821 00000000 		.4byte	0
 7603 0825 00000000 		.4byte	0
 7604              	.LLST43:
 7605 0829 88000000 		.4byte	.LVL182
 7606 082d BC010000 		.4byte	.LVL235
 7607 0831 0100     		.2byte	0x1
 7608 0833 59       		.byte	0x59
 7609 0834 C0010000 		.4byte	.LVL236
 7610 0838 C6010000 		.4byte	.LVL237
 7611 083c 0100     		.2byte	0x1
 7612 083e 59       		.byte	0x59
 7613 083f 00000000 		.4byte	0
 7614 0843 00000000 		.4byte	0
 7615              	.LLST44:
 7616 0847 1E010000 		.4byte	.LVL212
 7617 084b BC010000 		.4byte	.LVL235
 7618 084f 0100     		.2byte	0x1
 7619 0851 5B       		.byte	0x5b
 7620 0852 C0010000 		.4byte	.LVL236
 7621 0856 C6010000 		.4byte	.LVL237
 7622 085a 0100     		.2byte	0x1
 7623 085c 5B       		.byte	0x5b
 7624 085d 00000000 		.4byte	0
 7625 0861 00000000 		.4byte	0
 7626              	.LLST45:
 7627 0865 EA000000 		.4byte	.LVL202
 7628 0869 BC010000 		.4byte	.LVL235
 7629 086d 0100     		.2byte	0x1
 7630 086f 5A       		.byte	0x5a
 7631 0870 C0010000 		.4byte	.LVL236
 7632 0874 C6010000 		.4byte	.LVL237
ARM GAS  C:\Users\Svilen\AppData\Local\Temp\ccuaxGpF.s 			page 152


 7633 0878 0100     		.2byte	0x1
 7634 087a 5A       		.byte	0x5a
 7635 087b 00000000 		.4byte	0
 7636 087f 00000000 		.4byte	0
 7637              	.LLST46:
 7638 0883 B2010000 		.4byte	.LVL233
 7639 0887 BC010000 		.4byte	.LVL235
 7640 088b 0100     		.2byte	0x1
 7641 088d 53       		.byte	0x53
 7642 088e 00000000 		.4byte	0
 7643 0892 00000000 		.4byte	0
 7644              	.LLST47:
 7645 0896 62000000 		.4byte	.LVL176
 7646 089a 78000000 		.4byte	.LVL179
 7647 089e 0100     		.2byte	0x1
 7648 08a0 55       		.byte	0x55
 7649 08a1 7A000000 		.4byte	.LVL180
 7650 08a5 82000000 		.4byte	.LVL181
 7651 08a9 0100     		.2byte	0x1
 7652 08ab 55       		.byte	0x55
 7653 08ac 88000000 		.4byte	.LVL182
 7654 08b0 AC000000 		.4byte	.LVL188
 7655 08b4 0100     		.2byte	0x1
 7656 08b6 55       		.byte	0x55
 7657 08b7 AE000000 		.4byte	.LVL189
 7658 08bb B4000000 		.4byte	.LVL190
 7659 08bf 0100     		.2byte	0x1
 7660 08c1 55       		.byte	0x55
 7661 08c2 BA000000 		.4byte	.LVL192
 7662 08c6 DA000000 		.4byte	.LVL198
 7663 08ca 0100     		.2byte	0x1
 7664 08cc 55       		.byte	0x55
 7665 08cd DC000000 		.4byte	.LVL199
 7666 08d1 E4000000 		.4byte	.LVL201
 7667 08d5 0100     		.2byte	0x1
 7668 08d7 55       		.byte	0x55
 7669 08d8 EA000000 		.4byte	.LVL202
 7670 08dc 0E010000 		.4byte	.LVL208
 7671 08e0 0100     		.2byte	0x1
 7672 08e2 55       		.byte	0x55
 7673 08e3 10010000 		.4byte	.LVL209
 7674 08e7 18010000 		.4byte	.LVL211
 7675 08eb 0100     		.2byte	0x1
 7676 08ed 55       		.byte	0x55
 7677 08ee 1E010000 		.4byte	.LVL212
 7678 08f2 42010000 		.4byte	.LVL218
 7679 08f6 0100     		.2byte	0x1
 7680 08f8 55       		.byte	0x55
 7681 08f9 44010000 		.4byte	.LVL219
 7682 08fd 4A010000 		.4byte	.LVL220
 7683 0901 0100     		.2byte	0x1
 7684 0903 55       		.byte	0x55
 7685 0904 52010000 		.4byte	.LVL222
 7686 0908 76010000 		.4byte	.LVL228
 7687 090c 0100     		.2byte	0x1
 7688 090e 55       		.byte	0x55
 7689 090f 78010000 		.4byte	.LVL229
ARM GAS  C:\Users\Svilen\AppData\Local\Temp\ccuaxGpF.s 			page 153


 7690 0913 BC010000 		.4byte	.LVL235
 7691 0917 0100     		.2byte	0x1
 7692 0919 55       		.byte	0x55
 7693 091a C0010000 		.4byte	.LVL236
 7694 091e C6010000 		.4byte	.LVL237
 7695 0922 0100     		.2byte	0x1
 7696 0924 55       		.byte	0x55
 7697 0925 00000000 		.4byte	0
 7698 0929 00000000 		.4byte	0
 7699              	.LLST48:
 7700 092d 88000000 		.4byte	.LVL182
 7701 0931 98000000 		.4byte	.LVL185
 7702 0935 0100     		.2byte	0x1
 7703 0937 56       		.byte	0x56
 7704 0938 9A000000 		.4byte	.LVL186
 7705 093c B6000000 		.4byte	.LVL191
 7706 0940 0100     		.2byte	0x1
 7707 0942 56       		.byte	0x56
 7708 0943 EA000000 		.4byte	.LVL202
 7709 0947 FA000000 		.4byte	.LVL205
 7710 094b 0100     		.2byte	0x1
 7711 094d 56       		.byte	0x56
 7712 094e FC000000 		.4byte	.LVL206
 7713 0952 16010000 		.4byte	.LVL210
 7714 0956 0100     		.2byte	0x1
 7715 0958 56       		.byte	0x56
 7716 0959 1E010000 		.4byte	.LVL212
 7717 095d 2E010000 		.4byte	.LVL215
 7718 0961 0100     		.2byte	0x1
 7719 0963 56       		.byte	0x56
 7720 0964 30010000 		.4byte	.LVL216
 7721 0968 4C010000 		.4byte	.LVL221
 7722 096c 0100     		.2byte	0x1
 7723 096e 56       		.byte	0x56
 7724 096f 00000000 		.4byte	0
 7725 0973 00000000 		.4byte	0
 7726              	.LLST49:
 7727 0977 A0010000 		.4byte	.LVL298
 7728 097b AA010000 		.4byte	.LVL300
 7729 097f 0200     		.2byte	0x2
 7730 0981 33       		.byte	0x33
 7731 0982 9F       		.byte	0x9f
 7732 0983 AA010000 		.4byte	.LVL300
 7733 0987 E2010000 		.4byte	.LVL308
 7734 098b 0100     		.2byte	0x1
 7735 098d 54       		.byte	0x54
 7736 098e 4C040000 		.4byte	.LVL376
 7737 0992 5C040000 		.4byte	.LVL378
 7738 0996 0100     		.2byte	0x1
 7739 0998 54       		.byte	0x54
 7740 0999 76040000 		.4byte	.LVL383
 7741 099d 0C050000 		.4byte	.LFE36
 7742 09a1 0100     		.2byte	0x1
 7743 09a3 54       		.byte	0x54
 7744 09a4 00000000 		.4byte	0
 7745 09a8 00000000 		.4byte	0
 7746              	.LLST50:
ARM GAS  C:\Users\Svilen\AppData\Local\Temp\ccuaxGpF.s 			page 154


 7747 09ac 90000000 		.4byte	.LVL258
 7748 09b0 94000000 		.4byte	.LVL259
 7749 09b4 0200     		.2byte	0x2
 7750 09b6 35       		.byte	0x35
 7751 09b7 9F       		.byte	0x9f
 7752 09b8 C0000000 		.4byte	.LVL267
 7753 09bc 02010000 		.4byte	.LVL277
 7754 09c0 0100     		.2byte	0x1
 7755 09c2 54       		.byte	0x54
 7756 09c3 24010000 		.4byte	.LVL281
 7757 09c7 42010000 		.4byte	.LVL286
 7758 09cb 0100     		.2byte	0x1
 7759 09cd 54       		.byte	0x54
 7760 09ce 44010000 		.4byte	.LVL287
 7761 09d2 4A010000 		.4byte	.LVL288
 7762 09d6 0100     		.2byte	0x1
 7763 09d8 54       		.byte	0x54
 7764 09d9 94010000 		.4byte	.LVL295
 7765 09dd 96010000 		.4byte	.LVL296
 7766 09e1 0200     		.2byte	0x2
 7767 09e3 33       		.byte	0x33
 7768 09e4 9F       		.byte	0x9f
 7769 09e5 96010000 		.4byte	.LVL296
 7770 09e9 1E020000 		.4byte	.LVL318
 7771 09ed 0100     		.2byte	0x1
 7772 09ef 55       		.byte	0x55
 7773 09f0 4C040000 		.4byte	.LVL376
 7774 09f4 EA040000 		.4byte	.LVL400
 7775 09f8 0100     		.2byte	0x1
 7776 09fa 55       		.byte	0x55
 7777 09fb EC040000 		.4byte	.LVL401
 7778 09ff 0C050000 		.4byte	.LFE36
 7779 0a03 0100     		.2byte	0x1
 7780 0a05 55       		.byte	0x55
 7781 0a06 00000000 		.4byte	0
 7782 0a0a 00000000 		.4byte	0
 7783              	.LLST51:
 7784 0a0e 48020000 		.4byte	.LVL325
 7785 0a12 5C020000 		.4byte	.LVL326
 7786 0a16 0100     		.2byte	0x1
 7787 0a18 50       		.byte	0x50
 7788 0a19 88020000 		.4byte	.LVL331
 7789 0a1d 96020000 		.4byte	.LVL332
 7790 0a21 0600     		.2byte	0x6
 7791 0a23 70       		.byte	0x70
 7792 0a24 00       		.sleb128 0
 7793 0a25 08       		.byte	0x8
 7794 0a26 FF       		.byte	0xff
 7795 0a27 1A       		.byte	0x1a
 7796 0a28 9F       		.byte	0x9f
 7797 0a29 9E020000 		.4byte	.LVL334
 7798 0a2d A2020000 		.4byte	.LVL335
 7799 0a31 0600     		.2byte	0x6
 7800 0a33 70       		.byte	0x70
 7801 0a34 00       		.sleb128 0
 7802 0a35 08       		.byte	0x8
 7803 0a36 FF       		.byte	0xff
ARM GAS  C:\Users\Svilen\AppData\Local\Temp\ccuaxGpF.s 			page 155


 7804 0a37 1A       		.byte	0x1a
 7805 0a38 9F       		.byte	0x9f
 7806 0a39 00000000 		.4byte	0
 7807 0a3d 00000000 		.4byte	0
 7808              	.LLST52:
 7809 0a41 EA020000 		.4byte	.LVL343
 7810 0a45 ED020000 		.4byte	.LVL344-1
 7811 0a49 0100     		.2byte	0x1
 7812 0a4b 50       		.byte	0x50
 7813 0a4c 00000000 		.4byte	0
 7814 0a50 00000000 		.4byte	0
 7815              	.LLST53:
 7816 0a54 E4020000 		.4byte	.LVL342
 7817 0a58 E9020000 		.4byte	.LVL343-1
 7818 0a5c 0100     		.2byte	0x1
 7819 0a5e 51       		.byte	0x51
 7820 0a5f 00000000 		.4byte	0
 7821 0a63 00000000 		.4byte	0
 7822              	.LLST54:
 7823 0a67 FC020000 		.4byte	.LVL347
 7824 0a6b 56030000 		.4byte	.LVL359
 7825 0a6f 0100     		.2byte	0x1
 7826 0a71 54       		.byte	0x54
 7827 0a72 00000000 		.4byte	0
 7828 0a76 00000000 		.4byte	0
 7829              	.LLST55:
 7830 0a7a 16020000 		.4byte	.LVL316
 7831 0a7e 1B020000 		.4byte	.LVL317-1
 7832 0a82 0100     		.2byte	0x1
 7833 0a84 50       		.byte	0x50
 7834 0a85 1B020000 		.4byte	.LVL317-1
 7835 0a89 28020000 		.4byte	.LVL321
 7836 0a8d 0100     		.2byte	0x1
 7837 0a8f 54       		.byte	0x54
 7838 0a90 00000000 		.4byte	0
 7839 0a94 00000000 		.4byte	0
 7840              	.LLST56:
 7841 0a98 1E020000 		.4byte	.LVL318
 7842 0a9c 20020000 		.4byte	.LVL319
 7843 0aa0 0100     		.2byte	0x1
 7844 0aa2 50       		.byte	0x50
 7845 0aa3 20020000 		.4byte	.LVL319
 7846 0aa7 08030000 		.4byte	.LVL349
 7847 0aab 0100     		.2byte	0x1
 7848 0aad 55       		.byte	0x55
 7849 0aae 00000000 		.4byte	0
 7850 0ab2 00000000 		.4byte	0
 7851              		.section	.debug_aranges,"",%progbits
 7852 0000 84000000 		.4byte	0x84
 7853 0004 0200     		.2byte	0x2
 7854 0006 00000000 		.4byte	.Ldebug_info0
 7855 000a 04       		.byte	0x4
 7856 000b 00       		.byte	0
 7857 000c 0000     		.2byte	0
 7858 000e 0000     		.2byte	0
 7859 0010 00000000 		.4byte	.LFB35
 7860 0014 10000000 		.4byte	.LFE35-.LFB35
ARM GAS  C:\Users\Svilen\AppData\Local\Temp\ccuaxGpF.s 			page 156


 7861 0018 00000000 		.4byte	.LFB34
 7862 001c 14000000 		.4byte	.LFE34-.LFB34
 7863 0020 00000000 		.4byte	.LFB37
 7864 0024 04010000 		.4byte	.LFE37-.LFB37
 7865 0028 00000000 		.4byte	.LFB38
 7866 002c 2E000000 		.4byte	.LFE38-.LFB38
 7867 0030 00000000 		.4byte	.LFB39
 7868 0034 1A000000 		.4byte	.LFE39-.LFB39
 7869 0038 00000000 		.4byte	.LFB40
 7870 003c 1A000000 		.4byte	.LFE40-.LFB40
 7871 0040 00000000 		.4byte	.LFB41
 7872 0044 24000000 		.4byte	.LFE41-.LFB41
 7873 0048 00000000 		.4byte	.LFB42
 7874 004c 5C000000 		.4byte	.LFE42-.LFB42
 7875 0050 00000000 		.4byte	.LFB43
 7876 0054 34010000 		.4byte	.LFE43-.LFB43
 7877 0058 00000000 		.4byte	.LFB44
 7878 005c A0000000 		.4byte	.LFE44-.LFB44
 7879 0060 00000000 		.4byte	.LFB45
 7880 0064 24000000 		.4byte	.LFE45-.LFB45
 7881 0068 00000000 		.4byte	.LFB46
 7882 006c 38000000 		.4byte	.LFE46-.LFB46
 7883 0070 00000000 		.4byte	.LFB47
 7884 0074 E8010000 		.4byte	.LFE47-.LFB47
 7885 0078 00000000 		.4byte	.LFB36
 7886 007c 0C050000 		.4byte	.LFE36-.LFB36
 7887 0080 00000000 		.4byte	0
 7888 0084 00000000 		.4byte	0
 7889              		.section	.debug_ranges,"",%progbits
 7890              	.Ldebug_ranges0:
 7891 0000 00000000 		.4byte	.LFB35
 7892 0004 10000000 		.4byte	.LFE35
 7893 0008 00000000 		.4byte	.LFB34
 7894 000c 14000000 		.4byte	.LFE34
 7895 0010 00000000 		.4byte	.LFB37
 7896 0014 04010000 		.4byte	.LFE37
 7897 0018 00000000 		.4byte	.LFB38
 7898 001c 2E000000 		.4byte	.LFE38
 7899 0020 00000000 		.4byte	.LFB39
 7900 0024 1A000000 		.4byte	.LFE39
 7901 0028 00000000 		.4byte	.LFB40
 7902 002c 1A000000 		.4byte	.LFE40
 7903 0030 00000000 		.4byte	.LFB41
 7904 0034 24000000 		.4byte	.LFE41
 7905 0038 00000000 		.4byte	.LFB42
 7906 003c 5C000000 		.4byte	.LFE42
 7907 0040 00000000 		.4byte	.LFB43
 7908 0044 34010000 		.4byte	.LFE43
 7909 0048 00000000 		.4byte	.LFB44
 7910 004c A0000000 		.4byte	.LFE44
 7911 0050 00000000 		.4byte	.LFB45
 7912 0054 24000000 		.4byte	.LFE45
 7913 0058 00000000 		.4byte	.LFB46
 7914 005c 38000000 		.4byte	.LFE46
 7915 0060 00000000 		.4byte	.LFB47
 7916 0064 E8010000 		.4byte	.LFE47
 7917 0068 00000000 		.4byte	.LFB36
ARM GAS  C:\Users\Svilen\AppData\Local\Temp\ccuaxGpF.s 			page 157


 7918 006c 0C050000 		.4byte	.LFE36
 7919 0070 00000000 		.4byte	0
 7920 0074 00000000 		.4byte	0
 7921              		.section	.debug_line,"",%progbits
 7922              	.Ldebug_line0:
 7923 0000 06060000 		.section	.debug_str,"MS",%progbits,1
 7923      02008B02 
 7923      00000201 
 7923      FB0E0D00 
 7923      01010101 
 7924              	.LASF74:
 7925 0000 43794465 		.ascii	"CyDelay\000"
 7925      6C617900 
 7926              	.LASF45:
 7927 0008 73706565 		.ascii	"speed1\000"
 7927      643100
 7928              	.LASF46:
 7929 000f 73706565 		.ascii	"speed2\000"
 7929      643200
 7930              	.LASF100:
 7931 0016 4C45445F 		.ascii	"LED_G_Write\000"
 7931      475F5772 
 7931      69746500 
 7932              	.LASF115:
 7933 0022 7374726C 		.ascii	"strlen\000"
 7933      656E00
 7934              	.LASF22:
 7935 0029 54696D65 		.ascii	"TimeoutISR\000"
 7935      6F757449 
 7935      535200
 7936              	.LASF27:
 7937 0034 74656D70 		.ascii	"temperature\000"
 7937      65726174 
 7937      75726500 
 7938              	.LASF104:
 7939 0040 7374726E 		.ascii	"strncmp\000"
 7939      636D7000 
 7940              	.LASF67:
 7941 0048 414D3233 		.ascii	"AM2302_Humidity\000"
 7941      30325F48 
 7941      756D6964 
 7941      69747900 
 7942              	.LASF62:
 7943 0058 70726573 		.ascii	"pressure\000"
 7943      73757265 
 7943      00
 7944              	.LASF78:
 7945 0061 4932435F 		.ascii	"I2C_I2CMasterWriteByte\000"
 7945      4932434D 
 7945      61737465 
 7945      72577269 
 7945      74654279 
 7946              	.LASF8:
 7947 0078 756E7369 		.ascii	"unsigned int\000"
 7947      676E6564 
 7947      20696E74 
 7947      00
ARM GAS  C:\Users\Svilen\AppData\Local\Temp\ccuaxGpF.s 			page 158


 7948              	.LASF87:
 7949 0085 50696E57 		.ascii	"PinWindRX_Read\000"
 7949      696E6452 
 7949      585F5265 
 7949      616400
 7950              	.LASF13:
 7951 0094 696E7431 		.ascii	"int16\000"
 7951      3600
 7952              	.LASF42:
 7953 009a 7278636F 		.ascii	"rxcounter\000"
 7953      756E7465 
 7953      7200
 7954              	.LASF112:
 7955 00a4 424D5031 		.ascii	"BMP180_ReadCalibrationCoefs\000"
 7955      38305F52 
 7955      65616443 
 7955      616C6962 
 7955      72617469 
 7956              	.LASF99:
 7957 00c0 4C45445F 		.ascii	"LED_R_Write\000"
 7957      525F5772 
 7957      69746500 
 7958              	.LASF59:
 7959 00cc 6D566F6C 		.ascii	"mVolts\000"
 7959      747300
 7960              	.LASF109:
 7961 00d3 4144435F 		.ascii	"ADC_IsEndConversion\000"
 7961      4973456E 
 7961      64436F6E 
 7961      76657273 
 7961      696F6E00 
 7962              	.LASF93:
 7963 00e7 4932435F 		.ascii	"I2C_Start\000"
 7963      53746172 
 7963      7400
 7964              	.LASF82:
 7965 00f1 54696D65 		.ascii	"Timeout_WriteCompare\000"
 7965      6F75745F 
 7965      57726974 
 7965      65436F6D 
 7965      70617265 
 7966              	.LASF66:
 7967 0106 7261696E 		.ascii	"rainCounter\000"
 7967      436F756E 
 7967      74657200 
 7968              	.LASF89:
 7969 0112 436C6F63 		.ascii	"ClockTO_GetDividerRegister\000"
 7969      6B544F5F 
 7969      47657444 
 7969      69766964 
 7969      65725265 
 7970              	.LASF35:
 7971 012d 786C7362 		.ascii	"xlsb\000"
 7971      00
 7972              	.LASF79:
 7973 0132 4932435F 		.ascii	"I2C_I2CMasterSendRestart\000"
 7973      4932434D 
ARM GAS  C:\Users\Svilen\AppData\Local\Temp\ccuaxGpF.s 			page 159


 7973      61737465 
 7973      7253656E 
 7973      64526573 
 7974              	.LASF55:
 7975 014b 6D616369 		.ascii	"macid\000"
 7975      6400
 7976              	.LASF107:
 7977 0151 73747263 		.ascii	"strcat\000"
 7977      617400
 7978              	.LASF98:
 7979 0158 4C45445F 		.ascii	"LED_B_Write\000"
 7979      425F5772 
 7979      69746500 
 7980              	.LASF14:
 7981 0164 666C6F61 		.ascii	"float\000"
 7981      7400
 7982              	.LASF119:
 7983 016a 5261696E 		.ascii	"RainISR\000"
 7983      49535200 
 7984              	.LASF58:
 7985 0172 72657375 		.ascii	"result\000"
 7985      6C7400
 7986              	.LASF7:
 7987 0179 6C6F6E67 		.ascii	"long long unsigned int\000"
 7987      206C6F6E 
 7987      6720756E 
 7987      7369676E 
 7987      65642069 
 7988              	.LASF76:
 7989 0190 4932435F 		.ascii	"I2C_I2CMasterClearStatus\000"
 7989      4932434D 
 7989      61737465 
 7989      72436C65 
 7989      61725374 
 7990              	.LASF105:
 7991 01a9 7374726E 		.ascii	"strncpy\000"
 7991      63707900 
 7992              	.LASF84:
 7993 01b1 54696D65 		.ascii	"Timeout_Stop\000"
 7993      6F75745F 
 7993      53746F70 
 7993      00
 7994              	.LASF39:
 7995 01be 55617274 		.ascii	"UartReadLine\000"
 7995      52656164 
 7995      4C696E65 
 7995      00
 7996              	.LASF92:
 7997 01cb 4144435F 		.ascii	"ADC_IRQ_Disable\000"
 7997      4952515F 
 7997      44697361 
 7997      626C6500 
 7998              	.LASF91:
 7999 01db 4144435F 		.ascii	"ADC_Start\000"
 7999      53746172 
 7999      7400
 8000              	.LASF30:
ARM GAS  C:\Users\Svilen\AppData\Local\Temp\ccuaxGpF.s 			page 160


 8001 01e5 76616C75 		.ascii	"value\000"
 8001      6500
 8002              	.LASF111:
 8003 01eb 4144435F 		.ascii	"ADC_CountsTo_mVolts\000"
 8003      436F756E 
 8003      7473546F 
 8003      5F6D566F 
 8003      6C747300 
 8004              	.LASF97:
 8005 01ff 6973725F 		.ascii	"isr_Rain_StartEx\000"
 8005      5261696E 
 8005      5F537461 
 8005      72744578 
 8005      00
 8006              	.LASF19:
 8007 0210 73697A65 		.ascii	"size_t\000"
 8007      5F7400
 8008              	.LASF32:
 8009 0217 424D5031 		.ascii	"BMP180_WriteByte\000"
 8009      38305F57 
 8009      72697465 
 8009      42797465 
 8009      00
 8010              	.LASF17:
 8011 0228 63686172 		.ascii	"char\000"
 8011      00
 8012              	.LASF70:
 8013 022d 77696E64 		.ascii	"windDirection\000"
 8013      44697265 
 8013      6374696F 
 8013      6E00
 8014              	.LASF120:
 8015 023b 6672616D 		.ascii	"frameStart\000"
 8015      65537461 
 8015      727400
 8016              	.LASF75:
 8017 0246 48554D5F 		.ascii	"HUM_Read\000"
 8017      52656164 
 8017      00
 8018              	.LASF95:
 8019 024f 55415254 		.ascii	"UART_ClearRxBuffer\000"
 8019      5F436C65 
 8019      61725278 
 8019      42756666 
 8019      657200
 8020              	.LASF28:
 8021 0262 424D5031 		.ascii	"BMP180_ReadReg\000"
 8021      38305F52 
 8021      65616452 
 8021      656700
 8022              	.LASF48:
 8023 0271 64697231 		.ascii	"dir1\000"
 8023      00
 8024              	.LASF49:
 8025 0276 64697232 		.ascii	"dir2\000"
 8025      00
 8026              	.LASF10:
ARM GAS  C:\Users\Svilen\AppData\Local\Temp\ccuaxGpF.s 			page 161


 8027 027b 75696E74 		.ascii	"uint16\000"
 8027      313600
 8028              	.LASF12:
 8029 0282 696E7438 		.ascii	"int8\000"
 8029      00
 8030              	.LASF103:
 8031 0287 73747263 		.ascii	"strcmp\000"
 8031      6D7000
 8032              	.LASF102:
 8033 028e 55415254 		.ascii	"UART_PutString\000"
 8033      5F507574 
 8033      53747269 
 8033      6E6700
 8034              	.LASF16:
 8035 029d 63686172 		.ascii	"char8\000"
 8035      3800
 8036              	.LASF85:
 8037 02a3 54696D65 		.ascii	"Timeout_Start\000"
 8037      6F75745F 
 8037      53746172 
 8037      7400
 8038              	.LASF29:
 8039 02b1 424D5031 		.ascii	"BMP180_ReadInt\000"
 8039      38305F52 
 8039      65616449 
 8039      6E7400
 8040              	.LASF38:
 8041 02c0 6D696C69 		.ascii	"miliseconds\000"
 8041      7365636F 
 8041      6E647300 
 8042              	.LASF96:
 8043 02cc 6973725F 		.ascii	"isr_Timeout_StartEx\000"
 8043      54696D65 
 8043      6F75745F 
 8043      53746172 
 8043      74457800 
 8044              	.LASF63:
 8045 02e0 43686563 		.ascii	"CheckAT\000"
 8045      6B415400 
 8046              	.LASF6:
 8047 02e8 6C6F6E67 		.ascii	"long long int\000"
 8047      206C6F6E 
 8047      6720696E 
 8047      7400
 8048              	.LASF110:
 8049 02f6 4144435F 		.ascii	"ADC_GetResult16\000"
 8049      47657452 
 8049      6573756C 
 8049      74313600 
 8050              	.LASF68:
 8051 0306 414D3233 		.ascii	"AM2302_Temp\000"
 8051      30325F54 
 8051      656D7000 
 8052              	.LASF65:
 8053 0312 74696D65 		.ascii	"timeoutFlag\000"
 8053      6F757446 
 8053      6C616700 
ARM GAS  C:\Users\Svilen\AppData\Local\Temp\ccuaxGpF.s 			page 162


 8054              	.LASF101:
 8055 031e 6D656D73 		.ascii	"memset\000"
 8055      657400
 8056              	.LASF18:
 8057 0325 63796973 		.ascii	"cyisraddress\000"
 8057      72616464 
 8057      72657373 
 8057      00
 8058              	.LASF37:
 8059 0332 53657454 		.ascii	"SetTimeout\000"
 8059      696D656F 
 8059      757400
 8060              	.LASF11:
 8061 033d 75696E74 		.ascii	"uint32\000"
 8061      333200
 8062              	.LASF86:
 8063 0344 55415254 		.ascii	"UART_GetChar\000"
 8063      5F476574 
 8063      43686172 
 8063      00
 8064              	.LASF23:
 8065 0351 414D3233 		.ascii	"AM2302_Read\000"
 8065      30325F52 
 8065      65616400 
 8066              	.LASF25:
 8067 035d 6D61736B 		.ascii	"mask\000"
 8067      00
 8068              	.LASF52:
 8069 0362 6D61736B 		.ascii	"mask8\000"
 8069      3800
 8070              	.LASF60:
 8071 0368 75426174 		.ascii	"uBat\000"
 8071      00
 8072              	.LASF50:
 8073 036d 63686B53 		.ascii	"chkSum\000"
 8073      756D00
 8074              	.LASF106:
 8075 0374 73707269 		.ascii	"sprintf\000"
 8075      6E746600 
 8076              	.LASF2:
 8077 037c 73686F72 		.ascii	"short int\000"
 8077      7420696E 
 8077      7400
 8078              	.LASF4:
 8079 0386 6C6F6E67 		.ascii	"long int\000"
 8079      20696E74 
 8079      00
 8080              	.LASF71:
 8081 038f 77696E64 		.ascii	"windSpeed\000"
 8081      53706565 
 8081      6400
 8082              	.LASF31:
 8083 0399 424D5031 		.ascii	"BMP180_ReadUInt\000"
 8083      38305F52 
 8083      65616455 
 8083      496E7400 
 8084              	.LASF36:
ARM GAS  C:\Users\Svilen\AppData\Local\Temp\ccuaxGpF.s 			page 163


 8085 03a9 64656C61 		.ascii	"delay\000"
 8085      7900
 8086              	.LASF61:
 8087 03af 74656D70 		.ascii	"temp\000"
 8087      00
 8088              	.LASF57:
 8089 03b4 74786275 		.ascii	"txbuf\000"
 8089      6600
 8090              	.LASF33:
 8091 03ba 424D5031 		.ascii	"BMP180_ReadTemperature\000"
 8091      38305F52 
 8091      65616454 
 8091      656D7065 
 8091      72617475 
 8092              	.LASF116:
 8093 03d1 474E5520 		.ascii	"GNU C 4.9.3 20150303 (release) [ARM/embedded-4_9-br"
 8093      4320342E 
 8093      392E3320 
 8093      32303135 
 8093      30333033 
 8094 0404 616E6368 		.ascii	"anch revision 221220] -mcpu=cortex-m0 -mthumb -g -O"
 8094      20726576 
 8094      6973696F 
 8094      6E203232 
 8094      31323230 
 8095 0437 67202D66 		.ascii	"g -ffunction-sections -ffat-lto-objects\000"
 8095      66756E63 
 8095      74696F6E 
 8095      2D736563 
 8095      74696F6E 
 8096              	.LASF72:
 8097 045f 54696D65 		.ascii	"Timeout_ClearInterrupt\000"
 8097      6F75745F 
 8097      436C6561 
 8097      72496E74 
 8097      65727275 
 8098              	.LASF47:
 8099 0476 6D61736B 		.ascii	"mask16\000"
 8099      313600
 8100              	.LASF94:
 8101 047d 55415254 		.ascii	"UART_Start\000"
 8101      5F537461 
 8101      727400
 8102              	.LASF108:
 8103 0488 4144435F 		.ascii	"ADC_StartConvert\000"
 8103      53746172 
 8103      74436F6E 
 8103      76657274 
 8103      00
 8104              	.LASF77:
 8105 0499 4932435F 		.ascii	"I2C_I2CMasterSendStart\000"
 8105      4932434D 
 8105      61737465 
 8105      7253656E 
 8105      64537461 
 8106              	.LASF43:
 8107 04b0 54583230 		.ascii	"TX20_Read\000"
ARM GAS  C:\Users\Svilen\AppData\Local\Temp\ccuaxGpF.s 			page 164


 8107      5F526561 
 8107      6400
 8108              	.LASF20:
 8109 04ba 73697A65 		.ascii	"sizetype\000"
 8109      74797065 
 8109      00
 8110              	.LASF5:
 8111 04c3 6C6F6E67 		.ascii	"long unsigned int\000"
 8111      20756E73 
 8111      69676E65 
 8111      6420696E 
 8111      7400
 8112              	.LASF113:
 8113 04d5 5F5F6275 		.ascii	"__builtin_strlen\000"
 8113      696C7469 
 8113      6E5F7374 
 8113      726C656E 
 8113      00
 8114              	.LASF56:
 8115 04e6 72657472 		.ascii	"retry\000"
 8115      7900
 8116              	.LASF34:
 8117 04ec 424D5031 		.ascii	"BMP180_ReadPresure\000"
 8117      38305F52 
 8117      65616450 
 8117      72657375 
 8117      726500
 8118              	.LASF80:
 8119 04ff 4932435F 		.ascii	"I2C_I2CMasterReadByte\000"
 8119      4932434D 
 8119      61737465 
 8119      72526561 
 8119      64427974 
 8120              	.LASF1:
 8121 0515 756E7369 		.ascii	"unsigned char\000"
 8121      676E6564 
 8121      20636861 
 8121      7200
 8122              	.LASF90:
 8123 0523 436C6F63 		.ascii	"ClockTO_SetFractionalDividerRegister\000"
 8123      6B544F5F 
 8123      53657446 
 8123      72616374 
 8123      696F6E61 
 8124              	.LASF40:
 8125 0548 6C696E65 		.ascii	"line\000"
 8125      00
 8126              	.LASF41:
 8127 054d 74696D65 		.ascii	"timeout\000"
 8127      6F757400 
 8128              	.LASF73:
 8129 0555 48554D5F 		.ascii	"HUM_Write\000"
 8129      57726974 
 8129      6500
 8130              	.LASF69:
 8131 055f 414D3233 		.ascii	"AM2302_CRC\000"
 8131      30325F43 
ARM GAS  C:\Users\Svilen\AppData\Local\Temp\ccuaxGpF.s 			page 165


 8131      524300
 8132              	.LASF81:
 8133 056a 4932435F 		.ascii	"I2C_I2CMasterSendStop\000"
 8133      4932434D 
 8133      61737465 
 8133      7253656E 
 8133      6453746F 
 8134              	.LASF51:
 8135 0580 63686B53 		.ascii	"chkSumCalc\000"
 8135      756D4361 
 8135      6C6300
 8136              	.LASF88:
 8137 058b 50696E57 		.ascii	"PinWindCE_Write\000"
 8137      696E6443 
 8137      455F5772 
 8137      69746500 
 8138              	.LASF0:
 8139 059b 7369676E 		.ascii	"signed char\000"
 8139      65642063 
 8139      68617200 
 8140              	.LASF3:
 8141 05a7 73686F72 		.ascii	"short unsigned int\000"
 8141      7420756E 
 8141      7369676E 
 8141      65642069 
 8141      6E7400
 8142              	.LASF83:
 8143 05ba 54696D65 		.ascii	"Timeout_WriteCounter\000"
 8143      6F75745F 
 8143      57726974 
 8143      65436F75 
 8143      6E746572 
 8144              	.LASF114:
 8145 05cf 6D656D63 		.ascii	"memcpy\000"
 8145      707900
 8146              	.LASF53:
 8147 05d6 6D61696E 		.ascii	"main\000"
 8147      00
 8148              	.LASF64:
 8149 05db 45737461 		.ascii	"EstablishConnection\000"
 8149      626C6973 
 8149      68436F6E 
 8149      6E656374 
 8149      696F6E00 
 8150              	.LASF21:
 8151 05ef 75696E74 		.ascii	"uint\000"
 8151      00
 8152              	.LASF9:
 8153 05f4 75696E74 		.ascii	"uint8\000"
 8153      3800
 8154              	.LASF15:
 8155 05fa 646F7562 		.ascii	"double\000"
 8155      6C6500
 8156              	.LASF118:
 8157 0601 433A5C77 		.ascii	"C:\\work\\PSoC4\\WeatherStation\\WeatherStation\\We"
 8157      6F726B5C 
 8157      50536F43 
ARM GAS  C:\Users\Svilen\AppData\Local\Temp\ccuaxGpF.s 			page 166


 8157      345C5765 
 8157      61746865 
 8158 062f 61746865 		.ascii	"atherStation.cydsn\000"
 8158      72537461 
 8158      74696F6E 
 8158      2E637964 
 8158      736E00
 8159              	.LASF26:
 8160 0642 68756D69 		.ascii	"humidity\000"
 8160      64697479 
 8160      00
 8161              	.LASF24:
 8162 064b 74696D65 		.ascii	"timer\000"
 8162      7200
 8163              	.LASF44:
 8164 0651 64697646 		.ascii	"divFor1kHz\000"
 8164      6F72316B 
 8164      487A00
 8165              	.LASF54:
 8166 065c 72786275 		.ascii	"rxbuf\000"
 8166      6600
 8167              	.LASF117:
 8168 0662 2E5C6D61 		.ascii	".\\main.c\000"
 8168      696E2E63 
 8168      00
 8169              		.ident	"GCC: (GNU Tools for ARM Embedded Processors) 4.9.3 20150303 (release) [ARM/embedded-4_9-br
