ARM GAS  C:\Users\Svilen\AppData\Local\Temp\ccuaxGpF.s 			page 1


   1              		.cpu cortex-m0
   2              		.fpu softvfp
   3              		.eabi_attribute 20, 1
   4              		.eabi_attribute 21, 1
   5              		.eabi_attribute 23, 3
   6              		.eabi_attribute 24, 1
   7              		.eabi_attribute 25, 1
   8              		.eabi_attribute 26, 1
   9              		.eabi_attribute 30, 1
  10              		.eabi_attribute 34, 0
  11              		.eabi_attribute 18, 4
  12              		.code	16
  13              		.file	"main.c"
  14              		.text
  15              	.Ltext0:
  16              		.cfi_sections	.debug_frame
  17              		.section	.text.RainISR,"ax",%progbits
  18              		.align	2
  19              		.global	RainISR
  20              		.code	16
  21              		.thumb_func
  22              		.type	RainISR, %function
  23              	RainISR:
  24              	.LFB35:
  25              		.file 1 ".\\main.c"
   1:.\main.c      **** /* ========================================
   2:.\main.c      ****  *
   3:.\main.c      ****  * This program is 
   4:.\main.c      ****  *
   5:.\main.c      ****  * ========================================
   6:.\main.c      **** */
   7:.\main.c      **** #include <project.h>
   8:.\main.c      **** #include <stdio.h>
   9:.\main.c      **** #include <string.h>
  10:.\main.c      **** 
  11:.\main.c      **** #define READ_LINE_TIMEOUT 1000
  12:.\main.c      **** #define ESTABLISH_CONN_TIMEOUT 3000 //15000    - –∑–∞ –¢–°–†
  13:.\main.c      **** 
  14:.\main.c      **** #define SLEEP_TIME 20000    // WiFI –º–æ–¥—É–ª–∞ —Å–µ –ø—Ä–∏—Å–ø–∏–≤–∞ —Å–ª–µ–¥ –∫–∞—Ç–æ 
  15:.\main.c      ****                             // –∏–∑–ø—Ä–∞—Ç–∏ –¥–∞–Ω–Ω–∏—Ç–µ –∏ —Å–µ —Å—ä–±—É–∂–¥–∞ —Å–ª–µ–¥ —Ç–æ–≤
  16:.\main.c      **** #define WAKEUP_ADVANCE 5000 // —Å—ä–±—É–∂–¥–∞–Ω–µ—Ç–æ —Å—Ç–∞–≤–∞ –ø—Ä–µ–¥–≤–∞—Ä–∏—Ç–µ–ª–Ω–æ —Å —Ç–æ
  17:.\main.c      **** 
  18:.\main.c      **** #define BMP180_IS_PRESENT
  19:.\main.c      **** #define RAIN_ENABLED
  20:.\main.c      **** #define UBAT_ENABLED
  21:.\main.c      **** #define TX20_ENABLED
  22:.\main.c      **** 
  23:.\main.c      **** #define CHN_ADC_UBAT    0
  24:.\main.c      **** 
  25:.\main.c      **** //–†–∞–±–æ—Ç–∞ —Å WiFi –º–æ–¥—É–ª–∞
  26:.\main.c      **** //–í–∏–∂ –∫–æ–º–µ–Ω—Ç–∞—Ä–∞ –≤ SetTimeout()
  27:.\main.c      **** CY_ISR_PROTO(TimeoutISR);
  28:.\main.c      **** uint8 timeoutFlag;
  29:.\main.c      **** CY_ISR(TimeoutISR)
  30:.\main.c      **** {
  31:.\main.c      **** /* ISR Code here */
  32:.\main.c      ****     timeoutFlag=1;
ARM GAS  C:\Users\Svilen\AppData\Local\Temp\ccuaxGpF.s 			page 2


  33:.\main.c      ****     Timeout_ClearInterrupt(Timeout_INTR_MASK_CC_MATCH);
  34:.\main.c      **** }
  35:.\main.c      **** void SetTimeout(uint16 miliseconds);
  36:.\main.c      **** uint32 UartReadLine(char *line, uint16 timeout);
  37:.\main.c      **** 
  38:.\main.c      **** //–°–µ–Ω–∑–æ—Ä –∑–∞ –¥—ä–∂–¥
  39:.\main.c      **** CY_ISR_PROTO(RainISR);
  40:.\main.c      **** uint rainCounter;
  41:.\main.c      **** CY_ISR(RainISR)
  42:.\main.c      **** {
  26              		.loc 1 42 0
  27              		.cfi_startproc
  43:.\main.c      ****     rainCounter++;    
  28              		.loc 1 43 0
  29 0000 024A     		ldr	r2, .L2
  30 0002 1368     		ldr	r3, [r2]
  31 0004 0133     		add	r3, r3, #1
  32 0006 1360     		str	r3, [r2]
  44:.\main.c      **** }
  33              		.loc 1 44 0
  34              		@ sp needed
  35 0008 7047     		bx	lr
  36              	.L3:
  37 000a C046     		.align	2
  38              	.L2:
  39 000c 00000000 		.word	rainCounter
  40              		.cfi_endproc
  41              	.LFE35:
  42              		.size	RainISR, .-RainISR
  43              		.section	.text.TimeoutISR,"ax",%progbits
  44              		.align	2
  45              		.global	TimeoutISR
  46              		.code	16
  47              		.thumb_func
  48              		.type	TimeoutISR, %function
  49              	TimeoutISR:
  50              	.LFB34:
  30:.\main.c      **** /* ISR Code here */
  51              		.loc 1 30 0
  52              		.cfi_startproc
  53 0000 08B5     		push	{r3, lr}
  54              		.cfi_def_cfa_offset 8
  55              		.cfi_offset 3, -8
  56              		.cfi_offset 14, -4
  32:.\main.c      ****     Timeout_ClearInterrupt(Timeout_INTR_MASK_CC_MATCH);
  57              		.loc 1 32 0
  58 0002 0122     		mov	r2, #1
  59 0004 024B     		ldr	r3, .L5
  60 0006 1A70     		strb	r2, [r3]
  33:.\main.c      **** }
  61              		.loc 1 33 0
  62 0008 0220     		mov	r0, #2
  63 000a FFF7FEFF 		bl	Timeout_ClearInterrupt
  64              	.LVL0:
  34:.\main.c      **** void SetTimeout(uint16 miliseconds);
  65              		.loc 1 34 0
  66              		@ sp needed
ARM GAS  C:\Users\Svilen\AppData\Local\Temp\ccuaxGpF.s 			page 3


  67 000e 08BD     		pop	{r3, pc}
  68              	.L6:
  69              		.align	2
  70              	.L5:
  71 0010 00000000 		.word	timeoutFlag
  72              		.cfi_endproc
  73              	.LFE34:
  74              		.size	TimeoutISR, .-TimeoutISR
  75              		.section	.text.AM2302_Read,"ax",%progbits
  76              		.align	2
  77              		.global	AM2302_Read
  78              		.code	16
  79              		.thumb_func
  80              		.type	AM2302_Read, %function
  81              	AM2302_Read:
  82              	.LFB37:
  45:.\main.c      **** 
  46:.\main.c      **** //–§—É–Ω–∫—Ü–∏–∏ –∑–∞ –¥–æ—Å—Ç—ä–ø –¥–æ —Å–µ–Ω–∑–æ—Ä –∑–∞ –∞—Ç–º. –Ω–∞–ª—è–≥–∞–Ω–µ –∏ —Ç–µ–º–ø–µ—Ä–
  47:.\main.c      **** // Bosch BMP180. –ò–Ω—Ç–µ—Ä—Ñ–µ–π—Å–∞ –Ω–∞ —Å–µ–Ω–∑–æ—Ä–∞ –µ I2C
  48:.\main.c      **** void BMP180_ReadCalibrationCoefs();
  49:.\main.c      **** long BMP180_ReadTemperature();
  50:.\main.c      **** long BMP180_ReadPresure(long temperature, int oss);
  51:.\main.c      **** uint32 BMP180_ReadReg(uint32 reg);
  52:.\main.c      **** uint16 BMP180_ReadUInt(uint32 reg);
  53:.\main.c      **** int16 BMP180_ReadInt(uint32 reg);
  54:.\main.c      **** void BMP180_WriteByte(uint32 reg, uint32 b);
  55:.\main.c      **** //–ö–æ–µ—Ñ–∏—Ü–∏–µ–Ω—Ç–∏ –∑–∞ –∫–∞–ª–∏–±—Ä–∏—Ä–∞–Ω–µ –Ω–∞ BMP180. –°—Ç–æ–π–Ω–æ—Å—Ç–∏—Ç–µ –∏–º —Å–∞ 
  56:.\main.c      **** int16 AC1, AC2, AC3, B1, B2, MB, MC, MD;
  57:.\main.c      **** uint16 AC4, AC5, AC6;
  58:.\main.c      **** 
  59:.\main.c      **** //AM2302
  60:.\main.c      **** int AM2302_Read();
  61:.\main.c      **** int16 AM2302_Humidity;
  62:.\main.c      **** int16 AM2302_Temp;
  63:.\main.c      **** int8  AM2302_CRC;
  64:.\main.c      **** 
  65:.\main.c      **** //TX20
  66:.\main.c      **** uint16 windDirection; //0-15
  67:.\main.c      **** uint16 windSpeed; //0-511
  68:.\main.c      **** 
  69:.\main.c      **** uint8 TX20_Read();
  70:.\main.c      **** 
  71:.\main.c      **** int main()
  72:.\main.c      **** {
  73:.\main.c      ****     char rxbuf[64];
  74:.\main.c      ****     char line[64];
  75:.\main.c      ****     char macid[9];
  76:.\main.c      ****     uint32 n;
  77:.\main.c      ****     uint8 retry;
  78:.\main.c      ****     char txbuf[240];    
  79:.\main.c      ****     char str[32];
  80:.\main.c      ****     int result;
  81:.\main.c      ****     int16 mVolts;
  82:.\main.c      ****     uint16 adc;
  83:.\main.c      ****     uint16 uBat;
  84:.\main.c      **** 
  85:.\main.c      ****     CyGlobalIntEnable; /* Enable global interrupts. */
ARM GAS  C:\Users\Svilen\AppData\Local\Temp\ccuaxGpF.s 			page 4


  86:.\main.c      ****     ADC_Start();
  87:.\main.c      ****     ADC_IRQ_Disable();
  88:.\main.c      ****     I2C_Start();
  89:.\main.c      ****     UART_Start();
  90:.\main.c      ****     UART_ClearRxBuffer();
  91:.\main.c      ****     Timeout_Start();
  92:.\main.c      ****     isr_Timeout_StartEx(TimeoutISR);
  93:.\main.c      ****     isr_Rain_StartEx(RainISR);
  94:.\main.c      ****     PinWindCE_Write(1);
  95:.\main.c      ****     timeoutFlag=0;
  96:.\main.c      ****     LED_B_Write(1);
  97:.\main.c      ****     LED_R_Write(0);
  98:.\main.c      ****     LED_G_Write(1);
  99:.\main.c      ****     CyDelay(3000);
 100:.\main.c      ****     
 101:.\main.c      ****     memset(txbuf, 0x00, sizeof(txbuf));
 102:.\main.c      ****     rainCounter=0;
 103:.\main.c      ****        
 104:.\main.c      ****     
 105:.\main.c      ****     /* Place your initialization/startup code here (e.g. MyInst_Start()) */
 106:.\main.c      ****     //–í–ê–ñ–ù–û!!! –ê–∫–æ —Å–µ–Ω–∑–æ—Ä–∞ –Ω–µ —Ä–∞–±–æ—Ç–∏ –∏–ª–∏ –µ —Ä–∞–∑–∫–∞—á–µ–Ω –ø—Ä–æ–≥—Ä–∞
 107:.\main.c      **** #ifdef BMP180_IS_PRESENT    
 108:.\main.c      ****     BMP180_ReadCalibrationCoefs();    
 109:.\main.c      ****     long temp, pressure;
 110:.\main.c      **** #endif
 111:.\main.c      **** 
 112:.\main.c      ****     /*
 113:.\main.c      ****     char buf[32];    
 114:.\main.c      **** 
 115:.\main.c      ****     for(;;)
 116:.\main.c      ****     {        
 117:.\main.c      ****         temp =  BMP180_ReadTemperature();
 118:.\main.c      ****         pressure = BMP180_ReadPresure(temp,3);
 119:.\main.c      ****         sprintf(buf,"BMP180: T=%2.0ldC P=%4.0ldhPa\r\n", temp/10, pressure/100);
 120:.\main.c      ****         UART_UartPutString(buf);
 121:.\main.c      ****         
 122:.\main.c      ****         AM2302_Read();
 123:.\main.c      ****         sprintf(buf,"AM2302: T=%d Rh=%d\r\n", AM2302_Temp/10, AM2302_Humidity/10);
 124:.\main.c      ****         UART_UartPutString(buf);
 125:.\main.c      ****     }
 126:.\main.c      ****     */
 127:.\main.c      ****     
 128:.\main.c      **** 
 129:.\main.c      ****     for(;;)
 130:.\main.c      ****     {
 131:.\main.c      **** CheckAT:        
 132:.\main.c      ****         /* –ü—Ä–æ–≤–µ—Ä–∫–∞ –¥–∞–ª–∏ –º–æ–¥—É–ª–∞ –µ –¥–æ—Å—Ç—ä–ø–µ–Ω
 133:.\main.c      ****          * –ò–∑–ø—Ä–∞—â–∞ —Å–µ –ê–¢ –∫–æ–º–∞–Ω–¥–∞ –∏ —Å–µ –æ—á–∞–∫–≤–∞ –æ—Ç–≥–æ–≤–æ—Ä –û–ö.
 134:.\main.c      ****          * –ê–∫–æ –Ω—è–º–∞ —Ç–∞–∫—ä–≤ —Å–≤–µ—Ç–∏ —á–µ—Ä–≤–µ–Ω LED –º–∏–≥–∞ –¥–≤–∞ –ø—ä—Ç–∏ –∫—Ä–∞—Ç
 135:.\main.c      ****          * –ü–µ—Ä–∏–æ–¥–∏—á–Ω–æ –ø—Ä–µ–∑ –µ–¥–Ω–∞ —Å–µ–∫—É–Ω–¥–∞ —Ç–æ–∑–∏ –æ–ø–∏—Ç —Å–µ –ø–æ–≤—Ç–∞—
 136:.\main.c      ****          */ 
 137:.\main.c      ****         while(1)
 138:.\main.c      ****         {
 139:.\main.c      ****             UART_ClearRxBuffer();
 140:.\main.c      ****             UART_PutString("ATE0\r\n"); //–≤–º–µ—Å—Ç–æ –ê–¢ –∫–æ–º–∞–Ω–¥–∞ —Å–ø–∏—Ä–∞–º –µ—Ö–æ—Ç–æ
 141:.\main.c      ****             UartReadLine(rxbuf,READ_LINE_TIMEOUT);            
 142:.\main.c      ****             UartReadLine(rxbuf,READ_LINE_TIMEOUT);//OK,2
ARM GAS  C:\Users\Svilen\AppData\Local\Temp\ccuaxGpF.s 			page 5


 143:.\main.c      ****             if(strcmp(rxbuf, "OK")==0)
 144:.\main.c      ****             {
 145:.\main.c      ****                 LED_R_Write(1);
 146:.\main.c      ****                 break;
 147:.\main.c      ****             }
 148:.\main.c      ****             LED_R_Write(0);
 149:.\main.c      ****             CyDelay(250);
 150:.\main.c      ****             LED_R_Write(1);
 151:.\main.c      ****             CyDelay(250);
 152:.\main.c      ****             LED_R_Write(0);
 153:.\main.c      ****             CyDelay(250);
 154:.\main.c      ****             LED_R_Write(1);
 155:.\main.c      ****         }
 156:.\main.c      ****         
 157:.\main.c      ****         /* –ü—Ä–æ–≤–µ—Ä–∫–∞ –∑–∞ –≤—Ä—ä–∑–∫–∞ –∫—ä–º AccessPoint
 158:.\main.c      ****          * ESP8266 –µ –ø—Ä–µ–¥–≤–∞—Ä–∏—Ç–µ–ª–Ω–æ –∫–æ–Ω—Ñ–∏–≥—É—Ä–∏—Ä–∞–Ω –∏ —Å–µ —Å–≤—ä—Ä–∑–≤–∞ –∞
 159:.\main.c      ****          * –ê–∫–æ –º–æ–¥—É–ª–∞ –Ω–µ —É—Å–ø—è–≤–∞ –¥–∞ —Å–µ —Å–≤—ä—Ä–∂–µ —Å –ê–† —á–µ—Ä–≤–µ–Ω–∏—è —Å
 160:.\main.c      ****          */
 161:.\main.c      ****         retry=5;
 162:.\main.c      ****         while(1)
 163:.\main.c      ****         {
 164:.\main.c      ****             UART_ClearRxBuffer();
 165:.\main.c      ****             UART_PutString("AT+CWJAP?\r\n");
 166:.\main.c      ****             UartReadLine(rxbuf,READ_LINE_TIMEOUT);//+CWJAP:"Etherino","20:55:.........",11,-29     
 167:.\main.c      ****             if(strncmp(rxbuf, "+CWJAP:\"Etherino\"",17)==0)
 168:.\main.c      ****             {
 169:.\main.c      ****                 LED_R_Write(1);
 170:.\main.c      ****                 CyDelay(500);
 171:.\main.c      ****                 break;
 172:.\main.c      ****             }
 173:.\main.c      ****             LED_R_Write(0);
 174:.\main.c      ****             CyDelay(500);
 175:.\main.c      ****             LED_R_Write(1);
 176:.\main.c      ****             CyDelay(500);
 177:.\main.c      ****             retry--;
 178:.\main.c      ****             if(retry==0) goto CheckAT;
 179:.\main.c      ****         }
 180:.\main.c      ****         
 181:.\main.c      ****         //–î–æ —Ç—É–∫ –º–æ–¥—É–ª–∞ –≤–µ—á–µ —Å–µ –µ —Å–≤—ä—Ä–∑–∞–ª —Å –ê–†. –°–≤–µ—Ç–≤–∞ –∑–µ–ª–µ–Ω
 182:.\main.c      ****         //–ü—Ä–æ—á–∏—Ç–∞–º–µ IP –∏ MAC
 183:.\main.c      ****         LED_G_Write(0);
 184:.\main.c      ****         UART_ClearRxBuffer();
 185:.\main.c      ****         UART_PutString("AT+CIFSR\r\n");
 186:.\main.c      ****         UartReadLine(rxbuf,READ_LINE_TIMEOUT);
 187:.\main.c      ****         UartReadLine(rxbuf,READ_LINE_TIMEOUT);
 188:.\main.c      ****         if(strncmp(rxbuf,"+CIFSR:STAMAC",13)==0)
 189:.\main.c      ****         {
 190:.\main.c      ****             strncpy(macid,&rxbuf[24],8);
 191:.\main.c      ****             macid[8]=0;
 192:.\main.c      ****         }
 193:.\main.c      ****         else strcpy(macid,"00:00:00");
 194:.\main.c      ****         
 195:.\main.c      ****         while(1)
 196:.\main.c      ****         {
 197:.\main.c      ****             CyDelay(SLEEP_TIME + WAKEUP_ADVANCE);    
 198:.\main.c      ****             //–¢—É–∫ –æ—Ç–Ω–æ–≤–æ —Å–ø–∏—Ä–∞–º –µ—Ö–æ—Ç–æ —Ç.–∫. —Å–ª–µ–¥ DEEP SLEEP —Å–µ –∞–∫—Ç–∏–
 199:.\main.c      ****             UART_ClearRxBuffer();
ARM GAS  C:\Users\Svilen\AppData\Local\Temp\ccuaxGpF.s 			page 6


 200:.\main.c      ****             UART_PutString("ATE0\r\n"); //–≤–º–µ—Å—Ç–æ –ê–¢ –∫–æ–º–∞–Ω–¥–∞ —Å–ø–∏—Ä–∞–º –µ—Ö–æ—Ç–æ
 201:.\main.c      ****             UartReadLine(rxbuf,READ_LINE_TIMEOUT);            
 202:.\main.c      ****             UartReadLine(rxbuf,READ_LINE_TIMEOUT);//OK,2
 203:.\main.c      ****             CyDelay(200);
 204:.\main.c      ****             //–û—Ç–≤–∞—Ä—è–Ω–µ –Ω–∞ TCP/UDP –∫–æ–Ω–µ–∫—Ü–∏—è
 205:.\main.c      ****             retry=3;
 206:.\main.c      **** EstablishConnection:            
 207:.\main.c      ****             UART_ClearRxBuffer();
 208:.\main.c      ****             /* 
 209:.\main.c      ****                 192.168.1.1 - —Ä—É—Ç–µ—Ä
 210:.\main.c      ****                 192.168.1.10 - –∫–æ–Ω—Ü–µ–Ω—Ç—Ä–∞—Ç–æ—Ä, —Å—Ç–∞—Ç–∏—á–µ–Ω IP
 211:.\main.c      ****                 192.168.1.100 - .254 - —É—Å—Ç—Ä–æ–π—Å—Ç–≤–∞, DHCP
 212:.\main.c      ****             */
 213:.\main.c      ****             //UART_PutString("AT+CIPSTART=\"TCP\",\"192.168.1.10\",8888\r\n"); //TCP
 214:.\main.c      ****             UART_PutString("AT+CIPSTART=\"UDP\",\"224.0.0.120\",8888\r\n");
 215:.\main.c      ****             n=3;
 216:.\main.c      ****             LED_G_Write(1);
 217:.\main.c      ****             while(UartReadLine(rxbuf,ESTABLISH_CONN_TIMEOUT)==0)
 218:.\main.c      ****             {
 219:.\main.c      ****                 n--;
 220:.\main.c      ****                 if(n==0)
 221:.\main.c      ****                 {
 222:.\main.c      ****                     LED_G_Write(1);
 223:.\main.c      ****                     LED_B_Write(1);
 224:.\main.c      ****                     LED_R_Write(0);
 225:.\main.c      ****                     goto CheckAT;
 226:.\main.c      ****                 }
 227:.\main.c      ****             }
 228:.\main.c      ****             //CONNECT,7  –∏–ª–∏ ALREADY CONNECTED,17 –∏–ª–∏ no ip,5 –∏–ª–∏ 0 –∞–∫–æ –Ω–µ –º–æ–∂–µ –
 229:.\main.c      ****             
 230:.\main.c      ****             //CONNECT,7 - –≤—Ä—ä–∑–∫–∞—Ç–∞ –µ –∏–∑–≥—Ä–∞–¥–µ–Ω–∞. –û–±–º–µ–Ω—è—Ç —Å–µ –¥–∞–Ω–Ω–∏—Ç–
 231:.\main.c      ****             if(strncmp(rxbuf,"CONNECT",7)==0)
 232:.\main.c      ****             {
 233:.\main.c      ****                 UartReadLine(rxbuf,READ_LINE_TIMEOUT); //–ø—Ä–∞–∑–µ–Ω —Ä–µ–¥
 234:.\main.c      ****                 UartReadLine(rxbuf,READ_LINE_TIMEOUT); //–û–ö
 235:.\main.c      ****                 LED_G_Write(1); //–ü–æ –≤—Ä–µ–º–µ –Ω–∞ –æ–±–º–µ–Ω —Å–≤–µ—Ç–∏ —Å–∏–Ω LED
 236:.\main.c      ****                 LED_R_Write(1);
 237:.\main.c      ****                 LED_B_Write(0);
 238:.\main.c      ****                 //–ò–ó–ü–†–ê–©–ê–ù–ï –ù–ê –î–ê–ù–ù–ò –ö–™–ú –ö–û–ù–¶–ï–ù–¢–†–ê–¢–û–†–ê
 239:.\main.c      ****                 sprintf(txbuf,"MAC=%s\r\n",macid);
 240:.\main.c      ****                 //BMP180
 241:.\main.c      **** #ifdef BMP180_IS_PRESENT                
 242:.\main.c      ****                 temp =  BMP180_ReadTemperature();
 243:.\main.c      ****                 pressure = BMP180_ReadPresure(temp,3);
 244:.\main.c      ****                 sprintf(str,"BMP180: T=%2.0ld P=%4.0ldhPa\r\n", temp/10, pressure/100);            
 245:.\main.c      ****                 strcat(txbuf,str);                
 246:.\main.c      **** #endif                
 247:.\main.c      ****                 //AM2302
 248:.\main.c      ****                 result = AM2302_Read();
 249:.\main.c      ****                 if(result!=0)
 250:.\main.c      ****                 {
 251:.\main.c      ****                     AM2302_Temp  = -1000;
 252:.\main.c      ****                     AM2302_Humidity = -1000;
 253:.\main.c      ****                 }
 254:.\main.c      ****                 sprintf(str,"AM2302: T=%d Rh=%d\r\n", AM2302_Temp/10, AM2302_Humidity/10);
 255:.\main.c      ****                 strcat(txbuf, str);                
 256:.\main.c      ****                 //TX20 - –≤—è—Ç—ä—Ä
ARM GAS  C:\Users\Svilen\AppData\Local\Temp\ccuaxGpF.s 			page 7


 257:.\main.c      **** #ifdef TX20_ENABLED                
 258:.\main.c      ****                 result = TX20_Read();
 259:.\main.c      ****                 if(result==0)  sprintf(str,"TX20: Dir=%d Speed=%d\r\n", windDirection, windSpeed);
 260:.\main.c      ****                 else strcpy(str,"TX20: Dir=ERR Speed=ERR\r\n");
 261:.\main.c      ****                 strcat(txbuf, str);                
 262:.\main.c      **** #endif                
 263:.\main.c      ****                 //–°—Ç–æ–π–Ω–æ—Å—Ç–∞ –Ω–∞ –±—Ä–æ—è—á–∞ –∑–∞ –¥—ä—â–¥ —Å–µ –ø—Ä–∞—â–∞ –∏ —Å–µ –Ω—É–ª
 264:.\main.c      **** #ifdef RAIN_ENABLED                
 265:.\main.c      ****                 sprintf(str,"RAIN: %d\r\n",rainCounter);
 266:.\main.c      ****                 strcat(txbuf, str);
 267:.\main.c      ****                 rainCounter=0;
 268:.\main.c      **** #endif                
 269:.\main.c      ****                 //–ù–∞–ø—Ä–µ–∂–µ–Ω–∏–µ –Ω–∞ –±–∞—Ç–µ—Ä–∏—è—Ç–∞
 270:.\main.c      **** #ifdef UBAT_ENABLED
 271:.\main.c      ****                 ADC_StartConvert();
 272:.\main.c      ****                 ADC_IsEndConversion(ADC_WAIT_FOR_RESULT);
 273:.\main.c      ****                 adc = ADC_GetResult16(CHN_ADC_UBAT );
 274:.\main.c      ****                 mVolts = ADC_CountsTo_mVolts(CHN_ADC_UBAT, adc);
 275:.\main.c      ****                 uBat = mVolts * 16.0;
 276:.\main.c      ****                 sprintf(str,"Ubat: %d.%d V\r\n", uBat/1000, uBat%1000);                
 277:.\main.c      ****                 strcat(txbuf,str);                
 278:.\main.c      **** #endif                
 279:.\main.c      ****                 //–ò–∑–ø—Ä–∞—â–∞–Ω–µ –Ω–∞ –¥–∞–Ω–Ω–∏—Ç–µ
 280:.\main.c      ****                 strcat(txbuf,"END\r\n");
 281:.\main.c      ****                 UART_ClearRxBuffer();
 282:.\main.c      ****                 sprintf(line,"AT+CIPSEND=%d\r\n",strlen(txbuf));
 283:.\main.c      ****                 UART_PutString(line);
 284:.\main.c      ****                 UartReadLine(rxbuf,READ_LINE_TIMEOUT); //–ø—Ä–∞–∑–µ–Ω —Ä–µ–¥
 285:.\main.c      ****                 UartReadLine(rxbuf,READ_LINE_TIMEOUT); //–û–ö
 286:.\main.c      ****                 UartReadLine(rxbuf,READ_LINE_TIMEOUT); // > (–∫—É—Ä—Å–æ—Ä)
 287:.\main.c      ****                 UART_PutString(txbuf);
 288:.\main.c      ****                 CyDelay(200);
 289:.\main.c      ****                
 290:.\main.c      ****                 //–ü—Ä–µ–∫—Ä–∞—Ç—è–≤–∞–Ω–µ –Ω–∞ TCP –∫–æ–Ω–µ–∫—Ü–∏—è
 291:.\main.c      ****                 UART_ClearRxBuffer();
 292:.\main.c      ****                 UART_PutString("AT+CIPCLOSE\r\n");
 293:.\main.c      ****                 UartReadLine(rxbuf,READ_LINE_TIMEOUT); //–ø—Ä–∞–∑–µ–Ω —Ä–µ–¥
 294:.\main.c      ****                 UartReadLine(rxbuf,READ_LINE_TIMEOUT); // > (–∫—É—Ä—Å–æ—Ä)
 295:.\main.c      ****                 //–ü—Ä–∏—Å–ø–∏–≤–∞–Ω–µ –Ω–∞ WIFI –º–æ–¥—É–ª–∞
 296:.\main.c      ****                 //!–í–ê–ñ–ù–û –ó–∞ –¥–∞ —Å–µ –∏–∑–ø—ä–ª–Ω–∏ —Ç–∞–∑–∏ –∫–æ–º–∞–Ω–¥–∞ —Ç—Ä—è–±–≤–∞ –¥
 297:.\main.c      ****                 UART_ClearRxBuffer();
 298:.\main.c      ****                 sprintf(txbuf,"AT+GSLP=%d\r\n",SLEEP_TIME);
 299:.\main.c      ****                 UART_PutString(txbuf);
 300:.\main.c      ****                 UartReadLine(rxbuf,READ_LINE_TIMEOUT); //–ø—Ä–∞–∑–µ–Ω —Ä–µ–¥
 301:.\main.c      ****                 UartReadLine(rxbuf,READ_LINE_TIMEOUT); // > (–∫—É—Ä—Å–æ—Ä)
 302:.\main.c      ****                         
 303:.\main.c      ****                 LED_G_Write(0);
 304:.\main.c      ****                 LED_B_Write(1);
 305:.\main.c      ****                 continue;
 306:.\main.c      ****             }
 307:.\main.c      ****             
 308:.\main.c      ****             //ALREADY CONNECTED,17 - –≤–µ—á–µ –∏–º–∞ –∏–∑–≥—Ä–∞–¥–µ–Ω–∞ –≤—Ä—ä–∑–∫–∞. –¢–æ–≤–∞ –Ω–µ
 309:.\main.c      ****             if(strncmp(rxbuf,"ALREADY CONNECTED",17)==0) 
 310:.\main.c      ****             {//–ó–∞—Ç–æ–≤–∞ —Å–µ –∑–∞—Ç–≤–∞—Ä—è –∏ –∏–∑–≥—Ä–∞–∂–¥–∞ –Ω–∞–Ω–æ–≤–æ
 311:.\main.c      ****                 CyDelay(400);
 312:.\main.c      ****                 UART_ClearRxBuffer();
 313:.\main.c      ****                 UART_PutString("AT+CIPCLOSE\r\n");
ARM GAS  C:\Users\Svilen\AppData\Local\Temp\ccuaxGpF.s 			page 8


 314:.\main.c      ****                 CyDelay(400);
 315:.\main.c      ****                 goto EstablishConnection;
 316:.\main.c      ****             }
 317:.\main.c      ****             //no ip - –Ω—è–º–∞ –≤—Ä—ä–∑–∫–∞ —Å –ê–†
 318:.\main.c      ****             if(strncmp(rxbuf,"no ip",5)==0)
 319:.\main.c      ****             {
 320:.\main.c      ****                 for(n=10 ; n!=0 ; n--)
 321:.\main.c      ****                 {
 322:.\main.c      ****                     LED_R_Write(0);
 323:.\main.c      ****                     CyDelay(100);                        
 324:.\main.c      ****                     LED_R_Write(1);
 325:.\main.c      ****                     CyDelay(100);                                                
 326:.\main.c      ****                 }
 327:.\main.c      ****                 LED_G_Write(1);
 328:.\main.c      ****                 goto CheckAT;
 329:.\main.c      ****             }
 330:.\main.c      **** 
 331:.\main.c      ****             /* ESP8266 —Å–µ –æ–ø–∏—Ç–≤–∞ –¥–∞ –∏–∑–≥—Ä–∞–¥–∏ TCP –≤—Ä—ä–∑–∫–∞ —Å—ä—Å –∫–æ–Ω—Ü–µ–Ω—Ç
 332:.\main.c      ****              * –ü–æ –≤—Ä–µ–º–µ –Ω–∞ –∏–∑–≥—Ä–∞–∂–¥–∞–Ω–µ –Ω–∞ –≤—Ä—ä–∑–∫–∞—Ç–∞, —Å–≤–µ—Ç–≤–∞ –∏ —á–
 333:.\main.c      ****              */
 334:.\main.c      ****             LED_R_Write(0);
 335:.\main.c      ****             if(strncmp(rxbuf,"ERROR",5)==0)
 336:.\main.c      ****             {   //–û–ø–∏—Ç–∞ –¥–∞ —Å–µ –∏–∑–≥—Ä–∞–¥–∏ TCP –≤—Ä—ä–∑–∫–∞ –µ –Ω–µ—É—Å–ø–µ—à–µ–Ω.
 337:.\main.c      ****                 //–ú–∏–≥–∞ –±—ä—Ä–∑–æ 10 –ø—ä—Ç–∏ 
 338:.\main.c      ****                 for(n=10 ; n!=0 ; n--)
 339:.\main.c      ****                 {
 340:.\main.c      ****                     LED_R_Write(0);
 341:.\main.c      ****                     CyDelay(100);                        
 342:.\main.c      ****                     LED_R_Write(1);
 343:.\main.c      ****                     CyDelay(100);                                                
 344:.\main.c      ****                 }
 345:.\main.c      ****                 retry--;
 346:.\main.c      ****                 if(retry==0) 
 347:.\main.c      ****                 {// –ø—Ä–æ–≤–µ—Ä–∫–∞ –¥–∞–ª–∏ –æ—Ç–≥–æ–≤–∞—Ä—è –Ω–∞ –ê–¢ –∫–æ–º–∞–Ω–¥–∞
 348:.\main.c      **** 
 349:.\main.c      ****                     LED_G_Write(1);
 350:.\main.c      ****                     goto CheckAT;            
 351:.\main.c      ****                 }
 352:.\main.c      ****                 goto EstablishConnection;
 353:.\main.c      ****             }
 354:.\main.c      ****         }
 355:.\main.c      ****     }    
 356:.\main.c      **** }
 357:.\main.c      **** 
 358:.\main.c      **** 
 359:.\main.c      **** int AM2302_Read()
 360:.\main.c      **** {
  83              		.loc 1 360 0
  84              		.cfi_startproc
  85 0000 F0B5     		push	{r4, r5, r6, r7, lr}
  86              		.cfi_def_cfa_offset 20
  87              		.cfi_offset 4, -20
  88              		.cfi_offset 5, -16
  89              		.cfi_offset 6, -12
  90              		.cfi_offset 7, -8
  91              		.cfi_offset 14, -4
  92 0002 4746     		mov	r7, r8
ARM GAS  C:\Users\Svilen\AppData\Local\Temp\ccuaxGpF.s 			page 9


  93 0004 80B4     		push	{r7}
  94              		.cfi_def_cfa_offset 24
  95              		.cfi_offset 8, -24
 361:.\main.c      ****     int i;
 362:.\main.c      ****     int timer;
 363:.\main.c      ****     uint16 mask;
 364:.\main.c      ****     uint16 humidity, temperature;
 365:.\main.c      ****     
 366:.\main.c      ****     //–°—Ç–∞—Ä—Ç–∏—Ä–∞ —Å–µ –∑–∞–ø–∏—Ç–≤–∞–Ω–µ –∫—ä–º —Å–µ–Ω–∑–æ—Ä–∞
 367:.\main.c      ****     HUM_Write(0);
  96              		.loc 1 367 0
  97 0006 0020     		mov	r0, #0
  98 0008 FFF7FEFF 		bl	HUM_Write
  99              	.LVL1:
 368:.\main.c      ****     CyDelay(10);
 100              		.loc 1 368 0
 101 000c 0A20     		mov	r0, #10
 102 000e FFF7FEFF 		bl	CyDelay
 103              	.LVL2:
 369:.\main.c      ****     HUM_Write(1);
 104              		.loc 1 369 0
 105 0012 0120     		mov	r0, #1
 106 0014 FFF7FEFF 		bl	HUM_Write
 107              	.LVL3:
 370:.\main.c      ****     
 371:.\main.c      ****     timer = 0;
 108              		.loc 1 371 0
 109 0018 0024     		mov	r4, #0
 372:.\main.c      ****     //–õ–∏–Ω–∏—è—Ç–∞ –µ –≤ 1. –ß–∞–∫–∞–º–µ 20-40–º—Å —Å–µ–Ω–∑–æ—Ä–∞ –¥–∞ —Å–≤–∞–ª–∏ 0
 373:.\main.c      ****     while(HUM_Read()==1)
 110              		.loc 1 373 0
 111 001a 02E0     		b	.L8
 112              	.LVL4:
 113              	.L10:
 374:.\main.c      ****     {
 375:.\main.c      ****         timer++;
 114              		.loc 1 375 0
 115 001c 0134     		add	r4, r4, #1
 116              	.LVL5:
 376:.\main.c      ****         if(timer>200) return 1; // –°–µ–Ω–∑–æ—Ä–∞ –Ω–µ –æ—Ç–≥–æ–≤–∞—Ä—è.
 117              		.loc 1 376 0
 118 001e C82C     		cmp	r4, #200
 119 0020 5BDC     		bgt	.L27
 120              	.LVL6:
 121              	.L8:
 373:.\main.c      ****     {
 122              		.loc 1 373 0
 123 0022 FFF7FEFF 		bl	HUM_Read
 124              	.LVL7:
 125 0026 0128     		cmp	r0, #1
 126 0028 F8D0     		beq	.L10
 127 002a 0024     		mov	r4, #0
 128              	.LVL8:
 129 002c 02E0     		b	.L11
 130              	.LVL9:
 131              	.L12:
 377:.\main.c      ****     }
ARM GAS  C:\Users\Svilen\AppData\Local\Temp\ccuaxGpF.s 			page 10


 378:.\main.c      ****     //–õ–∏–Ω–∏—è—Ç–∞ –µ –≤ 0. –ß–∞–∫–∞–º–µ —Å–µ–Ω–∑–æ—Ä–∞ –¥–∞ –∫–∞—á–∏ 1 –∑–∞ 80 –º—Å
 379:.\main.c      ****     timer=0;
 380:.\main.c      ****     while(HUM_Read()==0)
 381:.\main.c      ****     {
 382:.\main.c      ****         timer++;
 132              		.loc 1 382 0
 133 002e 0134     		add	r4, r4, #1
 134              	.LVL10:
 383:.\main.c      ****         if(timer>200) return 1; // –°–µ–Ω–∑–æ—Ä–∞ –Ω–µ –æ—Ç–≥–æ–≤–∞—Ä—è.
 135              		.loc 1 383 0
 136 0030 C82C     		cmp	r4, #200
 137 0032 54DC     		bgt	.L28
 138              	.LVL11:
 139              	.L11:
 380:.\main.c      ****     {
 140              		.loc 1 380 0
 141 0034 FFF7FEFF 		bl	HUM_Read
 142              	.LVL12:
 143 0038 0028     		cmp	r0, #0
 144 003a F8D0     		beq	.L12
 145 003c 0024     		mov	r4, #0
 146              	.LVL13:
 147 003e 02E0     		b	.L13
 148              	.LVL14:
 149              	.L14:
 384:.\main.c      ****     }
 385:.\main.c      ****     //–õ–∏–Ω–∏—è—Ç–∞ –µ –≤ 1. –ß–∞–∫–∞–º–µ —Å–µ–Ω–∑–æ—Ä–∞ –¥–∞ –∑–∞–ø–æ—á–Ω–µ –ø—Ä–µ–¥–∞–≤–∞–Ω–µ
 386:.\main.c      ****     timer=0;
 387:.\main.c      ****     while(HUM_Read()==1)            //–°–µ–Ω–∑–æ—Ä–∞ —Å–≤–∞–ª—è –ª–∏–Ω–∏—è—Ç–∞ –∑–∞ 50 us
 388:.\main.c      ****     {
 389:.\main.c      ****         timer++;
 150              		.loc 1 389 0
 151 0040 0134     		add	r4, r4, #1
 152              	.LVL15:
 390:.\main.c      ****         if(timer>200) return 1;
 153              		.loc 1 390 0
 154 0042 C82C     		cmp	r4, #200
 155 0044 4DDC     		bgt	.L29
 156              	.LVL16:
 157              	.L13:
 387:.\main.c      ****     {
 158              		.loc 1 387 0
 159 0046 FFF7FEFF 		bl	HUM_Read
 160              	.LVL17:
 161 004a 0128     		cmp	r0, #1
 162 004c F8D0     		beq	.L14
 163 004e 0025     		mov	r5, #0
 164 0050 8027     		mov	r7, #128
 165 0052 3F02     		lsl	r7, r7, #8
 166 0054 0026     		mov	r6, #0
 167 0056 16E0     		b	.L15
 168              	.LVL18:
 169              	.L16:
 391:.\main.c      ****     }
 392:.\main.c      ****     //–ü—Ä–æ—á–∏—Ç–∞–Ω–µ –Ω–∞ –≤–ª–∞–∂–Ω–æ—Å—Ç
 393:.\main.c      ****     humidity=0;
 394:.\main.c      ****     mask=0x8000;
ARM GAS  C:\Users\Svilen\AppData\Local\Temp\ccuaxGpF.s 			page 11


 395:.\main.c      ****     for(i=0; i!=16 ; i++)
 396:.\main.c      ****     {
 397:.\main.c      ****         //–ß–∞–∫–∞–º –¥–∞ —Å–µ –≤–¥–∏–≥–Ω–µ –≤ 1 - –¥–∞ –∑–∞–ø–æ—á–Ω–µ –ø—Ä–µ–¥–¥–∞–≤–∞–Ω–µ –Ω–∞ –±
 398:.\main.c      ****         timer=0;
 399:.\main.c      ****         while(HUM_Read()==0)
 400:.\main.c      ****         {
 401:.\main.c      ****             timer++;
 170              		.loc 1 401 0
 171 0058 0134     		add	r4, r4, #1
 172              	.LVL19:
 402:.\main.c      ****             if(timer==200) return 1;
 173              		.loc 1 402 0
 174 005a C82C     		cmp	r4, #200
 175 005c 01D1     		bne	.L20
 176 005e 42E0     		b	.L30
 177              	.L32:
 178 0060 0024     		mov	r4, #0
 179              	.LVL20:
 180              	.L20:
 399:.\main.c      ****         {
 181              		.loc 1 399 0
 182 0062 FFF7FEFF 		bl	HUM_Read
 183              	.LVL21:
 184 0066 0028     		cmp	r0, #0
 185 0068 F6D0     		beq	.L16
 186 006a 0024     		mov	r4, #0
 187              	.LVL22:
 188 006c 02E0     		b	.L17
 189              	.LVL23:
 190              	.L18:
 403:.\main.c      ****         }
 404:.\main.c      ****         //–ü—Ä–æ—á–∏—Ç–∞–Ω–µ –Ω–∞ –±–∏—Ç. –°—Ç–æ–π–Ω–æ—Å—Ç 0 –µ –∑–∞–¥—ä—Ä–∂–∞–Ω–µ –∑–∞ 26-28 –º—Å.
 405:.\main.c      ****         timer=0;       
 406:.\main.c      ****         while(HUM_Read()==1)
 407:.\main.c      ****         {
 408:.\main.c      ****             timer++;
 191              		.loc 1 408 0
 192 006e 0134     		add	r4, r4, #1
 193              	.LVL24:
 409:.\main.c      ****             if(timer>200) return 1;
 194              		.loc 1 409 0
 195 0070 C82C     		cmp	r4, #200
 196 0072 3ADC     		bgt	.L31
 197              	.LVL25:
 198              	.L17:
 406:.\main.c      ****         {
 199              		.loc 1 406 0
 200 0074 FFF7FEFF 		bl	HUM_Read
 201              	.LVL26:
 202 0078 0128     		cmp	r0, #1
 203 007a F8D0     		beq	.L18
 410:.\main.c      ****         }
 411:.\main.c      ****         if(timer>55) humidity |= mask;
 204              		.loc 1 411 0
 205 007c 372C     		cmp	r4, #55
 206 007e 00DD     		ble	.L19
 207              		.loc 1 411 0 is_stmt 0 discriminator 1
ARM GAS  C:\Users\Svilen\AppData\Local\Temp\ccuaxGpF.s 			page 12


 208 0080 3D43     		orr	r5, r7
 209              	.LVL27:
 210              	.L19:
 412:.\main.c      ****         mask = mask>>1;
 211              		.loc 1 412 0 is_stmt 1 discriminator 2
 212 0082 7F08     		lsr	r7, r7, #1
 213              	.LVL28:
 395:.\main.c      ****     {
 214              		.loc 1 395 0 discriminator 2
 215 0084 0136     		add	r6, r6, #1
 216              	.LVL29:
 217              	.L15:
 395:.\main.c      ****     {
 218              		.loc 1 395 0 is_stmt 0 discriminator 1
 219 0086 102E     		cmp	r6, #16
 220 0088 EAD1     		bne	.L32
 221 008a 0023     		mov	r3, #0
 222 008c 9846     		mov	r8, r3
 223 008e 8027     		mov	r7, #128
 224              	.LVL30:
 225 0090 3F02     		lsl	r7, r7, #8
 226 0092 0026     		mov	r6, #0
 227              	.LVL31:
 228 0094 18E0     		b	.L21
 229              	.LVL32:
 230              	.L22:
 413:.\main.c      ****     }    
 414:.\main.c      ****     //–ü—Ä–æ—á–∏—Ç–∞–Ω–µ –Ω–∞ —Ç–µ–º–ø–µ—Ä–∞—Ç—É—Ä–∞
 415:.\main.c      ****     temperature=0;
 416:.\main.c      ****     mask=0x8000;
 417:.\main.c      ****     for(i=0; i!=16 ; i++)
 418:.\main.c      ****     {
 419:.\main.c      ****         //–ß–∞–∫–∞–º –¥–∞ —Å–µ –≤–¥–∏–≥–Ω–µ –≤ 1 - –¥–∞ –∑–∞–ø–æ—á–Ω–µ –ø—Ä–µ–¥–¥–∞–≤–∞–Ω–µ –Ω–∞ –±
 420:.\main.c      ****         timer=0;
 421:.\main.c      ****         while(HUM_Read()==0)
 422:.\main.c      ****         {
 423:.\main.c      ****             timer++;
 231              		.loc 1 423 0 is_stmt 1
 232 0096 0134     		add	r4, r4, #1
 233              	.LVL33:
 424:.\main.c      ****             if(timer==200) return 1;
 234              		.loc 1 424 0
 235 0098 C82C     		cmp	r4, #200
 236 009a 01D1     		bne	.L26
 237 009c 27E0     		b	.L33
 238              	.L35:
 239 009e 0024     		mov	r4, #0
 240              	.LVL34:
 241              	.L26:
 421:.\main.c      ****         {
 242              		.loc 1 421 0
 243 00a0 FFF7FEFF 		bl	HUM_Read
 244              	.LVL35:
 245 00a4 0028     		cmp	r0, #0
 246 00a6 F6D0     		beq	.L22
 247 00a8 0024     		mov	r4, #0
 248              	.LVL36:
ARM GAS  C:\Users\Svilen\AppData\Local\Temp\ccuaxGpF.s 			page 13


 249 00aa 02E0     		b	.L23
 250              	.LVL37:
 251              	.L24:
 425:.\main.c      ****         }
 426:.\main.c      ****         //–ü—Ä–æ—á–∏—Ç–∞–Ω–µ –Ω–∞ –±–∏—Ç. –°—Ç–æ–π–Ω–æ—Å—Ç 0 –µ –∑–∞–¥—ä—Ä–∂–∞–Ω–µ –∑–∞ 26-28 –º—Å.
 427:.\main.c      ****         timer=0;       
 428:.\main.c      ****         while(HUM_Read()==1)
 429:.\main.c      ****         {
 430:.\main.c      ****             timer++;
 252              		.loc 1 430 0
 253 00ac 0134     		add	r4, r4, #1
 254              	.LVL38:
 431:.\main.c      ****             if(timer>200) return 1;
 255              		.loc 1 431 0
 256 00ae C82C     		cmp	r4, #200
 257 00b0 1FDC     		bgt	.L34
 258              	.LVL39:
 259              	.L23:
 428:.\main.c      ****         {
 260              		.loc 1 428 0
 261 00b2 FFF7FEFF 		bl	HUM_Read
 262              	.LVL40:
 263 00b6 0128     		cmp	r0, #1
 264 00b8 F8D0     		beq	.L24
 432:.\main.c      ****         }
 433:.\main.c      ****         if(timer>55) temperature |= mask;
 265              		.loc 1 433 0
 266 00ba 372C     		cmp	r4, #55
 267 00bc 02DD     		ble	.L25
 268              		.loc 1 433 0 is_stmt 0 discriminator 1
 269 00be 4346     		mov	r3, r8
 270 00c0 3B43     		orr	r3, r7
 271 00c2 9846     		mov	r8, r3
 272              	.LVL41:
 273              	.L25:
 434:.\main.c      ****         mask = mask>>1;
 274              		.loc 1 434 0 is_stmt 1 discriminator 2
 275 00c4 7F08     		lsr	r7, r7, #1
 276              	.LVL42:
 417:.\main.c      ****     {
 277              		.loc 1 417 0 discriminator 2
 278 00c6 0136     		add	r6, r6, #1
 279              	.LVL43:
 280              	.L21:
 417:.\main.c      ****     {
 281              		.loc 1 417 0 is_stmt 0 discriminator 1
 282 00c8 102E     		cmp	r6, #16
 283 00ca E8D1     		bne	.L35
 435:.\main.c      ****     }    
 436:.\main.c      **** 
 437:.\main.c      ****     AM2302_Humidity = humidity;
 284              		.loc 1 437 0 is_stmt 1
 285 00cc 0B4B     		ldr	r3, .L36
 286 00ce 1D80     		strh	r5, [r3]
 438:.\main.c      ****     AM2302_Temp = temperature;
 287              		.loc 1 438 0
 288 00d0 0B4B     		ldr	r3, .L36+4
ARM GAS  C:\Users\Svilen\AppData\Local\Temp\ccuaxGpF.s 			page 14


 289 00d2 4246     		mov	r2, r8
 290 00d4 1A80     		strh	r2, [r3]
 439:.\main.c      ****     return 0;
 291              		.loc 1 439 0
 292 00d6 0020     		mov	r0, #0
 293 00d8 0CE0     		b	.L9
 294              	.LVL44:
 295              	.L27:
 376:.\main.c      ****     }
 296              		.loc 1 376 0
 297 00da 0120     		mov	r0, #1
 298 00dc 0AE0     		b	.L9
 299              	.L28:
 383:.\main.c      ****     }
 300              		.loc 1 383 0
 301 00de 0120     		mov	r0, #1
 302 00e0 08E0     		b	.L9
 303              	.L29:
 390:.\main.c      ****     }
 304              		.loc 1 390 0
 305 00e2 0120     		mov	r0, #1
 306 00e4 06E0     		b	.L9
 307              	.LVL45:
 308              	.L30:
 402:.\main.c      ****         }
 309              		.loc 1 402 0
 310 00e6 0120     		mov	r0, #1
 311 00e8 04E0     		b	.L9
 312              	.L31:
 409:.\main.c      ****         }
 313              		.loc 1 409 0
 314 00ea 0120     		mov	r0, #1
 315 00ec 02E0     		b	.L9
 316              	.LVL46:
 317              	.L33:
 424:.\main.c      ****         }
 318              		.loc 1 424 0
 319 00ee 0120     		mov	r0, #1
 320 00f0 00E0     		b	.L9
 321              	.L34:
 431:.\main.c      ****         }
 322              		.loc 1 431 0
 323 00f2 0120     		mov	r0, #1
 324              	.LVL47:
 325              	.L9:
 440:.\main.c      **** }
 326              		.loc 1 440 0
 327              		@ sp needed
 328              	.LVL48:
 329 00f4 04BC     		pop	{r2}
 330 00f6 9046     		mov	r8, r2
 331 00f8 F0BD     		pop	{r4, r5, r6, r7, pc}
 332              	.L37:
 333 00fa C046     		.align	2
 334              	.L36:
 335 00fc 00000000 		.word	AM2302_Humidity
 336 0100 00000000 		.word	AM2302_Temp
ARM GAS  C:\Users\Svilen\AppData\Local\Temp\ccuaxGpF.s 			page 15


 337              		.cfi_endproc
 338              	.LFE37:
 339              		.size	AM2302_Read, .-AM2302_Read
 340              		.section	.text.BMP180_ReadReg,"ax",%progbits
 341              		.align	2
 342              		.global	BMP180_ReadReg
 343              		.code	16
 344              		.thumb_func
 345              		.type	BMP180_ReadReg, %function
 346              	BMP180_ReadReg:
 347              	.LFB38:
 441:.\main.c      **** 
 442:.\main.c      **** uint32 BMP180_ReadReg(uint32 reg)
 443:.\main.c      **** {
 348              		.loc 1 443 0
 349              		.cfi_startproc
 350              	.LVL49:
 351 0000 10B5     		push	{r4, lr}
 352              		.cfi_def_cfa_offset 8
 353              		.cfi_offset 4, -8
 354              		.cfi_offset 14, -4
 355 0002 041C     		mov	r4, r0
 444:.\main.c      ****     //–ü—Ä–æ—á–∏—Ç–∞ –µ–¥–∏–Ω —Ä–µ–≥–∏—Å—Ç—ä—Ä –æ—Ç –í–ú–†180 —Å–µ–Ω–∑–æ—Ä–∞ –∑–∞ —Ç–µ–º–ø–µ—Ä–∞—Ç—
 445:.\main.c      ****     //–ó–∞ –¥–∞ —Ä–∞–±–æ—Ç–∏ i2c —Ç—Ä—è–±–≤–∞ –≥–ª–æ–±–∞–ª–Ω–æ –¥–∞ –µ —Ä–∞–∑—Ä–µ—à–µ–Ω–æ –ø—Ä–µ–∫—
 446:.\main.c      ****     uint32 res;
 447:.\main.c      ****     I2C_I2CMasterClearStatus(); /* Clear any previous status */
 356              		.loc 1 447 0
 357 0004 FFF7FEFF 		bl	I2C_I2CMasterClearStatus
 358              	.LVL50:
 448:.\main.c      ****     I2C_I2CMasterSendStart(0x77,I2C_I2C_WRITE_XFER_MODE); //0x77 –µ i2c –∞–¥—Ä–µ—Å–∞ –Ω–∞ —Å–µ–Ω–∑–
 359              		.loc 1 448 0
 360 0008 7720     		mov	r0, #119
 361 000a 0021     		mov	r1, #0
 362 000c FFF7FEFF 		bl	I2C_I2CMasterSendStart
 363              	.LVL51:
 449:.\main.c      ****     I2C_I2CMasterWriteByte(reg);//To–≤–∞ –µ –∞–¥—Ä–µ—Å–∞ –Ω–∞ —Ä–µ–≥–∏—Å—Ç—ä—Ä–∞ –∫–æ–π—Ç–æ –¥–∞ –±
 364              		.loc 1 449 0
 365 0010 201C     		mov	r0, r4
 366 0012 FFF7FEFF 		bl	I2C_I2CMasterWriteByte
 367              	.LVL52:
 450:.\main.c      ****     I2C_I2CMasterSendRestart(0x77,I2C_I2C_READ_XFER_MODE);
 368              		.loc 1 450 0
 369 0016 7720     		mov	r0, #119
 370 0018 0121     		mov	r1, #1
 371 001a FFF7FEFF 		bl	I2C_I2CMasterSendRestart
 372              	.LVL53:
 451:.\main.c      ****     res = I2C_I2CMasterReadByte(I2C_I2C_NAK_DATA);
 373              		.loc 1 451 0
 374 001e 0120     		mov	r0, #1
 375 0020 FFF7FEFF 		bl	I2C_I2CMasterReadByte
 376              	.LVL54:
 377 0024 041C     		mov	r4, r0
 378              	.LVL55:
 452:.\main.c      ****     I2C_I2CMasterSendStop();
 379              		.loc 1 452 0
 380 0026 FFF7FEFF 		bl	I2C_I2CMasterSendStop
 381              	.LVL56:
ARM GAS  C:\Users\Svilen\AppData\Local\Temp\ccuaxGpF.s 			page 16


 453:.\main.c      ****     return res;
 454:.\main.c      **** }
 382              		.loc 1 454 0
 383 002a 201C     		mov	r0, r4
 384              		@ sp needed
 385              	.LVL57:
 386 002c 10BD     		pop	{r4, pc}
 387              		.cfi_endproc
 388              	.LFE38:
 389              		.size	BMP180_ReadReg, .-BMP180_ReadReg
 390 002e C046     		.section	.text.BMP180_ReadInt,"ax",%progbits
 391              		.align	2
 392              		.global	BMP180_ReadInt
 393              		.code	16
 394              		.thumb_func
 395              		.type	BMP180_ReadInt, %function
 396              	BMP180_ReadInt:
 397              	.LFB39:
 455:.\main.c      **** 
 456:.\main.c      **** int16 BMP180_ReadInt(uint32 reg)
 457:.\main.c      **** {
 398              		.loc 1 457 0
 399              		.cfi_startproc
 400              	.LVL58:
 401 0000 38B5     		push	{r3, r4, r5, lr}
 402              		.cfi_def_cfa_offset 16
 403              		.cfi_offset 3, -16
 404              		.cfi_offset 4, -12
 405              		.cfi_offset 5, -8
 406              		.cfi_offset 14, -4
 407 0002 051C     		mov	r5, r0
 458:.\main.c      ****     //–ü—Ä–æ—á–∏—Ç–∞ —Ü—è–ª–æ —á–∏—Å–ª–æ —Å—ä—Å –∑–Ω–∞–∫ –ø—Ä–æ—á–∏—Ç–∞–π–∫–∏ 2 —Ä–µ–≥–∏—Å—Ç—ä—Ä–∞ 
 459:.\main.c      ****     int16 value;
 460:.\main.c      ****     uint16 msb,lsb;
 461:.\main.c      **** 
 462:.\main.c      ****     msb = (uint16) BMP180_ReadReg(reg);
 408              		.loc 1 462 0
 409 0004 FFF7FEFF 		bl	BMP180_ReadReg
 410              	.LVL59:
 411 0008 041C     		mov	r4, r0
 412              	.LVL60:
 463:.\main.c      ****     lsb = (uint16) BMP180_ReadReg(reg+1);
 413              		.loc 1 463 0
 414 000a 681C     		add	r0, r5, #1
 415 000c FFF7FEFF 		bl	BMP180_ReadReg
 416              	.LVL61:
 417 0010 2404     		lsl	r4, r4, #16
 418              	.LVL62:
 464:.\main.c      ****     value = (msb << 8) | lsb;
 419              		.loc 1 464 0
 420 0012 240A     		lsr	r4, r4, #8
 421 0014 2043     		orr	r0, r4
 422              	.LVL63:
 465:.\main.c      ****     return value;
 423              		.loc 1 465 0
 424 0016 00B2     		sxth	r0, r0
 466:.\main.c      **** }
ARM GAS  C:\Users\Svilen\AppData\Local\Temp\ccuaxGpF.s 			page 17


 425              		.loc 1 466 0
 426              		@ sp needed
 427              	.LVL64:
 428 0018 38BD     		pop	{r3, r4, r5, pc}
 429              		.cfi_endproc
 430              	.LFE39:
 431              		.size	BMP180_ReadInt, .-BMP180_ReadInt
 432 001a C046     		.section	.text.BMP180_ReadUInt,"ax",%progbits
 433              		.align	2
 434              		.global	BMP180_ReadUInt
 435              		.code	16
 436              		.thumb_func
 437              		.type	BMP180_ReadUInt, %function
 438              	BMP180_ReadUInt:
 439              	.LFB40:
 467:.\main.c      **** 
 468:.\main.c      **** uint16 BMP180_ReadUInt(uint32 reg)
 469:.\main.c      **** {
 440              		.loc 1 469 0
 441              		.cfi_startproc
 442              	.LVL65:
 443 0000 38B5     		push	{r3, r4, r5, lr}
 444              		.cfi_def_cfa_offset 16
 445              		.cfi_offset 3, -16
 446              		.cfi_offset 4, -12
 447              		.cfi_offset 5, -8
 448              		.cfi_offset 14, -4
 449 0002 051C     		mov	r5, r0
 470:.\main.c      ****     //–ü—Ä–æ—á–∏—Ç–∞ —Ü—è–ª–æ —á–∏—Å–ª–æ —Å—ä—Å –∑–Ω–∞–∫ –ø—Ä–æ—á–∏—Ç–∞–π–∫–∏ 2 —Ä–µ–≥–∏—Å—Ç—ä—Ä–∞ 
 471:.\main.c      ****     uint16 value;
 472:.\main.c      ****     uint16 msb,lsb;
 473:.\main.c      **** 
 474:.\main.c      ****     msb = (uint16) BMP180_ReadReg(reg);
 450              		.loc 1 474 0
 451 0004 FFF7FEFF 		bl	BMP180_ReadReg
 452              	.LVL66:
 453 0008 041C     		mov	r4, r0
 454              	.LVL67:
 475:.\main.c      ****     lsb = (uint16) BMP180_ReadReg(reg+1);
 455              		.loc 1 475 0
 456 000a 681C     		add	r0, r5, #1
 457 000c FFF7FEFF 		bl	BMP180_ReadReg
 458              	.LVL68:
 459 0010 2404     		lsl	r4, r4, #16
 460              	.LVL69:
 476:.\main.c      ****     value = (msb << 8) | lsb;
 461              		.loc 1 476 0
 462 0012 240A     		lsr	r4, r4, #8
 463 0014 2043     		orr	r0, r4
 464              	.LVL70:
 465 0016 80B2     		uxth	r0, r0
 466              	.LVL71:
 477:.\main.c      ****     return value;
 478:.\main.c      **** }
 467              		.loc 1 478 0
 468              		@ sp needed
 469              	.LVL72:
ARM GAS  C:\Users\Svilen\AppData\Local\Temp\ccuaxGpF.s 			page 18


 470 0018 38BD     		pop	{r3, r4, r5, pc}
 471              		.cfi_endproc
 472              	.LFE40:
 473              		.size	BMP180_ReadUInt, .-BMP180_ReadUInt
 474 001a C046     		.section	.text.BMP180_WriteByte,"ax",%progbits
 475              		.align	2
 476              		.global	BMP180_WriteByte
 477              		.code	16
 478              		.thumb_func
 479              		.type	BMP180_WriteByte, %function
 480              	BMP180_WriteByte:
 481              	.LFB41:
 479:.\main.c      **** 
 480:.\main.c      **** void BMP180_WriteByte(uint32 reg, uint32 b)
 481:.\main.c      **** {
 482              		.loc 1 481 0
 483              		.cfi_startproc
 484              	.LVL73:
 485 0000 38B5     		push	{r3, r4, r5, lr}
 486              		.cfi_def_cfa_offset 16
 487              		.cfi_offset 3, -16
 488              		.cfi_offset 4, -12
 489              		.cfi_offset 5, -8
 490              		.cfi_offset 14, -4
 491 0002 051C     		mov	r5, r0
 492 0004 0C1C     		mov	r4, r1
 482:.\main.c      ****     I2C_I2CMasterClearStatus(); /* Clear any previous status */
 493              		.loc 1 482 0
 494 0006 FFF7FEFF 		bl	I2C_I2CMasterClearStatus
 495              	.LVL74:
 483:.\main.c      ****     I2C_I2CMasterSendStart(0x77,I2C_I2C_WRITE_XFER_MODE); //0x77 –µ i2c –∞–¥—Ä–µ—Å–∞ –Ω–∞ —Å–µ–Ω–∑–
 496              		.loc 1 483 0
 497 000a 7720     		mov	r0, #119
 498 000c 0021     		mov	r1, #0
 499 000e FFF7FEFF 		bl	I2C_I2CMasterSendStart
 500              	.LVL75:
 484:.\main.c      ****     I2C_I2CMasterWriteByte(reg);//To–≤–∞ –µ –∞–¥—Ä–µ—Å–∞ –Ω–∞ —Ä–µ–≥–∏—Å—Ç—ä—Ä–∞ –∫–æ–π—Ç–æ –¥–∞ –±
 501              		.loc 1 484 0
 502 0012 281C     		mov	r0, r5
 503 0014 FFF7FEFF 		bl	I2C_I2CMasterWriteByte
 504              	.LVL76:
 485:.\main.c      ****     I2C_I2CMasterWriteByte(b);
 505              		.loc 1 485 0
 506 0018 201C     		mov	r0, r4
 507 001a FFF7FEFF 		bl	I2C_I2CMasterWriteByte
 508              	.LVL77:
 486:.\main.c      ****     I2C_I2CMasterSendStop();
 509              		.loc 1 486 0
 510 001e FFF7FEFF 		bl	I2C_I2CMasterSendStop
 511              	.LVL78:
 487:.\main.c      **** }
 512              		.loc 1 487 0
 513              		@ sp needed
 514              	.LVL79:
 515              	.LVL80:
 516 0022 38BD     		pop	{r3, r4, r5, pc}
 517              		.cfi_endproc
ARM GAS  C:\Users\Svilen\AppData\Local\Temp\ccuaxGpF.s 			page 19


 518              	.LFE41:
 519              		.size	BMP180_WriteByte, .-BMP180_WriteByte
 520              		.global	__aeabi_idiv
 521              		.section	.text.BMP180_ReadTemperature,"ax",%progbits
 522              		.align	2
 523              		.global	BMP180_ReadTemperature
 524              		.code	16
 525              		.thumb_func
 526              		.type	BMP180_ReadTemperature, %function
 527              	BMP180_ReadTemperature:
 528              	.LFB42:
 488:.\main.c      **** 
 489:.\main.c      **** long BMP180_ReadTemperature()
 490:.\main.c      **** {
 529              		.loc 1 490 0
 530              		.cfi_startproc
 531 0000 10B5     		push	{r4, lr}
 532              		.cfi_def_cfa_offset 8
 533              		.cfi_offset 4, -8
 534              		.cfi_offset 14, -4
 491:.\main.c      ****     //–í—Ä—ä—â–∞ –∫–æ–º–ø–µ–Ω—Å–∏—Ä–∞–Ω–∞ —Ç–µ–º–ø–µ—Ä–∞—Ç—É—Ä–∞ –≤ 0.1–°
 492:.\main.c      ****     int16 adc;
 493:.\main.c      ****     BMP180_WriteByte(0xf4, 0x2e);
 535              		.loc 1 493 0
 536 0002 F420     		mov	r0, #244
 537 0004 2E21     		mov	r1, #46
 538 0006 FFF7FEFF 		bl	BMP180_WriteByte
 539              	.LVL81:
 494:.\main.c      ****     CyDelay(6);
 540              		.loc 1 494 0
 541 000a 0620     		mov	r0, #6
 542 000c FFF7FEFF 		bl	CyDelay
 543              	.LVL82:
 495:.\main.c      ****     adc = BMP180_ReadInt(0xF6);
 544              		.loc 1 495 0
 545 0010 F620     		mov	r0, #246
 546 0012 FFF7FEFF 		bl	BMP180_ReadInt
 547              	.LVL83:
 496:.\main.c      ****     
 497:.\main.c      ****     long X1 = ((long)AC5 * ((long)adc - (long)AC6))/32768;
 548              		.loc 1 497 0
 549 0016 0D4B     		ldr	r3, .L43
 550 0018 1C88     		ldrh	r4, [r3]
 551 001a 0D4B     		ldr	r3, .L43+4
 552 001c 1B88     		ldrh	r3, [r3]
 553 001e C01A     		sub	r0, r0, r3
 554              	.LVL84:
 555 0020 6043     		mul	r0, r4
 556 0022 C417     		asr	r4, r0, #31
 557 0024 640C     		lsr	r4, r4, #17
 558 0026 2418     		add	r4, r4, r0
 559 0028 E413     		asr	r4, r4, #15
 560              	.LVL85:
 498:.\main.c      ****     long X2 = ((long)MC * 2048)/(X1 + (long)MD);
 561              		.loc 1 498 0
 562 002a 0A4B     		ldr	r3, .L43+8
 563 002c 0020     		mov	r0, #0
ARM GAS  C:\Users\Svilen\AppData\Local\Temp\ccuaxGpF.s 			page 20


 564 002e 185E     		ldrsh	r0, [r3, r0]
 565 0030 C002     		lsl	r0, r0, #11
 566 0032 094B     		ldr	r3, .L43+12
 567 0034 0021     		mov	r1, #0
 568 0036 595E     		ldrsh	r1, [r3, r1]
 569 0038 0919     		add	r1, r1, r4
 570 003a FFF7FEFF 		bl	__aeabi_idiv
 571              	.LVL86:
 499:.\main.c      ****     long T = (X1+X2+8)/16;
 572              		.loc 1 499 0
 573 003e 2418     		add	r4, r4, r0
 574              	.LVL87:
 575 0040 0834     		add	r4, r4, #8
 576 0042 E017     		asr	r0, r4, #31
 577              	.LVL88:
 578 0044 000F     		lsr	r0, r0, #28
 579 0046 0019     		add	r0, r0, r4
 580 0048 0011     		asr	r0, r0, #4
 581              	.LVL89:
 500:.\main.c      ****     return T;
 501:.\main.c      **** }
 582              		.loc 1 501 0
 583              		@ sp needed
 584 004a 10BD     		pop	{r4, pc}
 585              	.L44:
 586              		.align	2
 587              	.L43:
 588 004c 00000000 		.word	AC5
 589 0050 00000000 		.word	AC6
 590 0054 00000000 		.word	MC
 591 0058 00000000 		.word	MD
 592              		.cfi_endproc
 593              	.LFE42:
 594              		.size	BMP180_ReadTemperature, .-BMP180_ReadTemperature
 595              		.global	__aeabi_uidiv
 596              		.section	.text.BMP180_ReadPresure,"ax",%progbits
 597              		.align	2
 598              		.global	BMP180_ReadPresure
 599              		.code	16
 600              		.thumb_func
 601              		.type	BMP180_ReadPresure, %function
 602              	BMP180_ReadPresure:
 603              	.LFB43:
 502:.\main.c      **** 
 503:.\main.c      **** long BMP180_ReadPresure(long temperature, int oss)
 504:.\main.c      **** {
 604              		.loc 1 504 0
 605              		.cfi_startproc
 606              	.LVL90:
 607 0000 F8B5     		push	{r3, r4, r5, r6, r7, lr}
 608              		.cfi_def_cfa_offset 24
 609              		.cfi_offset 3, -24
 610              		.cfi_offset 4, -20
 611              		.cfi_offset 5, -16
 612              		.cfi_offset 6, -12
 613              		.cfi_offset 7, -8
 614              		.cfi_offset 14, -4
ARM GAS  C:\Users\Svilen\AppData\Local\Temp\ccuaxGpF.s 			page 21


 615 0002 051C     		mov	r5, r0
 616 0004 0C1E     		sub	r4, r1, #0
 505:.\main.c      ****     uint32 msb, lsb, xlsb;
 506:.\main.c      ****     long up;
 507:.\main.c      **** 
 508:.\main.c      ****     uint32 delay;
 509:.\main.c      ****     
 510:.\main.c      ****     switch (oss)
 617              		.loc 1 510 0
 618 0006 012C     		cmp	r4, #1
 619 0008 11D0     		beq	.L54
 620 000a 0129     		cmp	r1, #1
 621 000c 02DC     		bgt	.L48
 622 000e 0029     		cmp	r1, #0
 623 0010 05D0     		beq	.L49
 624 0012 0AE0     		b	.L46
 625              	.L48:
 626 0014 0229     		cmp	r1, #2
 627 0016 04D0     		beq	.L50
 628 0018 0329     		cmp	r1, #3
 629 001a 04D0     		beq	.L51
 630 001c 05E0     		b	.L46
 631              	.L49:
 511:.\main.c      ****     {
 512:.\main.c      ****     case 0:
 513:.\main.c      ****         delay=6; //ultra low power, 4.5ms
 632              		.loc 1 513 0
 633 001e 0626     		mov	r6, #6
 634 0020 06E0     		b	.L47
 635              	.L50:
 636              	.LVL91:
 514:.\main.c      ****         break;
 515:.\main.c      ****     case 1:
 516:.\main.c      ****         delay=9; //standart, 7.5ms
 517:.\main.c      ****         break;
 518:.\main.c      ****     case 2:
 519:.\main.c      ****         delay=15; //high resolution, 13.5ms
 637              		.loc 1 519 0
 638 0022 0F26     		mov	r6, #15
 520:.\main.c      ****         break;
 639              		.loc 1 520 0
 640 0024 04E0     		b	.L47
 641              	.LVL92:
 642              	.L51:
 521:.\main.c      ****     case 3:
 522:.\main.c      ****         delay=27; //ultra high resolution, 25.5ms
 643              		.loc 1 522 0
 644 0026 1B26     		mov	r6, #27
 523:.\main.c      ****         break;        
 645              		.loc 1 523 0
 646 0028 02E0     		b	.L47
 647              	.LVL93:
 648              	.L46:
 524:.\main.c      ****     default:
 525:.\main.c      ****         delay=32;
 649              		.loc 1 525 0
 650 002a 2026     		mov	r6, #32
ARM GAS  C:\Users\Svilen\AppData\Local\Temp\ccuaxGpF.s 			page 22


 651 002c 00E0     		b	.L47
 652              	.LVL94:
 653              	.L54:
 516:.\main.c      ****         break;
 654              		.loc 1 516 0
 655 002e 0926     		mov	r6, #9
 656              	.L47:
 657              	.LVL95:
 526:.\main.c      ****     }
 527:.\main.c      ****     //–ó–∞–ø–∏—Å–≤–∞ 0x74 –≤ —Ä–µ–≥–∏—Å—Ç—ä—Ä 0xf4
 528:.\main.c      ****     BMP180_WriteByte(0xf4, 0x34+(oss<<6)); //oss=1 0 standart oversample
 658              		.loc 1 528 0
 659 0030 A101     		lsl	r1, r4, #6
 660              	.LVL96:
 661 0032 3431     		add	r1, r1, #52
 662 0034 F420     		mov	r0, #244
 663              	.LVL97:
 664 0036 FFF7FEFF 		bl	BMP180_WriteByte
 665              	.LVL98:
 529:.\main.c      ****     CyDelay(delay);
 666              		.loc 1 529 0
 667 003a 301C     		mov	r0, r6
 668 003c FFF7FEFF 		bl	CyDelay
 669              	.LVL99:
 530:.\main.c      ****     msb = BMP180_ReadReg(0xF6);
 670              		.loc 1 530 0
 671 0040 F620     		mov	r0, #246
 672 0042 FFF7FEFF 		bl	BMP180_ReadReg
 673              	.LVL100:
 674 0046 061C     		mov	r6, r0
 675              	.LVL101:
 531:.\main.c      ****     lsb = BMP180_ReadReg(0xF7);
 676              		.loc 1 531 0
 677 0048 F720     		mov	r0, #247
 678              	.LVL102:
 679 004a FFF7FEFF 		bl	BMP180_ReadReg
 680              	.LVL103:
 681 004e 071C     		mov	r7, r0
 682              	.LVL104:
 532:.\main.c      ****     xlsb = BMP180_ReadReg(0xF8);
 683              		.loc 1 532 0
 684 0050 F820     		mov	r0, #248
 685              	.LVL105:
 686 0052 FFF7FEFF 		bl	BMP180_ReadReg
 687              	.LVL106:
 533:.\main.c      ****     up = (long)(((msb<<16) + (lsb<<8) + xlsb)>>(8-oss));
 688              		.loc 1 533 0
 689 0056 3604     		lsl	r6, r6, #16
 690              	.LVL107:
 691 0058 3F02     		lsl	r7, r7, #8
 692              	.LVL108:
 693 005a F719     		add	r7, r6, r7
 694 005c 3F18     		add	r7, r7, r0
 695 005e 0822     		mov	r2, #8
 696 0060 121B     		sub	r2, r2, r4
 697 0062 3E1C     		mov	r6, r7
 698 0064 D640     		lsr	r6, r6, r2
ARM GAS  C:\Users\Svilen\AppData\Local\Temp\ccuaxGpF.s 			page 23


 699              	.LVL109:
 534:.\main.c      ****     
 535:.\main.c      ****     long B5 = (temperature * 16) - 8; 
 700              		.loc 1 535 0
 701 0066 2D01     		lsl	r5, r5, #4
 702              	.LVL110:
 536:.\main.c      ****     long B6 = B5-4000;
 703              		.loc 1 536 0
 704 0068 294B     		ldr	r3, .L55
 705 006a EA18     		add	r2, r5, r3
 706              	.LVL111:
 537:.\main.c      ****     long X1 = ((long)B2 * ((B6*B6)/4096))/2048;
 707              		.loc 1 537 0
 708 006c 294B     		ldr	r3, .L55+4
 709 006e 0021     		mov	r1, #0
 710 0070 595E     		ldrsh	r1, [r3, r1]
 711 0072 151C     		mov	r5, r2
 712              	.LVL112:
 713 0074 5543     		mul	r5, r2
 714 0076 EB17     		asr	r3, r5, #31
 715 0078 1B0D     		lsr	r3, r3, #20
 716 007a 5D19     		add	r5, r3, r5
 717 007c 2D13     		asr	r5, r5, #12
 718 007e 6943     		mul	r1, r5
 719 0080 CB17     		asr	r3, r1, #31
 720 0082 5B0D     		lsr	r3, r3, #21
 721 0084 5918     		add	r1, r3, r1
 722 0086 C912     		asr	r1, r1, #11
 723              	.LVL113:
 538:.\main.c      ****     long X2 = ((long)AC2*B6)/2048;
 724              		.loc 1 538 0
 725 0088 234B     		ldr	r3, .L55+8
 726 008a 0020     		mov	r0, #0
 727 008c 1B5E     		ldrsh	r3, [r3, r0]
 728              	.LVL114:
 729 008e 5A43     		mul	r2, r3
 730              	.LVL115:
 731 0090 D317     		asr	r3, r2, #31
 732 0092 5B0D     		lsr	r3, r3, #21
 733 0094 9A18     		add	r2, r3, r2
 734 0096 D212     		asr	r2, r2, #11
 735              	.LVL116:
 539:.\main.c      ****     long X3 = (X1+X2);
 736              		.loc 1 539 0
 737 0098 8A18     		add	r2, r1, r2
 738              	.LVL117:
 540:.\main.c      ****     long B3 = ((((long)AC1*4+X3)<<oss)+2)/4;
 739              		.loc 1 540 0
 740 009a 204B     		ldr	r3, .L55+12
 741              	.LVL118:
 742 009c 0021     		mov	r1, #0
 743 009e 5B5E     		ldrsh	r3, [r3, r1]
 744              	.LVL119:
 745 00a0 9B00     		lsl	r3, r3, #2
 746 00a2 9B18     		add	r3, r3, r2
 747 00a4 A340     		lsl	r3, r3, r4
 748 00a6 0233     		add	r3, r3, #2
ARM GAS  C:\Users\Svilen\AppData\Local\Temp\ccuaxGpF.s 			page 24


 749 00a8 D817     		asr	r0, r3, #31
 750 00aa 800F     		lsr	r0, r0, #30
 751 00ac C318     		add	r3, r0, r3
 752 00ae 9B10     		asr	r3, r3, #2
 753              	.LVL120:
 541:.\main.c      ****     unsigned long B4 = (unsigned long)AC4 * (unsigned long)(X3+32768)/32768;
 754              		.loc 1 541 0
 755 00b0 1B49     		ldr	r1, .L55+16
 756 00b2 0988     		ldrh	r1, [r1]
 757 00b4 8020     		mov	r0, #128
 758 00b6 0002     		lsl	r0, r0, #8
 759 00b8 8446     		mov	ip, r0
 760 00ba 6244     		add	r2, r2, ip
 761              	.LVL121:
 762 00bc 5143     		mul	r1, r2
 763 00be C90B     		lsr	r1, r1, #15
 764              	.LVL122:
 542:.\main.c      ****     unsigned long B7 = ((unsigned long)up-B3)*(50000>>oss);
 765              		.loc 1 542 0
 766 00c0 F01A     		sub	r0, r6, r3
 767 00c2 184A     		ldr	r2, .L55+20
 768              	.LVL123:
 769 00c4 2241     		asr	r2, r2, r4
 770 00c6 5043     		mul	r0, r2
 771              	.LVL124:
 543:.\main.c      ****     long p;
 544:.\main.c      ****     if(B7<0x80000000) p=(B7*2)/B4;
 772              		.loc 1 544 0
 773 00c8 0028     		cmp	r0, #0
 774 00ca 03DB     		blt	.L52
 775              		.loc 1 544 0 is_stmt 0 discriminator 1
 776 00cc 4000     		lsl	r0, r0, #1
 777              	.LVL125:
 778 00ce FFF7FEFF 		bl	__aeabi_uidiv
 779              	.LVL126:
 780 00d2 02E0     		b	.L53
 781              	.LVL127:
 782              	.L52:
 545:.\main.c      ****     else p = (B7/B4)*2;
 783              		.loc 1 545 0 is_stmt 1
 784 00d4 FFF7FEFF 		bl	__aeabi_uidiv
 785              	.LVL128:
 786 00d8 4000     		lsl	r0, r0, #1
 787              	.LVL129:
 788              	.L53:
 546:.\main.c      ****     X1 = (p/256)*(p/256);
 789              		.loc 1 546 0
 790 00da C217     		asr	r2, r0, #31
 791 00dc 120E     		lsr	r2, r2, #24
 792 00de 1218     		add	r2, r2, r0
 793 00e0 1212     		asr	r2, r2, #8
 794 00e2 5243     		mul	r2, r2
 795              	.LVL130:
 547:.\main.c      ****     X1 = (X1* 3038)/65536;
 796              		.loc 1 547 0
 797 00e4 104B     		ldr	r3, .L55+24
 798 00e6 5A43     		mul	r2, r3
ARM GAS  C:\Users\Svilen\AppData\Local\Temp\ccuaxGpF.s 			page 25


 799              	.LVL131:
 800 00e8 D317     		asr	r3, r2, #31
 801 00ea 1B0C     		lsr	r3, r3, #16
 802 00ec 9B18     		add	r3, r3, r2
 803 00ee 1B14     		asr	r3, r3, #16
 804              	.LVL132:
 548:.\main.c      ****     X2 = (-7357*p)/65536;
 805              		.loc 1 548 0
 806 00f0 0E4A     		ldr	r2, .L55+28
 807 00f2 4243     		mul	r2, r0
 808 00f4 D117     		asr	r1, r2, #31
 809 00f6 090C     		lsr	r1, r1, #16
 810 00f8 8A18     		add	r2, r1, r2
 811 00fa 1214     		asr	r2, r2, #16
 812              	.LVL133:
 549:.\main.c      ****     p=p+(X1+X2+3791)/16;
 813              		.loc 1 549 0
 814 00fc 9B18     		add	r3, r3, r2
 815              	.LVL134:
 816 00fe 0C4A     		ldr	r2, .L55+32
 817              	.LVL135:
 818 0100 9446     		mov	ip, r2
 819 0102 6344     		add	r3, r3, ip
 820 0104 DA17     		asr	r2, r3, #31
 821 0106 120F     		lsr	r2, r2, #28
 822 0108 D318     		add	r3, r2, r3
 823 010a 1B11     		asr	r3, r3, #4
 824 010c 1818     		add	r0, r3, r0
 825              	.LVL136:
 550:.\main.c      ****     
 551:.\main.c      ****     return p;
 552:.\main.c      **** }
 826              		.loc 1 552 0
 827              		@ sp needed
 828              	.LVL137:
 829              	.LVL138:
 830              	.LVL139:
 831 010e F8BD     		pop	{r3, r4, r5, r6, r7, pc}
 832              	.L56:
 833              		.align	2
 834              	.L55:
 835 0110 58F0FFFF 		.word	-4008
 836 0114 00000000 		.word	B2
 837 0118 00000000 		.word	AC2
 838 011c 00000000 		.word	AC1
 839 0120 00000000 		.word	AC4
 840 0124 50C30000 		.word	50000
 841 0128 DE0B0000 		.word	3038
 842 012c 43E3FFFF 		.word	-7357
 843 0130 CF0E0000 		.word	3791
 844              		.cfi_endproc
 845              	.LFE43:
 846              		.size	BMP180_ReadPresure, .-BMP180_ReadPresure
 847              		.section	.text.BMP180_ReadCalibrationCoefs,"ax",%progbits
 848              		.align	2
 849              		.global	BMP180_ReadCalibrationCoefs
 850              		.code	16
ARM GAS  C:\Users\Svilen\AppData\Local\Temp\ccuaxGpF.s 			page 26


 851              		.thumb_func
 852              		.type	BMP180_ReadCalibrationCoefs, %function
 853              	BMP180_ReadCalibrationCoefs:
 854              	.LFB44:
 553:.\main.c      **** 
 554:.\main.c      **** void BMP180_ReadCalibrationCoefs()
 555:.\main.c      **** {
 855              		.loc 1 555 0
 856              		.cfi_startproc
 857 0000 08B5     		push	{r3, lr}
 858              		.cfi_def_cfa_offset 8
 859              		.cfi_offset 3, -8
 860              		.cfi_offset 14, -4
 556:.\main.c      ****     AC1 = BMP180_ReadInt(0xAA);
 861              		.loc 1 556 0
 862 0002 AA20     		mov	r0, #170
 863 0004 FFF7FEFF 		bl	BMP180_ReadInt
 864              	.LVL140:
 865 0008 1A4B     		ldr	r3, .L58
 866 000a 1880     		strh	r0, [r3]
 557:.\main.c      ****     AC2 = BMP180_ReadInt(0xAC);
 867              		.loc 1 557 0
 868 000c AC20     		mov	r0, #172
 869 000e FFF7FEFF 		bl	BMP180_ReadInt
 870              	.LVL141:
 871 0012 194B     		ldr	r3, .L58+4
 872 0014 1880     		strh	r0, [r3]
 558:.\main.c      ****     AC3 = BMP180_ReadInt(0xAE);
 873              		.loc 1 558 0
 874 0016 AE20     		mov	r0, #174
 875 0018 FFF7FEFF 		bl	BMP180_ReadInt
 876              	.LVL142:
 877 001c 174B     		ldr	r3, .L58+8
 878 001e 1880     		strh	r0, [r3]
 559:.\main.c      ****     AC4 = BMP180_ReadUInt(0xB0);
 879              		.loc 1 559 0
 880 0020 B020     		mov	r0, #176
 881 0022 FFF7FEFF 		bl	BMP180_ReadUInt
 882              	.LVL143:
 883 0026 164B     		ldr	r3, .L58+12
 884 0028 1880     		strh	r0, [r3]
 560:.\main.c      ****     AC5 = BMP180_ReadUInt(0xB2);
 885              		.loc 1 560 0
 886 002a B220     		mov	r0, #178
 887 002c FFF7FEFF 		bl	BMP180_ReadUInt
 888              	.LVL144:
 889 0030 144B     		ldr	r3, .L58+16
 890 0032 1880     		strh	r0, [r3]
 561:.\main.c      ****     AC6 = BMP180_ReadUInt(0xB4);
 891              		.loc 1 561 0
 892 0034 B420     		mov	r0, #180
 893 0036 FFF7FEFF 		bl	BMP180_ReadUInt
 894              	.LVL145:
 895 003a 134B     		ldr	r3, .L58+20
 896 003c 1880     		strh	r0, [r3]
 562:.\main.c      ****     B1 = BMP180_ReadInt(0xB6);
 897              		.loc 1 562 0
ARM GAS  C:\Users\Svilen\AppData\Local\Temp\ccuaxGpF.s 			page 27


 898 003e B620     		mov	r0, #182
 899 0040 FFF7FEFF 		bl	BMP180_ReadInt
 900              	.LVL146:
 901 0044 114B     		ldr	r3, .L58+24
 902 0046 1880     		strh	r0, [r3]
 563:.\main.c      ****     B2 = BMP180_ReadInt(0xB8);
 903              		.loc 1 563 0
 904 0048 B820     		mov	r0, #184
 905 004a FFF7FEFF 		bl	BMP180_ReadInt
 906              	.LVL147:
 907 004e 104B     		ldr	r3, .L58+28
 908 0050 1880     		strh	r0, [r3]
 564:.\main.c      ****     MB = BMP180_ReadInt(0xBA);
 909              		.loc 1 564 0
 910 0052 BA20     		mov	r0, #186
 911 0054 FFF7FEFF 		bl	BMP180_ReadInt
 912              	.LVL148:
 913 0058 0E4B     		ldr	r3, .L58+32
 914 005a 1880     		strh	r0, [r3]
 565:.\main.c      ****     MC = BMP180_ReadInt(0xBC);
 915              		.loc 1 565 0
 916 005c BC20     		mov	r0, #188
 917 005e FFF7FEFF 		bl	BMP180_ReadInt
 918              	.LVL149:
 919 0062 0D4B     		ldr	r3, .L58+36
 920 0064 1880     		strh	r0, [r3]
 566:.\main.c      ****     MD = BMP180_ReadInt(0xBE);
 921              		.loc 1 566 0
 922 0066 BE20     		mov	r0, #190
 923 0068 FFF7FEFF 		bl	BMP180_ReadInt
 924              	.LVL150:
 925 006c 0B4B     		ldr	r3, .L58+40
 926 006e 1880     		strh	r0, [r3]
 567:.\main.c      **** }
 927              		.loc 1 567 0
 928              		@ sp needed
 929 0070 08BD     		pop	{r3, pc}
 930              	.L59:
 931 0072 C046     		.align	2
 932              	.L58:
 933 0074 00000000 		.word	AC1
 934 0078 00000000 		.word	AC2
 935 007c 00000000 		.word	AC3
 936 0080 00000000 		.word	AC4
 937 0084 00000000 		.word	AC5
 938 0088 00000000 		.word	AC6
 939 008c 00000000 		.word	B1
 940 0090 00000000 		.word	B2
 941 0094 00000000 		.word	MB
 942 0098 00000000 		.word	MC
 943 009c 00000000 		.word	MD
 944              		.cfi_endproc
 945              	.LFE44:
 946              		.size	BMP180_ReadCalibrationCoefs, .-BMP180_ReadCalibrationCoefs
 947              		.section	.text.SetTimeout,"ax",%progbits
 948              		.align	2
 949              		.global	SetTimeout
ARM GAS  C:\Users\Svilen\AppData\Local\Temp\ccuaxGpF.s 			page 28


 950              		.code	16
 951              		.thumb_func
 952              		.type	SetTimeout, %function
 953              	SetTimeout:
 954              	.LFB45:
 568:.\main.c      **** 
 569:.\main.c      **** void SetTimeout(uint16 miliseconds)
 570:.\main.c      **** {
 955              		.loc 1 570 0
 956              		.cfi_startproc
 957              	.LVL151:
 958 0000 10B5     		push	{r4, lr}
 959              		.cfi_def_cfa_offset 8
 960              		.cfi_offset 4, -8
 961              		.cfi_offset 14, -4
 962 0002 041C     		mov	r4, r0
 571:.\main.c      ****     /*
 572:.\main.c      ****      * –¢–∞–π–º–µ—Ä–∞-–±—Ä–æ—è—á Timeout —Å–µ –∏–Ω–∫—Ä–µ–º–µ–Ω—Ç–∏—Ä–∞ –≤—Å—è–∫–∞ –º–∏–ª–∏—Å–µ–∫—É–
 573:.\main.c      ****      * –ø—Ä–µ–∫—ä—Å–≤–∞–Ω–µ –∫–æ–µ—Ç–æ —Å–µ –æ—Ç—Ä–∞–±–æ—Ç–≤–∞ –≤ TimeoutISR .  –¢–∞–º —Ñ–ª–∞–≥–∞ t
 574:.\main.c      ****      */
 575:.\main.c      ****         Timeout_Stop();
 963              		.loc 1 575 0
 964 0004 FFF7FEFF 		bl	Timeout_Stop
 965              	.LVL152:
 576:.\main.c      ****         timeoutFlag=0;
 966              		.loc 1 576 0
 967 0008 0022     		mov	r2, #0
 968 000a 054B     		ldr	r3, .L61
 969 000c 1A70     		strb	r2, [r3]
 577:.\main.c      ****         Timeout_WriteCompare(miliseconds);
 970              		.loc 1 577 0
 971 000e 201C     		mov	r0, r4
 972 0010 FFF7FEFF 		bl	Timeout_WriteCompare
 973              	.LVL153:
 578:.\main.c      ****         Timeout_WriteCounter(0);
 974              		.loc 1 578 0
 975 0014 0020     		mov	r0, #0
 976 0016 FFF7FEFF 		bl	Timeout_WriteCounter
 977              	.LVL154:
 579:.\main.c      ****         Timeout_Start();
 978              		.loc 1 579 0
 979 001a FFF7FEFF 		bl	Timeout_Start
 980              	.LVL155:
 580:.\main.c      **** }
 981              		.loc 1 580 0
 982              		@ sp needed
 983 001e 10BD     		pop	{r4, pc}
 984              	.L62:
 985              		.align	2
 986              	.L61:
 987 0020 00000000 		.word	timeoutFlag
 988              		.cfi_endproc
 989              	.LFE45:
 990              		.size	SetTimeout, .-SetTimeout
 991              		.section	.text.UartReadLine,"ax",%progbits
 992              		.align	2
 993              		.global	UartReadLine
ARM GAS  C:\Users\Svilen\AppData\Local\Temp\ccuaxGpF.s 			page 29


 994              		.code	16
 995              		.thumb_func
 996              		.type	UartReadLine, %function
 997              	UartReadLine:
 998              	.LFB46:
 581:.\main.c      **** 
 582:.\main.c      **** uint32 UartReadLine(char *line, uint16 timeout)
 583:.\main.c      **** {
 999              		.loc 1 583 0
 1000              		.cfi_startproc
 1001              	.LVL156:
 1002 0000 38B5     		push	{r3, r4, r5, lr}
 1003              		.cfi_def_cfa_offset 16
 1004              		.cfi_offset 3, -16
 1005              		.cfi_offset 4, -12
 1006              		.cfi_offset 5, -8
 1007              		.cfi_offset 14, -4
 1008 0002 041C     		mov	r4, r0
 1009              	.LVL157:
 584:.\main.c      ****     uint32 rxcounter=0;
 585:.\main.c      ****     uint8 c;
 586:.\main.c      ****     
 587:.\main.c      ****     SetTimeout(timeout);
 1010              		.loc 1 587 0
 1011 0004 081C     		mov	r0, r1
 1012              	.LVL158:
 1013 0006 FFF7FEFF 		bl	SetTimeout
 1014              	.LVL159:
 584:.\main.c      ****     uint32 rxcounter=0;
 1015              		.loc 1 584 0
 1016 000a 0025     		mov	r5, #0
 1017              	.LVL160:
 1018              	.L64:
 588:.\main.c      ****     //CyGlobalIntEnable;
 589:.\main.c      ****     while(1)
 590:.\main.c      ****     {
 591:.\main.c      ****         c = UART_GetChar();
 1019              		.loc 1 591 0
 1020 000c FFF7FEFF 		bl	UART_GetChar
 1021              	.LVL161:
 592:.\main.c      ****         if(timeoutFlag) break;
 1022              		.loc 1 592 0
 1023 0010 084A     		ldr	r2, .L67
 1024 0012 1278     		ldrb	r2, [r2]
 1025 0014 002A     		cmp	r2, #0
 1026 0016 09D1     		bne	.L65
 593:.\main.c      ****         
 594:.\main.c      ****         if(c==0) continue;
 1027              		.loc 1 594 0
 1028 0018 0028     		cmp	r0, #0
 1029 001a F7D0     		beq	.L64
 595:.\main.c      ****         if(c=='\n') break;
 1030              		.loc 1 595 0
 1031 001c 0A28     		cmp	r0, #10
 1032 001e 05D0     		beq	.L65
 596:.\main.c      ****         if(c=='\r') continue;
 1033              		.loc 1 596 0
ARM GAS  C:\Users\Svilen\AppData\Local\Temp\ccuaxGpF.s 			page 30


 1034 0020 0D28     		cmp	r0, #13
 1035 0022 F3D0     		beq	.L64
 597:.\main.c      ****         
 598:.\main.c      ****         *line = c;
 1036              		.loc 1 598 0
 1037 0024 2070     		strb	r0, [r4]
 599:.\main.c      ****         line++;
 1038              		.loc 1 599 0
 1039 0026 0134     		add	r4, r4, #1
 1040              	.LVL162:
 600:.\main.c      ****         rxcounter++;
 1041              		.loc 1 600 0
 1042 0028 0135     		add	r5, r5, #1
 1043              	.LVL163:
 1044 002a EFE7     		b	.L64
 1045              	.L65:
 601:.\main.c      ****     }
 602:.\main.c      ****     *line = 0;
 1046              		.loc 1 602 0
 1047 002c 0023     		mov	r3, #0
 1048 002e 2370     		strb	r3, [r4]
 603:.\main.c      ****     //CyGlobalIntDisable;
 604:.\main.c      ****     return rxcounter;
 605:.\main.c      **** }
 1049              		.loc 1 605 0
 1050 0030 281C     		mov	r0, r5
 1051              	.LVL164:
 1052              		@ sp needed
 1053              	.LVL165:
 1054              	.LVL166:
 1055 0032 38BD     		pop	{r3, r4, r5, pc}
 1056              	.L68:
 1057              		.align	2
 1058              	.L67:
 1059 0034 00000000 		.word	timeoutFlag
 1060              		.cfi_endproc
 1061              	.LFE46:
 1062              		.size	UartReadLine, .-UartReadLine
 1063              		.section	.text.TX20_Read,"ax",%progbits
 1064              		.align	2
 1065              		.global	TX20_Read
 1066              		.code	16
 1067              		.thumb_func
 1068              		.type	TX20_Read, %function
 1069              	TX20_Read:
 1070              	.LFB47:
 606:.\main.c      **** 
 607:.\main.c      **** uint8 TX20_Read()
 608:.\main.c      **** {
 1071              		.loc 1 608 0
 1072              		.cfi_startproc
 1073 0000 F0B5     		push	{r4, r5, r6, r7, lr}
 1074              		.cfi_def_cfa_offset 20
 1075              		.cfi_offset 4, -20
 1076              		.cfi_offset 5, -16
 1077              		.cfi_offset 6, -12
 1078              		.cfi_offset 7, -8
ARM GAS  C:\Users\Svilen\AppData\Local\Temp\ccuaxGpF.s 			page 31


 1079              		.cfi_offset 14, -4
 1080 0002 5F46     		mov	r7, fp
 1081 0004 5646     		mov	r6, r10
 1082 0006 4D46     		mov	r5, r9
 1083 0008 4446     		mov	r4, r8
 1084 000a F0B4     		push	{r4, r5, r6, r7}
 1085              		.cfi_def_cfa_offset 36
 1086              		.cfi_offset 8, -36
 1087              		.cfi_offset 9, -32
 1088              		.cfi_offset 10, -28
 1089              		.cfi_offset 11, -24
 1090 000c 83B0     		sub	sp, sp, #12
 1091              		.cfi_def_cfa_offset 48
 609:.\main.c      ****     /*
 610:.\main.c      ****     –ü—Ä–æ—á–∏—Ç–∞ —Å–µ–Ω–∑–æ—Ä–∞ –∑–∞ —Å–∏–ª–∞ –∏ –ø–æ—Å–æ–∫–∞ –Ω–∞ –≤—è—Ç—ä—Ä–∞. –°–µ–Ω–∑–æ—Ä–∞ –
 611:.\main.c      ****     –í—Ä–µ–º–µ—Ç–æ –∑–∞ –µ–¥–∏–Ω –±–∏—Ç –µ 1.22ms . –ë–∏—Ç–æ–≤–µ—Ç–µ —Å–∞ –∏–Ω–≤–µ—Ä—Ç–∏—Ä–∞–Ω–∏. –
 612:.\main.c      ****     https://www.esp8266.com/viewtopic.php?f=32&t=10246
 613:.\main.c      ****     https://www.john.geek.nz/2011/07/la-crosse-tx20-anemometer-communication-protocol/ !!!!!
 614:.\main.c      ****     http://blog.bubux.de/windsensor-tx20-mit-esp8266/    
 615:.\main.c      ****     
 616:.\main.c      ****     —Ñ—É–Ω–∫—Ü–∏—è—Ç–∞ –≤—Ä—ä—â–∞ 0 –∞–∫–æ –µ –æ–∫. –¢–æ–≥–∞–≤–∞ –ø—Ä–æ—á–µ—Ç–µ–Ω–∏—Ç–µ —Å—Ç–æ–π–Ω–
 617:.\main.c      ****     –≤—Ä—ä—â–∞ 1 –∞–∫–æ –Ω—è–º–∞ –æ—Ç–≥–æ–≤–æ—Ä –æ—Ç —Å–µ–Ω–∑–æ—Ä–∞
 618:.\main.c      ****     –≤—Ä—ä—â–∞ 2 –∞–∫–æ –ª–∏–Ω–∏—è—Ç–∞ –∑–∞ –¥–∞–Ω–Ω–∏ –µ –≤ 1 –ø—Ä–µ–¥–∏ –¥–∞ –µ –ø–æ–¥–∞–¥–µ–Ω Ch
 619:.\main.c      ****     –≤—Ä—ä—â–∞ 3 –ø—Ä–∏ –≥—Ä–µ—à–∫–∞ –≤ –¥–∞–Ω–Ω–∏—Ç–µ - start of frame, –∏–Ω–≤–µ—Ä—Ç–∏—Ä–∞–Ω–∏ —Å—
 620:.\main.c      ****     –≤—Ä—ä—â–∞ 4 –ø—Ä–∏  –∫–æ–Ω—Ç—Ä–æ–ª–∞–Ω–∞ —Å—É–º–∞
 621:.\main.c      ****     */    
 622:.\main.c      ****     uint16 divFor1kHz, speed1, speed2, mask16;
 623:.\main.c      ****     uint8 frameStart, dir1, dir2, chkSum, chkSumCalc,  n, mask8;
 624:.\main.c      **** 
 625:.\main.c      ****     //–ß–∞–∫–∞ —Å–µ –Ω–∞—á–∞–ª–æ –Ω–∞ –¥–∞–Ω–Ω–∏ –æ—Ç –≤–µ—Ç—Ä–æ–º–µ—Ä–∞ (–ø—Ä–µ–¥–µ–Ω —Ñ—Ä–æ–Ω—Ç)
 626:.\main.c      ****     if(PinWindRX_Read()) return 2; //–ì–†–ï–®–ö–ê - –ª–∏–Ω–∏—è—Ç–∞ –µ –≤ 1 –ø—Ä–µ–¥–∏ Chip Enable
 1092              		.loc 1 626 0
 1093 000e FFF7FEFF 		bl	PinWindRX_Read
 1094              	.LVL167:
 1095 0012 041E     		sub	r4, r0, #0
 1096 0014 00D0     		beq	.LCB1091
 1097 0016 D1E0     		b	.L97	@long jump
 1098              	.LCB1091:
 627:.\main.c      ****     //–ü—Ä–∏ –ª–∏–ø—Å–∞ –Ω–∞ —Ç–∞–π–º–∞—É—Ç –¥–∞ —Å–µ –∏–∑–ª–∏–∑–∞ —Å –≥—Ä–µ—à–∫–∞ –∑–∞ –≤—Ä—ä–∑–∫–
 628:.\main.c      ****     SetTimeout(7000);
 1099              		.loc 1 628 0
 1100 0018 6F48     		ldr	r0, .L100
 1101 001a FFF7FEFF 		bl	SetTimeout
 1102              	.LVL168:
 629:.\main.c      ****     PinWindCE_Write(0);
 1103              		.loc 1 629 0
 1104 001e 0020     		mov	r0, #0
 1105 0020 FFF7FEFF 		bl	PinWindCE_Write
 1106              	.LVL169:
 630:.\main.c      ****     //CyGlobalIntEnable;        
 631:.\main.c      ****     while(PinWindRX_Read()==0)
 1107              		.loc 1 631 0
 1108 0024 08E0     		b	.L71
 1109              	.L72:
 632:.\main.c      ****     {
 633:.\main.c      ****         if(timeoutFlag)
 1110              		.loc 1 633 0
ARM GAS  C:\Users\Svilen\AppData\Local\Temp\ccuaxGpF.s 			page 32


 1111 0026 6D4B     		ldr	r3, .L100+4
 1112 0028 1B78     		ldrb	r3, [r3]
 1113 002a 002B     		cmp	r3, #0
 1114 002c 04D0     		beq	.L71
 634:.\main.c      ****         {
 635:.\main.c      ****             //–°–µ–Ω–∑–æ—Ä–∞ –Ω–µ –≤—Ä—ä—â–∞ –¥–∞–Ω–Ω–∏ - –≤—Ä—ä—â–∞ 1
 636:.\main.c      ****             PinWindCE_Write(1);
 1115              		.loc 1 636 0
 1116 002e 0120     		mov	r0, #1
 1117 0030 FFF7FEFF 		bl	PinWindCE_Write
 1118              	.LVL170:
 637:.\main.c      ****             return 1;
 1119              		.loc 1 637 0
 1120 0034 0124     		mov	r4, #1
 1121 0036 C6E0     		b	.L70
 1122              	.L71:
 631:.\main.c      ****     {
 1123              		.loc 1 631 0
 1124 0038 FFF7FEFF 		bl	PinWindRX_Read
 1125              	.LVL171:
 1126 003c 0028     		cmp	r0, #0
 1127 003e F2D0     		beq	.L72
 638:.\main.c      ****         }
 639:.\main.c      ****     }
 640:.\main.c      ****     //–ò–º–∞–º–µ –ø—Ä–µ–¥–µ–Ω —Ñ—Ä–æ–Ω—Ç
 641:.\main.c      ****     //–ü—Ä–æ–º–µ–Ω—è —Å–µ —á–µ—Å—Ç–æ—Ç–∞—Ç–∞ –Ω–∞ ClockTO –æ—Ç 1kHz (–¢=1mS) –Ω–∞ 1MHz(T=1uS)
 642:.\main.c      ****     divFor1kHz = ClockTO_GetDividerRegister();
 1128              		.loc 1 642 0
 1129 0040 FFF7FEFF 		bl	ClockTO_GetDividerRegister
 1130              	.LVL172:
 1131 0044 0190     		str	r0, [sp, #4]
 1132              	.LVL173:
 643:.\main.c      ****     ClockTO_SetDivider(23);
 1133              		.loc 1 643 0
 1134 0046 1720     		mov	r0, #23
 1135 0048 0021     		mov	r1, #0
 1136 004a FFF7FEFF 		bl	ClockTO_SetFractionalDividerRegister
 1137              	.LVL174:
 644:.\main.c      **** 
 645:.\main.c      ****     //–ò–∑—á–∞–∫–≤–∞ —Å–µ 0.61–º—Å –∑–∞ –¥–∞ —Å–º–µ –Ω–∞ —Å—Ä–µ–¥–∞—Ç–∞ –Ω–∞ –ø—ä—Ä–≤–∏—è –±–∏—Ç.
 646:.\main.c      ****     SetTimeout(600); // 0.61 ms
 1138              		.loc 1 646 0
 1139 004e 9620     		mov	r0, #150
 1140 0050 8000     		lsl	r0, r0, #2
 1141 0052 FFF7FEFF 		bl	SetTimeout
 1142              	.LVL175:
 1143              	.L73:
 647:.\main.c      ****     while(timeoutFlag==0);
 1144              		.loc 1 647 0 discriminator 1
 1145 0056 614B     		ldr	r3, .L100+4
 1146 0058 1B78     		ldrb	r3, [r3]
 1147 005a 002B     		cmp	r3, #0
 1148 005c FBD0     		beq	.L73
 1149 005e 0025     		mov	r5, #0
 1150 0060 0BE0     		b	.L74
 1151              	.LVL176:
 1152              	.L76:
ARM GAS  C:\Users\Svilen\AppData\Local\Temp\ccuaxGpF.s 			page 33


 648:.\main.c      ****     //–ü—Ä–∏–µ–º–∞—Ç —Å–µ –ø—ä—Ä–≤–∏—Ç–µ 5 –±–∏—Ç–∞ - Start of Frame. –í–∏–Ω–∞–≥–∏ —Å–∞ 00100
 649:.\main.c      ****     mask8=1;
 650:.\main.c      ****     frameStart=0;
 651:.\main.c      ****     for(n=0; n!=5 ; n++)
 652:.\main.c      ****     {
 653:.\main.c      ****         if(PinWindRX_Read()==0)   frameStart |= mask8;
 1153              		.loc 1 653 0
 1154 0062 FFF7FEFF 		bl	PinWindRX_Read
 1155              	.LVL177:
 654:.\main.c      ****         mask8=mask8<<1;
 655:.\main.c      ****         SetTimeout(1200); // 1.22 ms
 1156              		.loc 1 655 0
 1157 0066 9620     		mov	r0, #150
 1158 0068 C000     		lsl	r0, r0, #3
 1159 006a FFF7FEFF 		bl	SetTimeout
 1160              	.LVL178:
 1161              	.L75:
 656:.\main.c      ****         while(timeoutFlag==0);        
 1162              		.loc 1 656 0 discriminator 1
 1163 006e 5B4B     		ldr	r3, .L100+4
 1164 0070 1B78     		ldrb	r3, [r3]
 1165 0072 002B     		cmp	r3, #0
 1166 0074 FBD0     		beq	.L75
 651:.\main.c      ****     {
 1167              		.loc 1 651 0 discriminator 2
 1168 0076 0135     		add	r5, r5, #1
 1169              	.LVL179:
 1170 0078 EDB2     		uxtb	r5, r5
 1171              	.LVL180:
 1172              	.L74:
 651:.\main.c      ****     {
 1173              		.loc 1 651 0 is_stmt 0 discriminator 1
 1174 007a 052D     		cmp	r5, #5
 1175 007c F1D1     		bne	.L76
 1176 007e 0126     		mov	r6, #1
 1177 0080 0025     		mov	r5, #0
 1178              	.LVL181:
 1179 0082 0023     		mov	r3, #0
 1180 0084 9946     		mov	r9, r3
 1181 0086 12E0     		b	.L77
 1182              	.LVL182:
 1183              	.L80:
 657:.\main.c      ****     }
 658:.\main.c      ****     // –ü—Ä–∏–µ–º–∞—Ç —Å–µ 4 –±–∏—Ç–∞ –∑–∞ –ø–æ—Å–æ–∫–∞ –Ω—è –≤—è—Ç—ä—Ä–∞. –ü—ä—Ä–≤–æ –ø—Ä–∏—Å—Ç–∏–
 659:.\main.c      ****     mask8=1;
 660:.\main.c      ****     dir1=0;
 661:.\main.c      ****     for(n=0; n!=4 ; n++)
 662:.\main.c      ****     {
 663:.\main.c      ****         if(PinWindRX_Read()==0)   dir1 |= mask8;
 1184              		.loc 1 663 0 is_stmt 1
 1185 0088 FFF7FEFF 		bl	PinWindRX_Read
 1186              	.LVL183:
 1187 008c 0028     		cmp	r0, #0
 1188 008e 02D1     		bne	.L78
 1189              		.loc 1 663 0 is_stmt 0 discriminator 1
 1190 0090 4B46     		mov	r3, r9
 1191 0092 3343     		orr	r3, r6
ARM GAS  C:\Users\Svilen\AppData\Local\Temp\ccuaxGpF.s 			page 34


 1192 0094 9946     		mov	r9, r3
 1193              	.LVL184:
 1194              	.L78:
 664:.\main.c      ****         mask8=mask8<<1;
 1195              		.loc 1 664 0 is_stmt 1
 1196 0096 7600     		lsl	r6, r6, #1
 1197              	.LVL185:
 1198 0098 F6B2     		uxtb	r6, r6
 1199              	.LVL186:
 665:.\main.c      ****         SetTimeout(1200); // 1.22 ms
 1200              		.loc 1 665 0
 1201 009a 9620     		mov	r0, #150
 1202 009c C000     		lsl	r0, r0, #3
 1203 009e FFF7FEFF 		bl	SetTimeout
 1204              	.LVL187:
 1205              	.L79:
 666:.\main.c      ****         while(timeoutFlag==0);        
 1206              		.loc 1 666 0 discriminator 1
 1207 00a2 4E4B     		ldr	r3, .L100+4
 1208 00a4 1B78     		ldrb	r3, [r3]
 1209 00a6 002B     		cmp	r3, #0
 1210 00a8 FBD0     		beq	.L79
 661:.\main.c      ****     {
 1211              		.loc 1 661 0 discriminator 2
 1212 00aa 0135     		add	r5, r5, #1
 1213              	.LVL188:
 1214 00ac EDB2     		uxtb	r5, r5
 1215              	.LVL189:
 1216              	.L77:
 661:.\main.c      ****     {
 1217              		.loc 1 661 0 is_stmt 0 discriminator 1
 1218 00ae 042D     		cmp	r5, #4
 1219 00b0 EAD1     		bne	.L80
 1220 00b2 0025     		mov	r5, #0
 1221              	.LVL190:
 1222 00b4 0126     		mov	r6, #1
 1223              	.LVL191:
 1224 00b6 0027     		mov	r7, #0
 1225 00b8 10E0     		b	.L81
 1226              	.LVL192:
 1227              	.L84:
 667:.\main.c      ****     }
 668:.\main.c      ****     //–ü—Ä–∏–µ–º–∞—Ç —Å–µ 12 –±–∏—Ç–∞ –∑–∞ —Å–∫–æ—Ä–æ—Å—Ç –Ω–∞ –≤—è—Ç—ä—Ä–∞.
 669:.\main.c      ****     //–°—Ç–∞—Ä—à–∏—Ç–µ 3 –±–∏—Ç–∞ —Å–∞ –≤–∏–Ω–∞–≥–∏ 0. –ü—Ä–∏–µ—Ç–∞—Ç–∞ —Å—Ç–æ–π–Ω–æ—Å—Ç –µ –≤ 0.1 
 670:.\main.c      ****     mask16=1;
 671:.\main.c      ****     speed1=0;
 672:.\main.c      ****     for(n=0; n!=12 ; n++)
 673:.\main.c      ****     {
 674:.\main.c      ****         if(PinWindRX_Read()==0)   speed1 |= mask16;
 1228              		.loc 1 674 0 is_stmt 1
 1229 00ba FFF7FEFF 		bl	PinWindRX_Read
 1230              	.LVL193:
 1231 00be 0028     		cmp	r0, #0
 1232 00c0 00D1     		bne	.L82
 1233              		.loc 1 674 0 is_stmt 0 discriminator 1
 1234 00c2 3743     		orr	r7, r6
 1235              	.LVL194:
ARM GAS  C:\Users\Svilen\AppData\Local\Temp\ccuaxGpF.s 			page 35


 1236              	.L82:
 675:.\main.c      ****         mask16=mask16<<1;
 1237              		.loc 1 675 0 is_stmt 1
 1238 00c4 7600     		lsl	r6, r6, #1
 1239              	.LVL195:
 1240 00c6 B6B2     		uxth	r6, r6
 1241              	.LVL196:
 676:.\main.c      ****         SetTimeout(1200); // 1.22 ms
 1242              		.loc 1 676 0
 1243 00c8 9620     		mov	r0, #150
 1244 00ca C000     		lsl	r0, r0, #3
 1245 00cc FFF7FEFF 		bl	SetTimeout
 1246              	.LVL197:
 1247              	.L83:
 677:.\main.c      ****         while(timeoutFlag==0);        
 1248              		.loc 1 677 0 discriminator 1
 1249 00d0 424B     		ldr	r3, .L100+4
 1250 00d2 1B78     		ldrb	r3, [r3]
 1251 00d4 002B     		cmp	r3, #0
 1252 00d6 FBD0     		beq	.L83
 672:.\main.c      ****     {
 1253              		.loc 1 672 0 discriminator 2
 1254 00d8 0135     		add	r5, r5, #1
 1255              	.LVL198:
 1256 00da EDB2     		uxtb	r5, r5
 1257              	.LVL199:
 1258              	.L81:
 672:.\main.c      ****     {
 1259              		.loc 1 672 0 is_stmt 0 discriminator 1
 1260 00dc 0C2D     		cmp	r5, #12
 1261 00de ECD1     		bne	.L84
 1262 00e0 0126     		mov	r6, #1
 1263              	.LVL200:
 1264 00e2 0025     		mov	r5, #0
 1265              	.LVL201:
 1266 00e4 0023     		mov	r3, #0
 1267 00e6 9A46     		mov	r10, r3
 1268 00e8 12E0     		b	.L85
 1269              	.LVL202:
 1270              	.L88:
 678:.\main.c      ****     }
 679:.\main.c      ****     // –ü—Ä–∏–µ–º–∞—Ç —Å–µ 4 –±–∏—Ç–∞ –∑–∞ –∫–æ–Ω—Ç—Ä–æ–ª–Ω–∞ —Å—É–º–∞. 
 680:.\main.c      ****     mask8=1;
 681:.\main.c      ****     chkSum=0;
 682:.\main.c      ****     for(n=0; n!=4 ; n++)
 683:.\main.c      ****     {
 684:.\main.c      ****         if(PinWindRX_Read()==0)   chkSum |= mask8;
 1271              		.loc 1 684 0 is_stmt 1
 1272 00ea FFF7FEFF 		bl	PinWindRX_Read
 1273              	.LVL203:
 1274 00ee 0028     		cmp	r0, #0
 1275 00f0 02D1     		bne	.L86
 1276              		.loc 1 684 0 is_stmt 0 discriminator 1
 1277 00f2 5346     		mov	r3, r10
 1278 00f4 3343     		orr	r3, r6
 1279 00f6 9A46     		mov	r10, r3
 1280              	.LVL204:
ARM GAS  C:\Users\Svilen\AppData\Local\Temp\ccuaxGpF.s 			page 36


 1281              	.L86:
 685:.\main.c      ****         mask8=mask8<<1;
 1282              		.loc 1 685 0 is_stmt 1
 1283 00f8 7600     		lsl	r6, r6, #1
 1284              	.LVL205:
 1285 00fa F6B2     		uxtb	r6, r6
 1286              	.LVL206:
 686:.\main.c      ****         SetTimeout(1200); // 1.22 ms
 1287              		.loc 1 686 0
 1288 00fc 9620     		mov	r0, #150
 1289 00fe C000     		lsl	r0, r0, #3
 1290 0100 FFF7FEFF 		bl	SetTimeout
 1291              	.LVL207:
 1292              	.L87:
 687:.\main.c      ****         while(timeoutFlag==0);        
 1293              		.loc 1 687 0 discriminator 1
 1294 0104 354B     		ldr	r3, .L100+4
 1295 0106 1B78     		ldrb	r3, [r3]
 1296 0108 002B     		cmp	r3, #0
 1297 010a FBD0     		beq	.L87
 682:.\main.c      ****     {
 1298              		.loc 1 682 0 discriminator 2
 1299 010c 0135     		add	r5, r5, #1
 1300              	.LVL208:
 1301 010e EDB2     		uxtb	r5, r5
 1302              	.LVL209:
 1303              	.L85:
 682:.\main.c      ****     {
 1304              		.loc 1 682 0 is_stmt 0 discriminator 1
 1305 0110 042D     		cmp	r5, #4
 1306 0112 EAD1     		bne	.L88
 1307 0114 0126     		mov	r6, #1
 1308              	.LVL210:
 1309 0116 0025     		mov	r5, #0
 1310              	.LVL211:
 1311 0118 0023     		mov	r3, #0
 1312 011a 9B46     		mov	fp, r3
 1313 011c 12E0     		b	.L89
 1314              	.LVL212:
 1315              	.L92:
 688:.\main.c      ****     }
 689:.\main.c      ****     // –ü—Ä–∏–µ–º–∞—Ç —Å–µ 4 –±–∏—Ç–∞ –∑–∞ –ø–æ—Å–æ–∫–∞ –Ω—è –≤—è—Ç—ä—Ä–∞, –∏–Ω–≤–µ—Ä—Ç–∏—Ç–∞–Ω–∏. 
 690:.\main.c      ****     mask8=1;
 691:.\main.c      ****     dir2=0;
 692:.\main.c      ****     for(n=0; n!=4 ; n++)
 693:.\main.c      ****     {
 694:.\main.c      ****         if(PinWindRX_Read()==1)   dir2 |= mask8;
 1316              		.loc 1 694 0 is_stmt 1
 1317 011e FFF7FEFF 		bl	PinWindRX_Read
 1318              	.LVL213:
 1319 0122 0128     		cmp	r0, #1
 1320 0124 02D1     		bne	.L90
 1321              		.loc 1 694 0 is_stmt 0 discriminator 1
 1322 0126 5B46     		mov	r3, fp
 1323 0128 3343     		orr	r3, r6
 1324 012a 9B46     		mov	fp, r3
 1325              	.LVL214:
ARM GAS  C:\Users\Svilen\AppData\Local\Temp\ccuaxGpF.s 			page 37


 1326              	.L90:
 695:.\main.c      ****         mask8=mask8<<1;
 1327              		.loc 1 695 0 is_stmt 1
 1328 012c 7600     		lsl	r6, r6, #1
 1329              	.LVL215:
 1330 012e F6B2     		uxtb	r6, r6
 1331              	.LVL216:
 696:.\main.c      ****         SetTimeout(1200); // 1.22 ms
 1332              		.loc 1 696 0
 1333 0130 9620     		mov	r0, #150
 1334 0132 C000     		lsl	r0, r0, #3
 1335 0134 FFF7FEFF 		bl	SetTimeout
 1336              	.LVL217:
 1337              	.L91:
 697:.\main.c      ****         while(timeoutFlag==0);        
 1338              		.loc 1 697 0 discriminator 1
 1339 0138 284B     		ldr	r3, .L100+4
 1340 013a 1B78     		ldrb	r3, [r3]
 1341 013c 002B     		cmp	r3, #0
 1342 013e FBD0     		beq	.L91
 692:.\main.c      ****     {
 1343              		.loc 1 692 0 discriminator 2
 1344 0140 0135     		add	r5, r5, #1
 1345              	.LVL218:
 1346 0142 EDB2     		uxtb	r5, r5
 1347              	.LVL219:
 1348              	.L89:
 692:.\main.c      ****     {
 1349              		.loc 1 692 0 is_stmt 0 discriminator 1
 1350 0144 042D     		cmp	r5, #4
 1351 0146 EAD1     		bne	.L92
 1352 0148 0025     		mov	r5, #0
 1353              	.LVL220:
 1354 014a 0126     		mov	r6, #1
 1355              	.LVL221:
 1356 014c 0023     		mov	r3, #0
 1357 014e 9846     		mov	r8, r3
 1358 0150 12E0     		b	.L93
 1359              	.LVL222:
 1360              	.L96:
 698:.\main.c      ****     }    
 699:.\main.c      ****     //–ü—Ä–∏–µ–º–∞—Ç —Å–µ 12 –±–∏—Ç–∞ –∑–∞ —Å–∫–æ—Ä–æ—Å—Ç –Ω–∞ –≤—è—Ç—ä—Ä–∞. –ü—ä—Ä–≤–æ –µ –Ω–∞–π-—
 700:.\main.c      ****     //–°—Ç–∞—Ä—à–∏—Ç–µ 3 –±–∏—Ç–∞ —Å–∞ –≤–∏–Ω–∞–≥–∏ 0. –ü—Ä–∏–µ—Ç–∞—Ç–∞ —Å—Ç–æ–π–Ω–æ—Å—Ç –µ –≤ 0.1 
 701:.\main.c      ****     mask16=1;
 702:.\main.c      ****     speed2=0;
 703:.\main.c      ****     for(n=0; n!=12 ; n++)
 704:.\main.c      ****     {
 705:.\main.c      ****         if(PinWindRX_Read()==1)   speed2 |= mask16;
 1361              		.loc 1 705 0 is_stmt 1
 1362 0152 FFF7FEFF 		bl	PinWindRX_Read
 1363              	.LVL223:
 1364 0156 0128     		cmp	r0, #1
 1365 0158 02D1     		bne	.L94
 1366              		.loc 1 705 0 is_stmt 0 discriminator 1
 1367 015a 4346     		mov	r3, r8
 1368 015c 3343     		orr	r3, r6
 1369 015e 9846     		mov	r8, r3
ARM GAS  C:\Users\Svilen\AppData\Local\Temp\ccuaxGpF.s 			page 38


 1370              	.LVL224:
 1371              	.L94:
 706:.\main.c      ****         mask16=mask16<<1;
 1372              		.loc 1 706 0 is_stmt 1
 1373 0160 7600     		lsl	r6, r6, #1
 1374              	.LVL225:
 1375 0162 B6B2     		uxth	r6, r6
 1376              	.LVL226:
 707:.\main.c      ****         SetTimeout(1200); // 1.22 ms
 1377              		.loc 1 707 0
 1378 0164 9620     		mov	r0, #150
 1379 0166 C000     		lsl	r0, r0, #3
 1380 0168 FFF7FEFF 		bl	SetTimeout
 1381              	.LVL227:
 1382              	.L95:
 708:.\main.c      ****         while(timeoutFlag==0);        
 1383              		.loc 1 708 0 discriminator 1
 1384 016c 1B4B     		ldr	r3, .L100+4
 1385 016e 1B78     		ldrb	r3, [r3]
 1386 0170 002B     		cmp	r3, #0
 1387 0172 FBD0     		beq	.L95
 703:.\main.c      ****     {
 1388              		.loc 1 703 0 discriminator 2
 1389 0174 0135     		add	r5, r5, #1
 1390              	.LVL228:
 1391 0176 EDB2     		uxtb	r5, r5
 1392              	.LVL229:
 1393              	.L93:
 703:.\main.c      ****     {
 1394              		.loc 1 703 0 is_stmt 0 discriminator 1
 1395 0178 0C2D     		cmp	r5, #12
 1396 017a EAD1     		bne	.L96
 709:.\main.c      ****     }
 710:.\main.c      ****     
 711:.\main.c      ****     //CyGlobalIntDisable;
 712:.\main.c      ****     PinWindCE_Write(1);
 1397              		.loc 1 712 0 is_stmt 1
 1398 017c 0120     		mov	r0, #1
 1399 017e FFF7FEFF 		bl	PinWindCE_Write
 1400              	.LVL230:
 713:.\main.c      ****     windDirection = dir1;
 1401              		.loc 1 713 0
 1402 0182 174B     		ldr	r3, .L100+8
 1403 0184 4A46     		mov	r2, r9
 1404 0186 1A80     		strh	r2, [r3]
 714:.\main.c      ****     windSpeed = speed1;    
 1405              		.loc 1 714 0
 1406 0188 164B     		ldr	r3, .L100+12
 1407 018a 1F80     		strh	r7, [r3]
 715:.\main.c      ****     //–í—Ä—ä—â–∞ —Å–µ —á–µ—Å—Ç–æ—Ç–∞—Ç–∞ –Ω–∞ 1kHZ
 716:.\main.c      ****     ClockTO_SetDivider(divFor1kHz);    
 1408              		.loc 1 716 0
 1409 018c 0198     		ldr	r0, [sp, #4]
 1410 018e 0021     		mov	r1, #0
 1411 0190 FFF7FEFF 		bl	ClockTO_SetFractionalDividerRegister
 1412              	.LVL231:
 717:.\main.c      ****     //–ü—Ä–æ–≤–µ—Ä–∫–∏    
ARM GAS  C:\Users\Svilen\AppData\Local\Temp\ccuaxGpF.s 			page 39


 718:.\main.c      ****     if((dir1!=dir2) || (speed1!=speed2)) return 3;
 1413              		.loc 1 718 0
 1414 0194 D945     		cmp	r9, fp
 1415 0196 13D1     		bne	.L98
 1416              		.loc 1 718 0 is_stmt 0 discriminator 2
 1417 0198 4745     		cmp	r7, r8
 1418 019a 13D1     		bne	.L99
 719:.\main.c      ****     chkSumCalc = dir1 + (speed1&0x0F) + ((speed1>>4)&0x0F) + ((speed1>>8)&0x0F);
 1419              		.loc 1 719 0 is_stmt 1
 1420 019c 0F22     		mov	r2, #15
 1421 019e 131C     		mov	r3, r2
 1422 01a0 3B40     		and	r3, r7
 1423 01a2 4B44     		add	r3, r3, r9
 1424 01a4 191C     		mov	r1, r3
 1425 01a6 3B09     		lsr	r3, r7, #4
 1426 01a8 1340     		and	r3, r2
 1427 01aa CB18     		add	r3, r1, r3
 1428 01ac 3F0A     		lsr	r7, r7, #8
 1429              	.LVL232:
 1430 01ae 1740     		and	r7, r2
 1431 01b0 DB19     		add	r3, r3, r7
 1432              	.LVL233:
 720:.\main.c      ****     chkSumCalc &= 0x0F;
 1433              		.loc 1 720 0
 1434 01b2 1340     		and	r3, r2
 1435              	.LVL234:
 721:.\main.c      ****     if(chkSum!=chkSumCalc) return 4;
 1436              		.loc 1 721 0
 1437 01b4 9A45     		cmp	r10, r3
 1438 01b6 06D0     		beq	.L70
 1439 01b8 0424     		mov	r4, #4
 1440 01ba 04E0     		b	.L70
 1441              	.LVL235:
 1442              	.L97:
 626:.\main.c      ****     //–ü—Ä–∏ –ª–∏–ø—Å–∞ –Ω–∞ —Ç–∞–π–º–∞—É—Ç –¥–∞ —Å–µ –∏–∑–ª–∏–∑–∞ —Å –≥—Ä–µ—à–∫–∞ –∑–∞ –≤—Ä—ä–∑–∫–
 1443              		.loc 1 626 0
 1444 01bc 0224     		mov	r4, #2
 1445 01be 02E0     		b	.L70
 1446              	.LVL236:
 1447              	.L98:
 718:.\main.c      ****     chkSumCalc = dir1 + (speed1&0x0F) + ((speed1>>4)&0x0F) + ((speed1>>8)&0x0F);
 1448              		.loc 1 718 0
 1449 01c0 0324     		mov	r4, #3
 1450 01c2 00E0     		b	.L70
 1451              	.L99:
 1452 01c4 0324     		mov	r4, #3
 1453              	.LVL237:
 1454              	.L70:
 722:.\main.c      ****     
 723:.\main.c      ****     return 0;
 724:.\main.c      **** }
 1455              		.loc 1 724 0
 1456 01c6 201C     		mov	r0, r4
 1457 01c8 03B0     		add	sp, sp, #12
 1458              		@ sp needed
 1459 01ca 3CBC     		pop	{r2, r3, r4, r5}
 1460 01cc 9046     		mov	r8, r2
ARM GAS  C:\Users\Svilen\AppData\Local\Temp\ccuaxGpF.s 			page 40


 1461 01ce 9946     		mov	r9, r3
 1462 01d0 A246     		mov	r10, r4
 1463 01d2 AB46     		mov	fp, r5
 1464 01d4 F0BD     		pop	{r4, r5, r6, r7, pc}
 1465              	.L101:
 1466 01d6 C046     		.align	2
 1467              	.L100:
 1468 01d8 581B0000 		.word	7000
 1469 01dc 00000000 		.word	timeoutFlag
 1470 01e0 00000000 		.word	windDirection
 1471 01e4 00000000 		.word	windSpeed
 1472              		.cfi_endproc
 1473              	.LFE47:
 1474              		.size	TX20_Read, .-TX20_Read
 1475              		.global	__aeabi_i2d
 1476              		.global	__aeabi_dmul
 1477              		.global	__aeabi_d2uiz
 1478              		.global	__aeabi_uidivmod
 1479              		.section	.text.main,"ax",%progbits
 1480              		.align	2
 1481              		.global	main
 1482              		.code	16
 1483              		.thumb_func
 1484              		.type	main, %function
 1485              	main:
 1486              	.LFB36:
  72:.\main.c      ****     char rxbuf[64];
 1487              		.loc 1 72 0
 1488              		.cfi_startproc
 1489 0000 30B5     		push	{r4, r5, lr}
 1490              		.cfi_def_cfa_offset 12
 1491              		.cfi_offset 4, -12
 1492              		.cfi_offset 5, -8
 1493              		.cfi_offset 14, -4
 1494 0002 E9B0     		sub	sp, sp, #420
 1495              		.cfi_def_cfa_offset 432
  85:.\main.c      ****     ADC_Start();
 1496              		.loc 1 85 0
 1497              	@ 85 ".\main.c" 1
 1498 0004 62B6     		CPSIE   i
 1499              	@ 0 "" 2
  86:.\main.c      ****     ADC_IRQ_Disable();
 1500              		.loc 1 86 0
 1501              		.code	16
 1502 0006 FFF7FEFF 		bl	ADC_Start
 1503              	.LVL238:
  87:.\main.c      ****     I2C_Start();
 1504              		.loc 1 87 0
 1505 000a FFF7FEFF 		bl	ADC_IRQ_Disable
 1506              	.LVL239:
  88:.\main.c      ****     UART_Start();
 1507              		.loc 1 88 0
 1508 000e FFF7FEFF 		bl	I2C_Start
 1509              	.LVL240:
  89:.\main.c      ****     UART_ClearRxBuffer();
 1510              		.loc 1 89 0
 1511 0012 FFF7FEFF 		bl	UART_Start
ARM GAS  C:\Users\Svilen\AppData\Local\Temp\ccuaxGpF.s 			page 41


 1512              	.LVL241:
  90:.\main.c      ****     Timeout_Start();
 1513              		.loc 1 90 0
 1514 0016 FFF7FEFF 		bl	UART_ClearRxBuffer
 1515              	.LVL242:
  91:.\main.c      ****     isr_Timeout_StartEx(TimeoutISR);
 1516              		.loc 1 91 0
 1517 001a FFF7FEFF 		bl	Timeout_Start
 1518              	.LVL243:
  92:.\main.c      ****     isr_Rain_StartEx(RainISR);
 1519              		.loc 1 92 0
 1520 001e EA48     		ldr	r0, .L131
 1521 0020 FFF7FEFF 		bl	isr_Timeout_StartEx
 1522              	.LVL244:
  93:.\main.c      ****     PinWindCE_Write(1);
 1523              		.loc 1 93 0
 1524 0024 E948     		ldr	r0, .L131+4
 1525 0026 FFF7FEFF 		bl	isr_Rain_StartEx
 1526              	.LVL245:
  94:.\main.c      ****     timeoutFlag=0;
 1527              		.loc 1 94 0
 1528 002a 0120     		mov	r0, #1
 1529 002c FFF7FEFF 		bl	PinWindCE_Write
 1530              	.LVL246:
  95:.\main.c      ****     LED_B_Write(1);
 1531              		.loc 1 95 0
 1532 0030 0024     		mov	r4, #0
 1533 0032 E74B     		ldr	r3, .L131+8
 1534 0034 1C70     		strb	r4, [r3]
  96:.\main.c      ****     LED_R_Write(0);
 1535              		.loc 1 96 0
 1536 0036 0120     		mov	r0, #1
 1537 0038 FFF7FEFF 		bl	LED_B_Write
 1538              	.LVL247:
  97:.\main.c      ****     LED_G_Write(1);
 1539              		.loc 1 97 0
 1540 003c 0020     		mov	r0, #0
 1541 003e FFF7FEFF 		bl	LED_R_Write
 1542              	.LVL248:
  98:.\main.c      ****     CyDelay(3000);
 1543              		.loc 1 98 0
 1544 0042 0120     		mov	r0, #1
 1545 0044 FFF7FEFF 		bl	LED_G_Write
 1546              	.LVL249:
  99:.\main.c      ****     
 1547              		.loc 1 99 0
 1548 0048 E248     		ldr	r0, .L131+12
 1549 004a FFF7FEFF 		bl	CyDelay
 1550              	.LVL250:
 101:.\main.c      ****     rainCounter=0;
 1551              		.loc 1 101 0
 1552 004e 09A8     		add	r0, sp, #36
 1553 0050 0021     		mov	r1, #0
 1554 0052 F022     		mov	r2, #240
 1555 0054 FFF7FEFF 		bl	memset
 1556              	.LVL251:
 102:.\main.c      ****        
ARM GAS  C:\Users\Svilen\AppData\Local\Temp\ccuaxGpF.s 			page 42


 1557              		.loc 1 102 0
 1558 0058 DF4B     		ldr	r3, .L131+16
 1559 005a 1C60     		str	r4, [r3]
 108:.\main.c      ****     long temp, pressure;
 1560              		.loc 1 108 0
 1561 005c FFF7FEFF 		bl	BMP180_ReadCalibrationCoefs
 1562              	.LVL252:
 1563              	.L103:
 139:.\main.c      ****             UART_PutString("ATE0\r\n"); //–≤–º–µ—Å—Ç–æ –ê–¢ –∫–æ–º–∞–Ω–¥–∞ —Å–ø–∏—Ä–∞–º –µ—Ö–æ—Ç–æ
 1564              		.loc 1 139 0
 1565 0060 FFF7FEFF 		bl	UART_ClearRxBuffer
 1566              	.LVL253:
 140:.\main.c      ****             UartReadLine(rxbuf,READ_LINE_TIMEOUT);            
 1567              		.loc 1 140 0
 1568 0064 DD48     		ldr	r0, .L131+20
 1569 0066 FFF7FEFF 		bl	UART_PutString
 1570              	.LVL254:
 141:.\main.c      ****             UartReadLine(rxbuf,READ_LINE_TIMEOUT);//OK,2
 1571              		.loc 1 141 0
 1572 006a FA24     		mov	r4, #250
 1573 006c A400     		lsl	r4, r4, #2
 1574 006e 58A8     		add	r0, sp, #352
 1575 0070 211C     		mov	r1, r4
 1576 0072 FFF7FEFF 		bl	UartReadLine
 1577              	.LVL255:
 142:.\main.c      ****             if(strcmp(rxbuf, "OK")==0)
 1578              		.loc 1 142 0
 1579 0076 58A8     		add	r0, sp, #352
 1580 0078 211C     		mov	r1, r4
 1581 007a FFF7FEFF 		bl	UartReadLine
 1582              	.LVL256:
 143:.\main.c      ****             {
 1583              		.loc 1 143 0
 1584 007e 58A8     		add	r0, sp, #352
 1585 0080 D749     		ldr	r1, .L131+24
 1586 0082 FFF7FEFF 		bl	strcmp
 1587              	.LVL257:
 1588 0086 0028     		cmp	r0, #0
 1589 0088 04D1     		bne	.L105
 145:.\main.c      ****                 break;
 1590              		.loc 1 145 0
 1591 008a 0130     		add	r0, r0, #1
 1592 008c FFF7FEFF 		bl	LED_R_Write
 1593              	.LVL258:
 161:.\main.c      ****         while(1)
 1594              		.loc 1 161 0
 1595 0090 0524     		mov	r4, #5
 1596 0092 15E0     		b	.L106
 1597              	.LVL259:
 1598              	.L105:
 148:.\main.c      ****             CyDelay(250);
 1599              		.loc 1 148 0
 1600 0094 0020     		mov	r0, #0
 1601 0096 FFF7FEFF 		bl	LED_R_Write
 1602              	.LVL260:
 149:.\main.c      ****             LED_R_Write(1);
 1603              		.loc 1 149 0
ARM GAS  C:\Users\Svilen\AppData\Local\Temp\ccuaxGpF.s 			page 43


 1604 009a FA20     		mov	r0, #250
 1605 009c FFF7FEFF 		bl	CyDelay
 1606              	.LVL261:
 150:.\main.c      ****             CyDelay(250);
 1607              		.loc 1 150 0
 1608 00a0 0120     		mov	r0, #1
 1609 00a2 FFF7FEFF 		bl	LED_R_Write
 1610              	.LVL262:
 151:.\main.c      ****             LED_R_Write(0);
 1611              		.loc 1 151 0
 1612 00a6 FA20     		mov	r0, #250
 1613 00a8 FFF7FEFF 		bl	CyDelay
 1614              	.LVL263:
 152:.\main.c      ****             CyDelay(250);
 1615              		.loc 1 152 0
 1616 00ac 0020     		mov	r0, #0
 1617 00ae FFF7FEFF 		bl	LED_R_Write
 1618              	.LVL264:
 153:.\main.c      ****             LED_R_Write(1);
 1619              		.loc 1 153 0
 1620 00b2 FA20     		mov	r0, #250
 1621 00b4 FFF7FEFF 		bl	CyDelay
 1622              	.LVL265:
 154:.\main.c      ****         }
 1623              		.loc 1 154 0
 1624 00b8 0120     		mov	r0, #1
 1625 00ba FFF7FEFF 		bl	LED_R_Write
 1626              	.LVL266:
 155:.\main.c      ****         
 1627              		.loc 1 155 0
 1628 00be CFE7     		b	.L103
 1629              	.L106:
 1630              	.LVL267:
 164:.\main.c      ****             UART_PutString("AT+CWJAP?\r\n");
 1631              		.loc 1 164 0
 1632 00c0 FFF7FEFF 		bl	UART_ClearRxBuffer
 1633              	.LVL268:
 165:.\main.c      ****             UartReadLine(rxbuf,READ_LINE_TIMEOUT);//+CWJAP:"Etherino","20:55:.........",11,-29     
 1634              		.loc 1 165 0
 1635 00c4 C748     		ldr	r0, .L131+28
 1636 00c6 FFF7FEFF 		bl	UART_PutString
 1637              	.LVL269:
 166:.\main.c      ****             if(strncmp(rxbuf, "+CWJAP:\"Etherino\"",17)==0)
 1638              		.loc 1 166 0
 1639 00ca 58A8     		add	r0, sp, #352
 1640 00cc FA21     		mov	r1, #250
 1641 00ce 8900     		lsl	r1, r1, #2
 1642 00d0 FFF7FEFF 		bl	UartReadLine
 1643              	.LVL270:
 167:.\main.c      ****             {
 1644              		.loc 1 167 0
 1645 00d4 58A8     		add	r0, sp, #352
 1646 00d6 C449     		ldr	r1, .L131+32
 1647 00d8 1122     		mov	r2, #17
 1648 00da FFF7FEFF 		bl	strncmp
 1649              	.LVL271:
 1650 00de 0028     		cmp	r0, #0
ARM GAS  C:\Users\Svilen\AppData\Local\Temp\ccuaxGpF.s 			page 44


 1651 00e0 20D1     		bne	.L107
 169:.\main.c      ****                 CyDelay(500);
 1652              		.loc 1 169 0
 1653 00e2 0130     		add	r0, r0, #1
 1654 00e4 FFF7FEFF 		bl	LED_R_Write
 1655              	.LVL272:
 170:.\main.c      ****                 break;
 1656              		.loc 1 170 0
 1657 00e8 FA20     		mov	r0, #250
 1658 00ea 4000     		lsl	r0, r0, #1
 1659 00ec FFF7FEFF 		bl	CyDelay
 1660              	.LVL273:
 183:.\main.c      ****         UART_ClearRxBuffer();
 1661              		.loc 1 183 0
 1662 00f0 0020     		mov	r0, #0
 1663 00f2 FFF7FEFF 		bl	LED_G_Write
 1664              	.LVL274:
 184:.\main.c      ****         UART_PutString("AT+CIFSR\r\n");
 1665              		.loc 1 184 0
 1666 00f6 FFF7FEFF 		bl	UART_ClearRxBuffer
 1667              	.LVL275:
 185:.\main.c      ****         UartReadLine(rxbuf,READ_LINE_TIMEOUT);
 1668              		.loc 1 185 0
 1669 00fa BC48     		ldr	r0, .L131+36
 1670 00fc FFF7FEFF 		bl	UART_PutString
 1671              	.LVL276:
 186:.\main.c      ****         UartReadLine(rxbuf,READ_LINE_TIMEOUT);
 1672              		.loc 1 186 0
 1673 0100 FA24     		mov	r4, #250
 1674              	.LVL277:
 1675 0102 A400     		lsl	r4, r4, #2
 1676 0104 58A8     		add	r0, sp, #352
 1677 0106 211C     		mov	r1, r4
 1678 0108 FFF7FEFF 		bl	UartReadLine
 1679              	.LVL278:
 187:.\main.c      ****         if(strncmp(rxbuf,"+CIFSR:STAMAC",13)==0)
 1680              		.loc 1 187 0
 1681 010c 58A8     		add	r0, sp, #352
 1682 010e 211C     		mov	r1, r4
 1683 0110 FFF7FEFF 		bl	UartReadLine
 1684              	.LVL279:
 188:.\main.c      ****         {
 1685              		.loc 1 188 0
 1686 0114 58A8     		add	r0, sp, #352
 1687 0116 B649     		ldr	r1, .L131+40
 1688 0118 0D22     		mov	r2, #13
 1689 011a FFF7FEFF 		bl	strncmp
 1690              	.LVL280:
 1691 011e 0028     		cmp	r0, #0
 1692 0120 1CD1     		bne	.L129
 1693 0122 12E0     		b	.L108
 1694              	.LVL281:
 1695              	.L107:
 173:.\main.c      ****             CyDelay(500);
 1696              		.loc 1 173 0
 1697 0124 0020     		mov	r0, #0
 1698 0126 FFF7FEFF 		bl	LED_R_Write
ARM GAS  C:\Users\Svilen\AppData\Local\Temp\ccuaxGpF.s 			page 45


 1699              	.LVL282:
 174:.\main.c      ****             LED_R_Write(1);
 1700              		.loc 1 174 0
 1701 012a FA25     		mov	r5, #250
 1702 012c 6D00     		lsl	r5, r5, #1
 1703 012e 281C     		mov	r0, r5
 1704 0130 FFF7FEFF 		bl	CyDelay
 1705              	.LVL283:
 175:.\main.c      ****             CyDelay(500);
 1706              		.loc 1 175 0
 1707 0134 0120     		mov	r0, #1
 1708 0136 FFF7FEFF 		bl	LED_R_Write
 1709              	.LVL284:
 176:.\main.c      ****             retry--;
 1710              		.loc 1 176 0
 1711 013a 281C     		mov	r0, r5
 1712 013c FFF7FEFF 		bl	CyDelay
 1713              	.LVL285:
 177:.\main.c      ****             if(retry==0) goto CheckAT;
 1714              		.loc 1 177 0
 1715 0140 013C     		sub	r4, r4, #1
 1716              	.LVL286:
 1717 0142 E4B2     		uxtb	r4, r4
 1718              	.LVL287:
 178:.\main.c      ****         }
 1719              		.loc 1 178 0
 1720 0144 002C     		cmp	r4, #0
 1721 0146 BBD1     		bne	.L106
 1722 0148 8AE7     		b	.L103
 1723              	.LVL288:
 1724              	.L108:
 190:.\main.c      ****             macid[8]=0;
 1725              		.loc 1 190 0
 1726 014a 45AC     		add	r4, sp, #276
 1727 014c 201C     		mov	r0, r4
 1728 014e 5EA9     		add	r1, sp, #376
 1729 0150 0822     		mov	r2, #8
 1730 0152 FFF7FEFF 		bl	strncpy
 1731              	.LVL289:
 191:.\main.c      ****         }
 1732              		.loc 1 191 0
 1733 0156 0023     		mov	r3, #0
 1734 0158 2372     		strb	r3, [r4, #8]
 1735 015a 06E0     		b	.L111
 1736              	.L129:
 193:.\main.c      ****         
 1737              		.loc 1 193 0
 1738 015c 45AB     		add	r3, sp, #276
 1739 015e A54A     		ldr	r2, .L131+44
 1740 0160 03CA     		ldmia	r2!, {r0, r1}
 1741 0162 03C3     		stmia	r3!, {r0, r1}
 1742 0164 191C     		mov	r1, r3
 1743 0166 1378     		ldrb	r3, [r2]
 1744 0168 0B70     		strb	r3, [r1]
 1745              	.L111:
 197:.\main.c      ****             //–¢—É–∫ –æ—Ç–Ω–æ–≤–æ —Å–ø–∏—Ä–∞–º –µ—Ö–æ—Ç–æ —Ç.–∫. —Å–ª–µ–¥ DEEP SLEEP —Å–µ –∞–∫—Ç–∏–
 1746              		.loc 1 197 0
ARM GAS  C:\Users\Svilen\AppData\Local\Temp\ccuaxGpF.s 			page 46


 1747 016a A348     		ldr	r0, .L131+48
 1748 016c FFF7FEFF 		bl	CyDelay
 1749              	.LVL290:
 199:.\main.c      ****             UART_PutString("ATE0\r\n"); //–≤–º–µ—Å—Ç–æ –ê–¢ –∫–æ–º–∞–Ω–¥–∞ —Å–ø–∏—Ä–∞–º –µ—Ö–æ—Ç–æ
 1750              		.loc 1 199 0
 1751 0170 FFF7FEFF 		bl	UART_ClearRxBuffer
 1752              	.LVL291:
 200:.\main.c      ****             UartReadLine(rxbuf,READ_LINE_TIMEOUT);            
 1753              		.loc 1 200 0
 1754 0174 9948     		ldr	r0, .L131+20
 1755 0176 FFF7FEFF 		bl	UART_PutString
 1756              	.LVL292:
 201:.\main.c      ****             UartReadLine(rxbuf,READ_LINE_TIMEOUT);//OK,2
 1757              		.loc 1 201 0
 1758 017a FA24     		mov	r4, #250
 1759 017c A400     		lsl	r4, r4, #2
 1760 017e 58A8     		add	r0, sp, #352
 1761 0180 211C     		mov	r1, r4
 1762 0182 FFF7FEFF 		bl	UartReadLine
 1763              	.LVL293:
 202:.\main.c      ****             CyDelay(200);
 1764              		.loc 1 202 0
 1765 0186 58A8     		add	r0, sp, #352
 1766 0188 211C     		mov	r1, r4
 1767 018a FFF7FEFF 		bl	UartReadLine
 1768              	.LVL294:
 203:.\main.c      ****             //–û—Ç–≤–∞—Ä—è–Ω–µ –Ω–∞ TCP/UDP –∫–æ–Ω–µ–∫—Ü–∏—è
 1769              		.loc 1 203 0
 1770 018e C820     		mov	r0, #200
 1771 0190 FFF7FEFF 		bl	CyDelay
 1772              	.LVL295:
 205:.\main.c      **** EstablishConnection:            
 1773              		.loc 1 205 0
 1774 0194 0325     		mov	r5, #3
 1775              	.L113:
 1776              	.LVL296:
 1777              	.L112:
 207:.\main.c      ****             /* 
 1778              		.loc 1 207 0
 1779 0196 FFF7FEFF 		bl	UART_ClearRxBuffer
 1780              	.LVL297:
 214:.\main.c      ****             n=3;
 1781              		.loc 1 214 0
 1782 019a 9848     		ldr	r0, .L131+52
 1783 019c FFF7FEFF 		bl	UART_PutString
 1784              	.LVL298:
 216:.\main.c      ****             while(UartReadLine(rxbuf,ESTABLISH_CONN_TIMEOUT)==0)
 1785              		.loc 1 216 0
 1786 01a0 0120     		mov	r0, #1
 1787 01a2 FFF7FEFF 		bl	LED_G_Write
 1788              	.LVL299:
 215:.\main.c      ****             LED_G_Write(1);
 1789              		.loc 1 215 0
 1790 01a6 0324     		mov	r4, #3
 217:.\main.c      ****             {
 1791              		.loc 1 217 0
 1792 01a8 0CE0     		b	.L114
ARM GAS  C:\Users\Svilen\AppData\Local\Temp\ccuaxGpF.s 			page 47


 1793              	.LVL300:
 1794              	.L115:
 219:.\main.c      ****                 if(n==0)
 1795              		.loc 1 219 0
 1796 01aa 013C     		sub	r4, r4, #1
 1797              	.LVL301:
 220:.\main.c      ****                 {
 1798              		.loc 1 220 0
 1799 01ac 002C     		cmp	r4, #0
 1800 01ae 09D1     		bne	.L114
 222:.\main.c      ****                     LED_B_Write(1);
 1801              		.loc 1 222 0
 1802 01b0 0120     		mov	r0, #1
 1803 01b2 FFF7FEFF 		bl	LED_G_Write
 1804              	.LVL302:
 223:.\main.c      ****                     LED_R_Write(0);
 1805              		.loc 1 223 0
 1806 01b6 0120     		mov	r0, #1
 1807 01b8 FFF7FEFF 		bl	LED_B_Write
 1808              	.LVL303:
 224:.\main.c      ****                     goto CheckAT;
 1809              		.loc 1 224 0
 1810 01bc 0020     		mov	r0, #0
 1811 01be FFF7FEFF 		bl	LED_R_Write
 1812              	.LVL304:
 225:.\main.c      ****                 }
 1813              		.loc 1 225 0
 1814 01c2 4DE7     		b	.L103
 1815              	.LVL305:
 1816              	.L114:
 217:.\main.c      ****             {
 1817              		.loc 1 217 0
 1818 01c4 58A8     		add	r0, sp, #352
 1819 01c6 8349     		ldr	r1, .L131+12
 1820 01c8 FFF7FEFF 		bl	UartReadLine
 1821              	.LVL306:
 1822 01cc 0028     		cmp	r0, #0
 1823 01ce ECD0     		beq	.L115
 231:.\main.c      ****             {
 1824              		.loc 1 231 0
 1825 01d0 58A8     		add	r0, sp, #352
 1826 01d2 8B49     		ldr	r1, .L131+56
 1827 01d4 0722     		mov	r2, #7
 1828 01d6 FFF7FEFF 		bl	strncmp
 1829              	.LVL307:
 1830 01da 0028     		cmp	r0, #0
 1831 01dc 00D0     		beq	.LCB1844
 1832 01de 35E1     		b	.L116	@long jump
 1833              	.LCB1844:
 233:.\main.c      ****                 UartReadLine(rxbuf,READ_LINE_TIMEOUT); //–û–ö
 1834              		.loc 1 233 0
 1835 01e0 FA24     		mov	r4, #250
 1836              	.LVL308:
 1837 01e2 A400     		lsl	r4, r4, #2
 1838 01e4 58A8     		add	r0, sp, #352
 1839 01e6 211C     		mov	r1, r4
 1840 01e8 FFF7FEFF 		bl	UartReadLine
ARM GAS  C:\Users\Svilen\AppData\Local\Temp\ccuaxGpF.s 			page 48


 1841              	.LVL309:
 234:.\main.c      ****                 LED_G_Write(1); //–ü–æ –≤—Ä–µ–º–µ –Ω–∞ –æ–±–º–µ–Ω —Å–≤–µ—Ç–∏ —Å–∏–Ω LED
 1842              		.loc 1 234 0
 1843 01ec 58A8     		add	r0, sp, #352
 1844 01ee 211C     		mov	r1, r4
 1845 01f0 FFF7FEFF 		bl	UartReadLine
 1846              	.LVL310:
 235:.\main.c      ****                 LED_R_Write(1);
 1847              		.loc 1 235 0
 1848 01f4 0120     		mov	r0, #1
 1849 01f6 FFF7FEFF 		bl	LED_G_Write
 1850              	.LVL311:
 236:.\main.c      ****                 LED_B_Write(0);
 1851              		.loc 1 236 0
 1852 01fa 0120     		mov	r0, #1
 1853 01fc FFF7FEFF 		bl	LED_R_Write
 1854              	.LVL312:
 237:.\main.c      ****                 //–ò–ó–ü–†–ê–©–ê–ù–ï –ù–ê –î–ê–ù–ù–ò –ö–™–ú –ö–û–ù–¶–ï–ù–¢–†–ê–¢–û–†–ê
 1855              		.loc 1 237 0
 1856 0200 0020     		mov	r0, #0
 1857 0202 FFF7FEFF 		bl	LED_B_Write
 1858              	.LVL313:
 239:.\main.c      ****                 //BMP180
 1859              		.loc 1 239 0
 1860 0206 09A8     		add	r0, sp, #36
 1861 0208 7E49     		ldr	r1, .L131+60
 1862 020a 45AA     		add	r2, sp, #276
 1863 020c FFF7FEFF 		bl	sprintf
 1864              	.LVL314:
 242:.\main.c      ****                 pressure = BMP180_ReadPresure(temp,3);
 1865              		.loc 1 242 0
 1866 0210 FFF7FEFF 		bl	BMP180_ReadTemperature
 1867              	.LVL315:
 1868 0214 041C     		mov	r4, r0
 1869              	.LVL316:
 243:.\main.c      ****                 sprintf(str,"BMP180: T=%2.0ld P=%4.0ldhPa\r\n", temp/10, pressure/100);            
 1870              		.loc 1 243 0
 1871 0216 0321     		mov	r1, #3
 1872 0218 FFF7FEFF 		bl	BMP180_ReadPresure
 1873              	.LVL317:
 1874 021c 051C     		mov	r5, r0
 1875              	.LVL318:
 244:.\main.c      ****                 strcat(txbuf,str);                
 1876              		.loc 1 244 0
 1877 021e 201C     		mov	r0, r4
 1878              	.LVL319:
 1879 0220 0A21     		mov	r1, #10
 1880 0222 FFF7FEFF 		bl	__aeabi_idiv
 1881              	.LVL320:
 1882 0226 041C     		mov	r4, r0
 1883              	.LVL321:
 1884 0228 281C     		mov	r0, r5
 1885 022a 6421     		mov	r1, #100
 1886 022c FFF7FEFF 		bl	__aeabi_idiv
 1887              	.LVL322:
 1888 0230 031C     		mov	r3, r0
 1889 0232 01A8     		add	r0, sp, #4
ARM GAS  C:\Users\Svilen\AppData\Local\Temp\ccuaxGpF.s 			page 49


 1890 0234 7449     		ldr	r1, .L131+64
 1891 0236 221C     		mov	r2, r4
 1892 0238 FFF7FEFF 		bl	sprintf
 1893              	.LVL323:
 245:.\main.c      **** #endif                
 1894              		.loc 1 245 0
 1895 023c 09A8     		add	r0, sp, #36
 1896 023e 01A9     		add	r1, sp, #4
 1897 0240 FFF7FEFF 		bl	strcat
 1898              	.LVL324:
 248:.\main.c      ****                 if(result!=0)
 1899              		.loc 1 248 0
 1900 0244 FFF7FEFF 		bl	AM2302_Read
 1901              	.LVL325:
 249:.\main.c      ****                 {
 1902              		.loc 1 249 0
 1903 0248 0028     		cmp	r0, #0
 1904 024a 04D0     		beq	.L117
 251:.\main.c      ****                     AM2302_Humidity = -1000;
 1905              		.loc 1 251 0
 1906 024c 6F4B     		ldr	r3, .L131+68
 1907 024e 704A     		ldr	r2, .L131+72
 1908 0250 1380     		strh	r3, [r2]
 252:.\main.c      ****                 }
 1909              		.loc 1 252 0
 1910 0252 704A     		ldr	r2, .L131+76
 1911 0254 1380     		strh	r3, [r2]
 1912              	.L117:
 254:.\main.c      ****                 strcat(txbuf, str);                
 1913              		.loc 1 254 0
 1914 0256 6E4B     		ldr	r3, .L131+72
 1915 0258 0020     		mov	r0, #0
 1916 025a 185E     		ldrsh	r0, [r3, r0]
 1917              	.LVL326:
 1918 025c 0A21     		mov	r1, #10
 1919 025e FFF7FEFF 		bl	__aeabi_idiv
 1920              	.LVL327:
 1921 0262 04B2     		sxth	r4, r0
 1922 0264 6B4B     		ldr	r3, .L131+76
 1923 0266 0020     		mov	r0, #0
 1924 0268 185E     		ldrsh	r0, [r3, r0]
 1925 026a 0A21     		mov	r1, #10
 1926 026c FFF7FEFF 		bl	__aeabi_idiv
 1927              	.LVL328:
 1928 0270 03B2     		sxth	r3, r0
 1929 0272 01A8     		add	r0, sp, #4
 1930 0274 6849     		ldr	r1, .L131+80
 1931 0276 221C     		mov	r2, r4
 1932 0278 FFF7FEFF 		bl	sprintf
 1933              	.LVL329:
 255:.\main.c      ****                 //TX20 - –≤—è—Ç—ä—Ä
 1934              		.loc 1 255 0
 1935 027c 09A8     		add	r0, sp, #36
 1936 027e 01A9     		add	r1, sp, #4
 1937 0280 FFF7FEFF 		bl	strcat
 1938              	.LVL330:
 258:.\main.c      ****                 if(result==0)  sprintf(str,"TX20: Dir=%d Speed=%d\r\n", windDirection, windSpeed);
ARM GAS  C:\Users\Svilen\AppData\Local\Temp\ccuaxGpF.s 			page 50


 1939              		.loc 1 258 0
 1940 0284 FFF7FEFF 		bl	TX20_Read
 1941              	.LVL331:
 259:.\main.c      ****                 else strcpy(str,"TX20: Dir=ERR Speed=ERR\r\n");
 1942              		.loc 1 259 0
 1943 0288 0028     		cmp	r0, #0
 1944 028a 08D1     		bne	.L118
 259:.\main.c      ****                 else strcpy(str,"TX20: Dir=ERR Speed=ERR\r\n");
 1945              		.loc 1 259 0 is_stmt 0 discriminator 1
 1946 028c 634B     		ldr	r3, .L131+84
 1947 028e 1A88     		ldrh	r2, [r3]
 1948 0290 634B     		ldr	r3, .L131+88
 1949 0292 1B88     		ldrh	r3, [r3]
 1950 0294 01A8     		add	r0, sp, #4
 1951              	.LVL332:
 1952 0296 6349     		ldr	r1, .L131+92
 1953 0298 FFF7FEFF 		bl	sprintf
 1954              	.LVL333:
 1955 029c 09E0     		b	.L119
 1956              	.LVL334:
 1957              	.L118:
 260:.\main.c      ****                 strcat(txbuf, str);                
 1958              		.loc 1 260 0 is_stmt 1
 1959 029e 01A9     		add	r1, sp, #4
 1960 02a0 6148     		ldr	r0, .L131+96
 1961              	.LVL335:
 1962 02a2 0B1C     		mov	r3, r1
 1963 02a4 021C     		mov	r2, r0
 1964 02a6 13CA     		ldmia	r2!, {r0, r1, r4}
 1965 02a8 13C3     		stmia	r3!, {r0, r1, r4}
 1966 02aa 13CA     		ldmia	r2!, {r0, r1, r4}
 1967 02ac 13C3     		stmia	r3!, {r0, r1, r4}
 1968 02ae 1288     		ldrh	r2, [r2]
 1969 02b0 1A80     		strh	r2, [r3]
 1970              	.L119:
 261:.\main.c      **** #endif                
 1971              		.loc 1 261 0
 1972 02b2 09A8     		add	r0, sp, #36
 1973 02b4 01A9     		add	r1, sp, #4
 1974 02b6 FFF7FEFF 		bl	strcat
 1975              	.LVL336:
 265:.\main.c      ****                 strcat(txbuf, str);
 1976              		.loc 1 265 0
 1977 02ba 474C     		ldr	r4, .L131+16
 1978 02bc 01A8     		add	r0, sp, #4
 1979 02be 5B49     		ldr	r1, .L131+100
 1980 02c0 2268     		ldr	r2, [r4]
 1981 02c2 FFF7FEFF 		bl	sprintf
 1982              	.LVL337:
 266:.\main.c      ****                 rainCounter=0;
 1983              		.loc 1 266 0
 1984 02c6 09A8     		add	r0, sp, #36
 1985 02c8 01A9     		add	r1, sp, #4
 1986 02ca FFF7FEFF 		bl	strcat
 1987              	.LVL338:
 267:.\main.c      **** #endif                
 1988              		.loc 1 267 0
ARM GAS  C:\Users\Svilen\AppData\Local\Temp\ccuaxGpF.s 			page 51


 1989 02ce 0023     		mov	r3, #0
 1990 02d0 2360     		str	r3, [r4]
 271:.\main.c      ****                 ADC_IsEndConversion(ADC_WAIT_FOR_RESULT);
 1991              		.loc 1 271 0
 1992 02d2 FFF7FEFF 		bl	ADC_StartConvert
 1993              	.LVL339:
 272:.\main.c      ****                 adc = ADC_GetResult16(CHN_ADC_UBAT );
 1994              		.loc 1 272 0
 1995 02d6 0220     		mov	r0, #2
 1996 02d8 FFF7FEFF 		bl	ADC_IsEndConversion
 1997              	.LVL340:
 273:.\main.c      ****                 mVolts = ADC_CountsTo_mVolts(CHN_ADC_UBAT, adc);
 1998              		.loc 1 273 0
 1999 02dc 0020     		mov	r0, #0
 2000 02de FFF7FEFF 		bl	ADC_GetResult16
 2001              	.LVL341:
 2002 02e2 011C     		mov	r1, r0
 2003              	.LVL342:
 274:.\main.c      ****                 uBat = mVolts * 16.0;
 2004              		.loc 1 274 0
 2005 02e4 0020     		mov	r0, #0
 2006 02e6 FFF7FEFF 		bl	ADC_CountsTo_mVolts
 2007              	.LVL343:
 275:.\main.c      ****                 sprintf(str,"Ubat: %d.%d V\r\n", uBat/1000, uBat%1000);                
 2008              		.loc 1 275 0
 2009 02ea FFF7FEFF 		bl	__aeabi_i2d
 2010              	.LVL344:
 2011 02ee 0022     		mov	r2, #0
 2012 02f0 4F4B     		ldr	r3, .L131+104
 2013 02f2 FFF7FEFF 		bl	__aeabi_dmul
 2014              	.LVL345:
 2015 02f6 FFF7FEFF 		bl	__aeabi_d2uiz
 2016              	.LVL346:
 2017 02fa 84B2     		uxth	r4, r0
 2018              	.LVL347:
 276:.\main.c      ****                 strcat(txbuf,str);                
 2019              		.loc 1 276 0
 2020 02fc 201C     		mov	r0, r4
 2021 02fe FA21     		mov	r1, #250
 2022 0300 8900     		lsl	r1, r1, #2
 2023 0302 FFF7FEFF 		bl	__aeabi_uidiv
 2024              	.LVL348:
 2025 0306 85B2     		uxth	r5, r0
 2026              	.LVL349:
 2027 0308 201C     		mov	r0, r4
 2028 030a FA21     		mov	r1, #250
 2029 030c 8900     		lsl	r1, r1, #2
 2030 030e FFF7FEFF 		bl	__aeabi_uidivmod
 2031              	.LVL350:
 2032 0312 8BB2     		uxth	r3, r1
 2033 0314 01A8     		add	r0, sp, #4
 2034 0316 4749     		ldr	r1, .L131+108
 2035 0318 2A1C     		mov	r2, r5
 2036 031a FFF7FEFF 		bl	sprintf
 2037              	.LVL351:
 277:.\main.c      **** #endif                
 2038              		.loc 1 277 0
ARM GAS  C:\Users\Svilen\AppData\Local\Temp\ccuaxGpF.s 			page 52


 2039 031e 09A8     		add	r0, sp, #36
 2040 0320 01A9     		add	r1, sp, #4
 2041 0322 FFF7FEFF 		bl	strcat
 2042              	.LVL352:
 280:.\main.c      ****                 UART_ClearRxBuffer();
 2043              		.loc 1 280 0
 2044 0326 09A8     		add	r0, sp, #36
 2045 0328 FFF7FEFF 		bl	strlen
 2046              	.LVL353:
 2047 032c 09AB     		add	r3, sp, #36
 2048 032e 9C46     		mov	ip, r3
 2049 0330 6044     		add	r0, r0, ip
 2050 0332 4149     		ldr	r1, .L131+112
 2051 0334 0622     		mov	r2, #6
 2052 0336 FFF7FEFF 		bl	memcpy
 2053              	.LVL354:
 281:.\main.c      ****                 sprintf(line,"AT+CIPSEND=%d\r\n",strlen(txbuf));
 2054              		.loc 1 281 0
 2055 033a FFF7FEFF 		bl	UART_ClearRxBuffer
 2056              	.LVL355:
 282:.\main.c      ****                 UART_PutString(line);
 2057              		.loc 1 282 0
 2058 033e 09A8     		add	r0, sp, #36
 2059 0340 FFF7FEFF 		bl	strlen
 2060              	.LVL356:
 2061 0344 021C     		mov	r2, r0
 2062 0346 48A8     		add	r0, sp, #288
 2063 0348 3C49     		ldr	r1, .L131+116
 2064 034a FFF7FEFF 		bl	sprintf
 2065              	.LVL357:
 283:.\main.c      ****                 UartReadLine(rxbuf,READ_LINE_TIMEOUT); //–ø—Ä–∞–∑–µ–Ω —Ä–µ–¥
 2066              		.loc 1 283 0
 2067 034e 48A8     		add	r0, sp, #288
 2068 0350 FFF7FEFF 		bl	UART_PutString
 2069              	.LVL358:
 284:.\main.c      ****                 UartReadLine(rxbuf,READ_LINE_TIMEOUT); //–û–ö
 2070              		.loc 1 284 0
 2071 0354 FA24     		mov	r4, #250
 2072              	.LVL359:
 2073 0356 A400     		lsl	r4, r4, #2
 2074 0358 58A8     		add	r0, sp, #352
 2075 035a 211C     		mov	r1, r4
 2076 035c FFF7FEFF 		bl	UartReadLine
 2077              	.LVL360:
 285:.\main.c      ****                 UartReadLine(rxbuf,READ_LINE_TIMEOUT); // > (–∫—É—Ä—Å–æ—Ä)
 2078              		.loc 1 285 0
 2079 0360 58A8     		add	r0, sp, #352
 2080 0362 211C     		mov	r1, r4
 2081 0364 FFF7FEFF 		bl	UartReadLine
 2082              	.LVL361:
 286:.\main.c      ****                 UART_PutString(txbuf);
 2083              		.loc 1 286 0
 2084 0368 58A8     		add	r0, sp, #352
 2085 036a 211C     		mov	r1, r4
 2086 036c FFF7FEFF 		bl	UartReadLine
 2087              	.LVL362:
 287:.\main.c      ****                 CyDelay(200);
ARM GAS  C:\Users\Svilen\AppData\Local\Temp\ccuaxGpF.s 			page 53


 2088              		.loc 1 287 0
 2089 0370 09A8     		add	r0, sp, #36
 2090 0372 FFF7FEFF 		bl	UART_PutString
 2091              	.LVL363:
 288:.\main.c      ****                
 2092              		.loc 1 288 0
 2093 0376 C820     		mov	r0, #200
 2094 0378 FFF7FEFF 		bl	CyDelay
 2095              	.LVL364:
 291:.\main.c      ****                 UART_PutString("AT+CIPCLOSE\r\n");
 2096              		.loc 1 291 0
 2097 037c FFF7FEFF 		bl	UART_ClearRxBuffer
 2098              	.LVL365:
 292:.\main.c      ****                 UartReadLine(rxbuf,READ_LINE_TIMEOUT); //–ø—Ä–∞–∑–µ–Ω —Ä–µ–¥
 2099              		.loc 1 292 0
 2100 0380 2F48     		ldr	r0, .L131+120
 2101 0382 FFF7FEFF 		bl	UART_PutString
 2102              	.LVL366:
 293:.\main.c      ****                 UartReadLine(rxbuf,READ_LINE_TIMEOUT); // > (–∫—É—Ä—Å–æ—Ä)
 2103              		.loc 1 293 0
 2104 0386 58A8     		add	r0, sp, #352
 2105 0388 211C     		mov	r1, r4
 2106 038a FFF7FEFF 		bl	UartReadLine
 2107              	.LVL367:
 294:.\main.c      ****                 //–ü—Ä–∏—Å–ø–∏–≤–∞–Ω–µ –Ω–∞ WIFI –º–æ–¥—É–ª–∞
 2108              		.loc 1 294 0
 2109 038e 58A8     		add	r0, sp, #352
 2110 0390 211C     		mov	r1, r4
 2111 0392 FFF7FEFF 		bl	UartReadLine
 2112              	.LVL368:
 297:.\main.c      ****                 sprintf(txbuf,"AT+GSLP=%d\r\n",SLEEP_TIME);
 2113              		.loc 1 297 0
 2114 0396 FFF7FEFF 		bl	UART_ClearRxBuffer
 2115              	.LVL369:
 298:.\main.c      ****                 UART_PutString(txbuf);
 2116              		.loc 1 298 0
 2117 039a 09A8     		add	r0, sp, #36
 2118 039c 2949     		ldr	r1, .L131+124
 2119 039e 2A4A     		ldr	r2, .L131+128
 2120 03a0 FFF7FEFF 		bl	sprintf
 2121              	.LVL370:
 299:.\main.c      ****                 UartReadLine(rxbuf,READ_LINE_TIMEOUT); //–ø—Ä–∞–∑–µ–Ω —Ä–µ–¥
 2122              		.loc 1 299 0
 2123 03a4 09A8     		add	r0, sp, #36
 2124 03a6 FFF7FEFF 		bl	UART_PutString
 2125              	.LVL371:
 300:.\main.c      ****                 UartReadLine(rxbuf,READ_LINE_TIMEOUT); // > (–∫—É—Ä—Å–æ—Ä)
 2126              		.loc 1 300 0
 2127 03aa 58A8     		add	r0, sp, #352
 2128 03ac 211C     		mov	r1, r4
 2129 03ae FFF7FEFF 		bl	UartReadLine
 2130              	.LVL372:
 301:.\main.c      ****                         
 2131              		.loc 1 301 0
 2132 03b2 58A8     		add	r0, sp, #352
 2133 03b4 211C     		mov	r1, r4
 2134 03b6 FFF7FEFF 		bl	UartReadLine
ARM GAS  C:\Users\Svilen\AppData\Local\Temp\ccuaxGpF.s 			page 54


 2135              	.LVL373:
 303:.\main.c      ****                 LED_B_Write(1);
 2136              		.loc 1 303 0
 2137 03ba 0020     		mov	r0, #0
 2138 03bc FFF7FEFF 		bl	LED_G_Write
 2139              	.LVL374:
 304:.\main.c      ****                 continue;
 2140              		.loc 1 304 0
 2141 03c0 0120     		mov	r0, #1
 2142 03c2 FFF7FEFF 		bl	LED_B_Write
 2143              	.LVL375:
 305:.\main.c      ****             }
 2144              		.loc 1 305 0
 2145 03c6 D0E6     		b	.L111
 2146              	.L132:
 2147              		.align	2
 2148              	.L131:
 2149 03c8 00000000 		.word	TimeoutISR
 2150 03cc 00000000 		.word	RainISR
 2151 03d0 00000000 		.word	timeoutFlag
 2152 03d4 B80B0000 		.word	3000
 2153 03d8 00000000 		.word	rainCounter
 2154 03dc 00000000 		.word	.LC32
 2155 03e0 08000000 		.word	.LC34
 2156 03e4 0C000000 		.word	.LC36
 2157 03e8 18000000 		.word	.LC38
 2158 03ec 2C000000 		.word	.LC40
 2159 03f0 38000000 		.word	.LC42
 2160 03f4 68010000 		.word	.LC44
 2161 03f8 A8610000 		.word	25000
 2162 03fc 48000000 		.word	.LC46
 2163 0400 70000000 		.word	.LC48
 2164 0404 78000000 		.word	.LC50
 2165 0408 84000000 		.word	.LC52
 2166 040c 18FCFFFF 		.word	-1000
 2167 0410 00000000 		.word	AM2302_Temp
 2168 0414 00000000 		.word	AM2302_Humidity
 2169 0418 A4000000 		.word	.LC56
 2170 041c 00000000 		.word	windDirection
 2171 0420 00000000 		.word	windSpeed
 2172 0424 BC000000 		.word	.LC58
 2173 0428 D4000000 		.word	.LC62
 2174 042c F0000000 		.word	.LC64
 2175 0430 00003040 		.word	1076887552
 2176 0434 FC000000 		.word	.LC66
 2177 0438 0C010000 		.word	.LC68
 2178 043c 14010000 		.word	.LC70
 2179 0440 24010000 		.word	.LC72
 2180 0444 34010000 		.word	.LC74
 2181 0448 204E0000 		.word	20000
 2182              	.LVL376:
 2183              	.L116:
 309:.\main.c      ****             {//–ó–∞—Ç–æ–≤–∞ —Å–µ –∑–∞—Ç–≤–∞—Ä—è –∏ –∏–∑–≥—Ä–∞–∂–¥–∞ –Ω–∞–Ω–æ–≤–æ
 2184              		.loc 1 309 0
 2185 044c 58A8     		add	r0, sp, #352
 2186 044e 2B49     		ldr	r1, .L133
 2187 0450 1122     		mov	r2, #17
ARM GAS  C:\Users\Svilen\AppData\Local\Temp\ccuaxGpF.s 			page 55


 2188 0452 FFF7FEFF 		bl	strncmp
 2189              	.LVL377:
 2190 0456 0028     		cmp	r0, #0
 2191 0458 0DD1     		bne	.L121
 311:.\main.c      ****                 UART_ClearRxBuffer();
 2192              		.loc 1 311 0
 2193 045a C824     		mov	r4, #200
 2194              	.LVL378:
 2195 045c 6400     		lsl	r4, r4, #1
 2196 045e 201C     		mov	r0, r4
 2197 0460 FFF7FEFF 		bl	CyDelay
 2198              	.LVL379:
 312:.\main.c      ****                 UART_PutString("AT+CIPCLOSE\r\n");
 2199              		.loc 1 312 0
 2200 0464 FFF7FEFF 		bl	UART_ClearRxBuffer
 2201              	.LVL380:
 313:.\main.c      ****                 CyDelay(400);
 2202              		.loc 1 313 0
 2203 0468 2548     		ldr	r0, .L133+4
 2204 046a FFF7FEFF 		bl	UART_PutString
 2205              	.LVL381:
 314:.\main.c      ****                 goto EstablishConnection;
 2206              		.loc 1 314 0
 2207 046e 201C     		mov	r0, r4
 2208 0470 FFF7FEFF 		bl	CyDelay
 2209              	.LVL382:
 315:.\main.c      ****             }
 2210              		.loc 1 315 0
 2211 0474 8FE6     		b	.L112
 2212              	.LVL383:
 2213              	.L121:
 318:.\main.c      ****             {
 2214              		.loc 1 318 0
 2215 0476 58A8     		add	r0, sp, #352
 2216 0478 2249     		ldr	r1, .L133+8
 2217 047a 0522     		mov	r2, #5
 2218 047c FFF7FEFF 		bl	strncmp
 2219              	.LVL384:
 2220 0480 0028     		cmp	r0, #0
 2221 0482 15D1     		bne	.L130
 2222 0484 0DE0     		b	.L127
 2223              	.L124:
 322:.\main.c      ****                     CyDelay(100);                        
 2224              		.loc 1 322 0 discriminator 3
 2225 0486 0020     		mov	r0, #0
 2226 0488 FFF7FEFF 		bl	LED_R_Write
 2227              	.LVL385:
 323:.\main.c      ****                     LED_R_Write(1);
 2228              		.loc 1 323 0 discriminator 3
 2229 048c 6420     		mov	r0, #100
 2230 048e FFF7FEFF 		bl	CyDelay
 2231              	.LVL386:
 324:.\main.c      ****                     CyDelay(100);                                                
 2232              		.loc 1 324 0 discriminator 3
 2233 0492 0120     		mov	r0, #1
 2234 0494 FFF7FEFF 		bl	LED_R_Write
 2235              	.LVL387:
ARM GAS  C:\Users\Svilen\AppData\Local\Temp\ccuaxGpF.s 			page 56


 325:.\main.c      ****                 }
 2236              		.loc 1 325 0 discriminator 3
 2237 0498 6420     		mov	r0, #100
 2238 049a FFF7FEFF 		bl	CyDelay
 2239              	.LVL388:
 320:.\main.c      ****                 {
 2240              		.loc 1 320 0 discriminator 3
 2241 049e 013C     		sub	r4, r4, #1
 2242              	.LVL389:
 2243 04a0 00E0     		b	.L122
 2244              	.L127:
 2245 04a2 0A24     		mov	r4, #10
 2246              	.LVL390:
 2247              	.L122:
 320:.\main.c      ****                 {
 2248              		.loc 1 320 0 is_stmt 0 discriminator 1
 2249 04a4 002C     		cmp	r4, #0
 2250 04a6 EED1     		bne	.L124
 327:.\main.c      ****                 goto CheckAT;
 2251              		.loc 1 327 0 is_stmt 1
 2252 04a8 0120     		mov	r0, #1
 2253 04aa FFF7FEFF 		bl	LED_G_Write
 2254              	.LVL391:
 328:.\main.c      ****             }
 2255              		.loc 1 328 0
 2256 04ae D7E5     		b	.L103
 2257              	.L130:
 334:.\main.c      ****             if(strncmp(rxbuf,"ERROR",5)==0)
 2258              		.loc 1 334 0
 2259 04b0 0020     		mov	r0, #0
 2260 04b2 FFF7FEFF 		bl	LED_R_Write
 2261              	.LVL392:
 335:.\main.c      ****             {   //–û–ø–∏—Ç–∞ –¥–∞ —Å–µ –∏–∑–≥—Ä–∞–¥–∏ TCP –≤—Ä—ä–∑–∫–∞ –µ –Ω–µ—É—Å–ø–µ—à–µ–Ω.
 2262              		.loc 1 335 0
 2263 04b6 58A8     		add	r0, sp, #352
 2264 04b8 1349     		ldr	r1, .L133+12
 2265 04ba 0522     		mov	r2, #5
 2266 04bc FFF7FEFF 		bl	strncmp
 2267              	.LVL393:
 2268 04c0 0028     		cmp	r0, #0
 2269 04c2 0ED0     		beq	.L128
 2270 04c4 51E6     		b	.L111
 2271              	.L126:
 340:.\main.c      ****                     CyDelay(100);                        
 2272              		.loc 1 340 0 discriminator 3
 2273 04c6 0020     		mov	r0, #0
 2274 04c8 FFF7FEFF 		bl	LED_R_Write
 2275              	.LVL394:
 341:.\main.c      ****                     LED_R_Write(1);
 2276              		.loc 1 341 0 discriminator 3
 2277 04cc 6420     		mov	r0, #100
 2278 04ce FFF7FEFF 		bl	CyDelay
 2279              	.LVL395:
 342:.\main.c      ****                     CyDelay(100);                                                
 2280              		.loc 1 342 0 discriminator 3
 2281 04d2 0120     		mov	r0, #1
 2282 04d4 FFF7FEFF 		bl	LED_R_Write
ARM GAS  C:\Users\Svilen\AppData\Local\Temp\ccuaxGpF.s 			page 57


 2283              	.LVL396:
 343:.\main.c      ****                 }
 2284              		.loc 1 343 0 discriminator 3
 2285 04d8 6420     		mov	r0, #100
 2286 04da FFF7FEFF 		bl	CyDelay
 2287              	.LVL397:
 338:.\main.c      ****                 {
 2288              		.loc 1 338 0 discriminator 3
 2289 04de 013C     		sub	r4, r4, #1
 2290              	.LVL398:
 2291 04e0 00E0     		b	.L125
 2292              	.L128:
 2293 04e2 0A24     		mov	r4, #10
 2294              	.LVL399:
 2295              	.L125:
 338:.\main.c      ****                 {
 2296              		.loc 1 338 0 is_stmt 0 discriminator 1
 2297 04e4 002C     		cmp	r4, #0
 2298 04e6 EED1     		bne	.L126
 345:.\main.c      ****                 if(retry==0) 
 2299              		.loc 1 345 0 is_stmt 1
 2300 04e8 013D     		sub	r5, r5, #1
 2301              	.LVL400:
 2302 04ea EDB2     		uxtb	r5, r5
 2303              	.LVL401:
 346:.\main.c      ****                 {// –ø—Ä–æ–≤–µ—Ä–∫–∞ –¥–∞–ª–∏ –æ—Ç–≥–æ–≤–∞—Ä—è –Ω–∞ –ê–¢ –∫–æ–º–∞–Ω–¥–∞
 2304              		.loc 1 346 0
 2305 04ec 002D     		cmp	r5, #0
 2306 04ee 00D0     		beq	.LCB2292
 2307 04f0 51E6     		b	.L112	@long jump
 2308              	.LCB2292:
 349:.\main.c      ****                     goto CheckAT;            
 2309              		.loc 1 349 0
 2310 04f2 0120     		mov	r0, #1
 2311 04f4 FFF7FEFF 		bl	LED_G_Write
 2312              	.LVL402:
 2313              	.L104:
 350:.\main.c      ****                 }
 2314              		.loc 1 350 0
 2315 04f8 B2E5     		b	.L103
 2316              	.L134:
 2317 04fa C046     		.align	2
 2318              	.L133:
 2319 04fc 44010000 		.word	.LC76
 2320 0500 24010000 		.word	.LC72
 2321 0504 58010000 		.word	.LC78
 2322 0508 60010000 		.word	.LC80
 2323              		.cfi_endproc
 2324              	.LFE36:
 2325              		.size	main, .-main
 2326              		.comm	windSpeed,2,2
 2327              		.comm	windDirection,2,2
 2328              		.comm	AM2302_CRC,1,1
 2329              		.comm	AM2302_Temp,2,2
 2330              		.comm	AM2302_Humidity,2,2
 2331              		.comm	AC6,2,2
 2332              		.comm	AC5,2,2
ARM GAS  C:\Users\Svilen\AppData\Local\Temp\ccuaxGpF.s 			page 58


 2333              		.comm	AC4,2,2
 2334              		.comm	MD,2,2
 2335              		.comm	MC,2,2
 2336              		.comm	MB,2,2
 2337              		.comm	B2,2,2
 2338              		.comm	B1,2,2
 2339              		.comm	AC3,2,2
 2340              		.comm	AC2,2,2
 2341              		.comm	AC1,2,2
 2342              		.comm	rainCounter,4,4
 2343              		.comm	timeoutFlag,1,1
 2344              		.section	.rodata.str1.4,"aMS",%progbits,1
 2345              		.align	2
 2346              	.LC32:
 2347 0000 41544530 		.ascii	"ATE0\015\012\000"
 2347      0D0A00
 2348 0007 00       		.space	1
 2349              	.LC34:
 2350 0008 4F4B00   		.ascii	"OK\000"
 2351 000b 00       		.space	1
 2352              	.LC36:
 2353 000c 41542B43 		.ascii	"AT+CWJAP?\015\012\000"
 2353      574A4150 
 2353      3F0D0A00 
 2354              	.LC38:
 2355 0018 2B43574A 		.ascii	"+CWJAP:\"Etherino\"\000"
 2355      41503A22 
 2355      45746865 
 2355      72696E6F 
 2355      2200
 2356 002a 0000     		.space	2
 2357              	.LC40:
 2358 002c 41542B43 		.ascii	"AT+CIFSR\015\012\000"
 2358      49465352 
 2358      0D0A00
 2359 0037 00       		.space	1
 2360              	.LC42:
 2361 0038 2B434946 		.ascii	"+CIFSR:STAMAC\000"
 2361      53523A53 
 2361      54414D41 
 2361      4300
 2362 0046 0000     		.space	2
 2363              	.LC46:
 2364 0048 41542B43 		.ascii	"AT+CIPSTART=\"UDP\",\"224.0.0.120\",8888\015\012\000"
 2364      49505354 
 2364      4152543D 
 2364      22554450 
 2364      222C2232 
 2365 006f 00       		.space	1
 2366              	.LC48:
 2367 0070 434F4E4E 		.ascii	"CONNECT\000"
 2367      45435400 
 2368              	.LC50:
 2369 0078 4D41433D 		.ascii	"MAC=%s\015\012\000"
 2369      25730D0A 
 2369      00
 2370 0081 000000   		.space	3
ARM GAS  C:\Users\Svilen\AppData\Local\Temp\ccuaxGpF.s 			page 59


 2371              	.LC52:
 2372 0084 424D5031 		.ascii	"BMP180: T=%2.0ld P=%4.0ldhPa\015\012\000"
 2372      38303A20 
 2372      543D2532 
 2372      2E306C64 
 2372      20503D25 
 2373 00a3 00       		.space	1
 2374              	.LC56:
 2375 00a4 414D3233 		.ascii	"AM2302: T=%d Rh=%d\015\012\000"
 2375      30323A20 
 2375      543D2564 
 2375      2052683D 
 2375      25640D0A 
 2376 00b9 000000   		.space	3
 2377              	.LC58:
 2378 00bc 54583230 		.ascii	"TX20: Dir=%d Speed=%d\015\012\000"
 2378      3A204469 
 2378      723D2564 
 2378      20537065 
 2378      65643D25 
 2379              	.LC62:
 2380 00d4 54583230 		.ascii	"TX20: Dir=ERR Speed=ERR\015\012\000"
 2380      3A204469 
 2380      723D4552 
 2380      52205370 
 2380      6565643D 
 2381 00ee 0000     		.space	2
 2382              	.LC64:
 2383 00f0 5241494E 		.ascii	"RAIN: %d\015\012\000"
 2383      3A202564 
 2383      0D0A00
 2384 00fb 00       		.space	1
 2385              	.LC66:
 2386 00fc 55626174 		.ascii	"Ubat: %d.%d V\015\012\000"
 2386      3A202564 
 2386      2E256420 
 2386      560D0A00 
 2387              	.LC68:
 2388 010c 454E440D 		.ascii	"END\015\012\000"
 2388      0A00
 2389 0112 0000     		.space	2
 2390              	.LC70:
 2391 0114 41542B43 		.ascii	"AT+CIPSEND=%d\015\012\000"
 2391      49505345 
 2391      4E443D25 
 2391      640D0A00 
 2392              	.LC72:
 2393 0124 41542B43 		.ascii	"AT+CIPCLOSE\015\012\000"
 2393      4950434C 
 2393      4F53450D 
 2393      0A00
 2394 0132 0000     		.space	2
 2395              	.LC74:
 2396 0134 41542B47 		.ascii	"AT+GSLP=%d\015\012\000"
 2396      534C503D 
 2396      25640D0A 
 2396      00
ARM GAS  C:\Users\Svilen\AppData\Local\Temp\ccuaxGpF.s 			page 60


 2397 0141 000000   		.space	3
 2398              	.LC76:
 2399 0144 414C5245 		.ascii	"ALREADY CONNECTED\000"
 2399      41445920 
 2399      434F4E4E 
 2399      45435445 
 2399      4400
 2400 0156 0000     		.space	2
 2401              	.LC78:
 2402 0158 6E6F2069 		.ascii	"no ip\000"
 2402      7000
 2403 015e 0000     		.space	2
 2404              	.LC80:
 2405 0160 4552524F 		.ascii	"ERROR\000"
 2405      5200
 2406 0166 0000     		.space	2
 2407              	.LC44:
 2408 0168 30303A30 		.ascii	"00:00:00\000"
 2408      303A3030 
 2408      00
 2409 0171 000000   		.text
 2410              	.Letext0:
 2411              		.file 2 "Generated_Source\\PSoC4/cytypes.h"
 2412              		.file 3 "c:\\program files (x86)\\cypress\\psoc creator\\3.3\\psoc creator\\import\\gnu\\arm\\4.9.
 2413              		.file 4 "c:\\program files (x86)\\cypress\\psoc creator\\3.3\\psoc creator\\import\\gnu\\arm\\4.9.
 2414              		.file 5 "Generated_Source\\PSoC4/Timeout.h"
 2415              		.file 6 "Generated_Source\\PSoC4/HUM.h"
 2416              		.file 7 "Generated_Source\\PSoC4/CyLib.h"
 2417              		.file 8 "Generated_Source\\PSoC4/I2C_I2C.h"
 2418              		.file 9 "Generated_Source\\PSoC4/UART.h"
 2419              		.file 10 "Generated_Source\\PSoC4/PinWindRX.h"
 2420              		.file 11 "Generated_Source\\PSoC4/PinWindCE.h"
 2421              		.file 12 "Generated_Source\\PSoC4/ClockTO.h"
 2422              		.file 13 "Generated_Source\\PSoC4/ADC.h"
 2423              		.file 14 "Generated_Source\\PSoC4/ADC_IRQ.h"
 2424              		.file 15 "Generated_Source\\PSoC4/I2C.h"
 2425              		.file 16 "Generated_Source\\PSoC4/isr_Timeout.h"
 2426              		.file 17 "Generated_Source\\PSoC4/isr_Rain.h"
 2427              		.file 18 "Generated_Source\\PSoC4/LED_B.h"
 2428              		.file 19 "Generated_Source\\PSoC4/LED_R.h"
 2429              		.file 20 "Generated_Source\\PSoC4/LED_G.h"
 2430              		.file 21 "c:\\program files (x86)\\cypress\\psoc creator\\3.3\\psoc creator\\import\\gnu\\arm\\4.9
 2431              		.file 22 "c:\\program files (x86)\\cypress\\psoc creator\\3.3\\psoc creator\\import\\gnu\\arm\\4.9
 2432              		.file 23 "<built-in>"